(lp0
cnumpy.core.multiarray
scalar
p1
(cnumpy
dtype
p2
(S'f4'
p3
I0
I1
tp4
Rp5
(I3
S'<'
p6
NNNI-1
I-1
I0
tp7
bS'\x84R\x18='
p8
tp9
Rp10
ag1
(g5
S'\xd2\x1d\x8c<'
p11
tp12
Rp13
ag1
(g5
S'R]h<'
p14
tp15
Rp16
ag1
(g5
S'\xae\xa2}<'
p17
tp18
Rp19
ag1
(g5
S'\xdbG~<'
p20
tp21
Rp22
ag1
(g5
S'\x7f\xb4d<'
p23
tp24
Rp25
ag1
(g5
S'<\xb8d<'
p26
tp27
Rp28
ag1
(g5
S'\x88Ga<'
p29
tp30
Rp31
ag1
(g5
S'$*~<'
p32
tp33
Rp34
ag1
(g5
S'l]_<'
p35
tp36
Rp37
ag1
(g5
S'E:|<'
p38
tp39
Rp40
ag1
(g5
S'c\xfah<'
p41
tp42
Rp43
ag1
(g5
S'S\xb7s<'
p44
tp45
Rp46
ag1
(g5
S'7!m<'
p47
tp48
Rp49
ag1
(g5
S'Ssk<'
p50
tp51
Rp52
ag1
(g5
S'\x8f\xf1g<'
p53
tp54
Rp55
ag1
(g5
S'\xd5#\x81<'
p56
tp57
Rp58
ag1
(g5
S'@gu<'
p59
tp60
Rp61
ag1
(g5
S'\xde\xc8q<'
p62
tp63
Rp64
ag1
(g5
S'\x9a#\x80<'
p65
tp66
Rp67
ag1
(g5
S'R\xd5\\<'
p68
tp69
Rp70
ag1
(g5
S'O\x1a`<'
p71
tp72
Rp73
ag1
(g5
S'v\x8bh<'
p74
tp75
Rp76
ag1
(g5
S'*\xb5w<'
p77
tp78
Rp79
ag1
(g5
S'\xf5\x00_<'
p80
tp81
Rp82
ag1
(g5
S'\xc2+j<'
p83
tp84
Rp85
ag1
(g5
S'\x82\xccb<'
p86
tp87
Rp88
ag1
(g5
S'\x8b\xfai<'
p89
tp90
Rp91
ag1
(g5
S'\xff\xc2k<'
p92
tp93
Rp94
ag1
(g5
S'\xcesg<'
p95
tp96
Rp97
ag1
(g5
S'd\xb5t<'
p98
tp99
Rp100
ag1
(g5
S' \x14\x88<'
p101
tp102
Rp103
ag1
(g5
S'\xa1\x1fl<'
p104
tp105
Rp106
ag1
(g5
S'\x11bk<'
p107
tp108
Rp109
ag1
(g5
S'\xf8\xebq<'
p110
tp111
Rp112
ag1
(g5
S'e\x18a<'
p113
tp114
Rp115
ag1
(g5
S'\x10@t<'
p116
tp117
Rp118
ag1
(g5
S'1~g<'
p119
tp120
Rp121
ag1
(g5
S'N\x18\x82<'
p122
tp123
Rp124
ag1
(g5
S'\x110g<'
p125
tp126
Rp127
ag1
(g5
S'\xe0\x97m<'
p128
tp129
Rp130
ag1
(g5
S':!`<'
p131
tp132
Rp133
ag1
(g5
S'\xd4m\x87<'
p134
tp135
Rp136
ag1
(g5
S'\x9b\xf5c<'
p137
tp138
Rp139
ag1
(g5
S'\x87\xa1[<'
p140
tp141
Rp142
ag1
(g5
S'OCr<'
p143
tp144
Rp145
ag1
(g5
S'\x86\xb2h<'
p146
tp147
Rp148
ag1
(g5
S'\x93O{<'
p149
tp150
Rp151
ag1
(g5
S'\xd8\xb9^<'
p152
tp153
Rp154
ag1
(g5
S'\x01\xc0j<'
p155
tp156
Rp157
ag1
(g5
S'\xa0\x1cq<'
p158
tp159
Rp160
ag1
(g5
S'$\nh<'
p161
tp162
Rp163
ag1
(g5
S'\xdfXv<'
p164
tp165
Rp166
ag1
(g5
S'\xdc\x16l<'
p167
tp168
Rp169
ag1
(g5
S'\xf9\xb6[<'
p170
tp171
Rp172
ag1
(g5
S'\xa6\xf9L<'
p173
tp174
Rp175
ag1
(g5
S'\xf7\x1ed<'
p176
tp177
Rp178
ag1
(g5
S'\x13co<'
p179
tp180
Rp181
ag1
(g5
S'\x83\xc0k<'
p182
tp183
Rp184
ag1
(g5
S'\xdb\xf7|<'
p185
tp186
Rp187
ag1
(g5
S'r\xe3R<'
p188
tp189
Rp190
ag1
(g5
S'/)W<'
p191
tp192
Rp193
ag1
(g5
S'\x16\xc6x<'
p194
tp195
Rp196
ag1
(g5
S'\x82\x0en<'
p197
tp198
Rp199
ag1
(g5
S'\xc7\xbe\x7f<'
p200
tp201
Rp202
ag1
(g5
S'%\xbe`<'
p203
tp204
Rp205
ag1
(g5
S'\xbe\x1eU<'
p206
tp207
Rp208
ag1
(g5
S'\x98\xf0U<'
p209
tp210
Rp211
ag1
(g5
S'\xb0\xfdv<'
p212
tp213
Rp214
ag1
(g5
S'*\xe7k<'
p215
tp216
Rp217
ag1
(g5
S'h\xc6k<'
p218
tp219
Rp220
ag1
(g5
S'0\x1dt<'
p221
tp222
Rp223
ag1
(g5
S'\x82\xa4x<'
p224
tp225
Rp226
ag1
(g5
S'\x06\xf3Z<'
p227
tp228
Rp229
ag1
(g5
S'd/\x82<'
p230
tp231
Rp232
ag1
(g5
S'\xf4Nf<'
p233
tp234
Rp235
ag1
(g5
S'\xb6\x1bl<'
p236
tp237
Rp238
ag1
(g5
S' \xb2I<'
p239
tp240
Rp241
ag1
(g5
S'\xf3\x1fv<'
p242
tp243
Rp244
ag1
(g5
S'rrp<'
p245
tp246
Rp247
ag1
(g5
S'\xedd\x85<'
p248
tp249
Rp250
ag1
(g5
S'\xc2\ty<'
p251
tp252
Rp253
ag1
(g5
S'R\x86y<'
p254
tp255
Rp256
ag1
(g5
S'\x01"d<'
p257
tp258
Rp259
ag1
(g5
S'\x82\tV<'
p260
tp261
Rp262
ag1
(g5
S'MHk<'
p263
tp264
Rp265
ag1
(g5
S'\x9f\xd6Z<'
p266
tp267
Rp268
ag1
(g5
S'\xe7\x87\x8d<'
p269
tp270
Rp271
ag1
(g5
S'\x15\xdbc<'
p272
tp273
Rp274
ag1
(g5
S'\xb2)e<'
p275
tp276
Rp277
ag1
(g5
S'\x8c9s<'
p278
tp279
Rp280
ag1
(g5
S'\xd8\xf3\x80<'
p281
tp282
Rp283
ag1
(g5
S'\xf1\x80q<'
p284
tp285
Rp286
ag1
(g5
S'\xc1\xe2q<'
p287
tp288
Rp289
ag1
(g5
S'\x82K`<'
p290
tp291
Rp292
ag1
(g5
S'W\x9c\x81<'
p293
tp294
Rp295
ag1
(g5
S'\xb5\xa8r<'
p296
tp297
Rp298
ag1
(g5
S'\xf0!l<'
p299
tp300
Rp301
ag1
(g5
S'\x9a\xfcd<'
p302
tp303
Rp304
ag1
(g5
S'\xf8|\x80<'
p305
tp306
Rp307
ag1
(g5
S'\x16\xe4\x86<'
p308
tp309
Rp310
ag1
(g5
S'\xbf\xc4[<'
p311
tp312
Rp313
ag1
(g5
S'\xea\xdft<'
p314
tp315
Rp316
ag1
(g5
S'Jwy<'
p317
tp318
Rp319
ag1
(g5
S'\xaa^b<'
p320
tp321
Rp322
ag1
(g5
S'RS^<'
p323
tp324
Rp325
ag1
(g5
S'_\x05}<'
p326
tp327
Rp328
ag1
(g5
S'\xec*f<'
p329
tp330
Rp331
ag1
(g5
S'\xc4\x80Y<'
p332
tp333
Rp334
ag1
(g5
S'\xb3sJ<'
p335
tp336
Rp337
ag1
(g5
S'\x85Q[<'
p338
tp339
Rp340
ag1
(g5
S'aYv<'
p341
tp342
Rp343
ag1
(g5
S'\xff\xbac<'
p344
tp345
Rp346
ag1
(g5
S'c\xcfk<'
p347
tp348
Rp349
ag1
(g5
S'\xaf\xca~<'
p350
tp351
Rp352
ag1
(g5
S'kKR<'
p353
tp354
Rp355
ag1
(g5
S'\xa8\x95h<'
p356
tp357
Rp358
ag1
(g5
S'\xe8\xbd\x81<'
p359
tp360
Rp361
ag1
(g5
S'%.\x80<'
p362
tp363
Rp364
ag1
(g5
S'r\x95u<'
p365
tp366
Rp367
ag1
(g5
S'(\x02g<'
p368
tp369
Rp370
ag1
(g5
S'\x10.O<'
p371
tp372
Rp373
ag1
(g5
S'\x08\xe6d<'
p374
tp375
Rp376
ag1
(g5
S'\xd0\xed[<'
p377
tp378
Rp379
ag1
(g5
S'\xf6\xd3e<'
p380
tp381
Rp382
ag1
(g5
S'\x1a\t\x80<'
p383
tp384
Rp385
ag1
(g5
S'\xc0\xbck<'
p386
tp387
Rp388
ag1
(g5
S']\t`<'
p389
tp390
Rp391
ag1
(g5
S'\x93{u<'
p392
tp393
Rp394
ag1
(g5
S'G&v<'
p395
tp396
Rp397
ag1
(g5
S'\x9d\x10\\<'
p398
tp399
Rp400
ag1
(g5
S'p*\\<'
p401
tp402
Rp403
ag1
(g5
S'\xef\xd0Y<'
p404
tp405
Rp406
ag1
(g5
S'q<u<'
p407
tp408
Rp409
ag1
(g5
S'W\x11W<'
p410
tp411
Rp412
ag1
(g5
S'\xac\xdbt<'
p413
tp414
Rp415
ag1
(g5
S'9\xdc_<'
p416
tp417
Rp418
ag1
(g5
S'\xafhk<'
p419
tp420
Rp421
ag1
(g5
S'z\xb4f<'
p422
tp423
Rp424
ag1
(g5
S'\xeb\x8dc<'
p425
tp426
Rp427
ag1
(g5
S'J\xe8`<'
p428
tp429
Rp430
ag1
(g5
S';\xa1|<'
p431
tp432
Rp433
ag1
(g5
S'\xd0on<'
p434
tp435
Rp436
ag1
(g5
S'\x0e\x93j<'
p437
tp438
Rp439
ag1
(g5
S'b\xd0w<'
p440
tp441
Rp442
ag1
(g5
S'\xc8\xefS<'
p443
tp444
Rp445
ag1
(g5
S'0\xfeX<'
p446
tp447
Rp448
ag1
(g5
S'S\xf2`<'
p449
tp450
Rp451
ag1
(g5
S'\x93\xb7o<'
p452
tp453
Rp454
ag1
(g5
S'\xf0\xbeX<'
p455
tp456
Rp457
ag1
(g5
S'`\x0bd<'
p458
tp459
Rp460
ag1
(g5
S'\xff\xf7Z<'
p461
tp462
Rp463
ag1
(g5
S'\xb4,b<'
p464
tp465
Rp466
ag1
(g5
S'\x99\xfeb<'
p467
tp468
Rp469
ag1
(g5
S'\x0c`a<'
p470
tp471
Rp472
ag1
(g5
S'w\x03n<'
p473
tp474
Rp475
ag1
(g5
S'.\xad\x83<'
p476
tp477
Rp478
ag1
(g5
S'O\xb6c<'
p479
tp480
Rp481
ag1
(g5
S',\xe8b<'
p482
tp483
Rp484
ag1
(g5
S'\xbbvh<'
p485
tp486
Rp487
ag1
(g5
S'N%W<'
p488
tp489
Rp490
ag1
(g5
S'\x18\xd9k<'
p491
tp492
Rp493
ag1
(g5
S'\x12\xe4^<'
p494
tp495
Rp496
ag1
(g5
S'\xfd\xd0{<'
p497
tp498
Rp499
ag1
(g5
S'&\xbf^<'
p500
tp501
Rp502
ag1
(g5
S'BYe<'
p503
tp504
Rp505
ag1
(g5
S'c\xd4W<'
p506
tp507
Rp508
ag1
(g5
S'\x0f\xa6\x81<'
p509
tp510
Rp511
ag1
(g5
S'\xdf\xadX<'
p512
tp513
Rp514
ag1
(g5
S'}\xeaO<'
p515
tp516
Rp517
ag1
(g5
S'<8h<'
p518
tp519
Rp520
ag1
(g5
S'\x1a[^<'
p521
tp522
Rp523
ag1
(g5
S'\xa4\xc7t<'
p524
tp525
Rp526
ag1
(g5
S'F\x0cW<'
p527
tp528
Rp529
ag1
(g5
S'T\x83c<'
p530
tp531
Rp532
ag1
(g5
S'b\x1cg<'
p533
tp534
Rp535
ag1
(g5
S'\xf0\x93]<'
p536
tp537
Rp538
ag1
(g5
S'\xe7\xb2i<'
p539
tp540
Rp541
ag1
(g5
S'k\x18b<'
p542
tp543
Rp544
ag1
(g5
S'\xb8\xf1R<'
p545
tp546
Rp547
ag1
(g5
S'\xcd\xfaB<'
p548
tp549
Rp550
ag1
(g5
S'\xc9\xd7Z<'
p551
tp552
Rp553
ag1
(g5
S'\xa0uh<'
p554
tp555
Rp556
ag1
(g5
S'\xa5\x88a<'
p557
tp558
Rp559
ag1
(g5
S'\x04\x88q<'
p560
tp561
Rp562
ag1
(g5
S'F\x96H<'
p563
tp564
Rp565
ag1
(g5
S'N\x1cN<'
p566
tp567
Rp568
ag1
(g5
S'\x9c)p<'
p569
tp570
Rp571
ag1
(g5
S'Y\re<'
p572
tp573
Rp574
ag1
(g5
S'a\x1bv<'
p575
tp576
Rp577
ag1
(g5
S'\x19IU<'
p578
tp579
Rp580
ag1
(g5
S'\xad\xdbI<'
p581
tp582
Rp583
ag1
(g5
S'oSK<'
p584
tp585
Rp586
ag1
(g5
S'\r\xebk<'
p587
tp588
Rp589
ag1
(g5
S'\x8a*b<'
p590
tp591
Rp592
ag1
(g5
S'b\xcef<'
p593
tp594
Rp595
ag1
(g5
S'%]g<'
p596
tp597
Rp598
ag1
(g5
S'\xd4\xabo<'
p599
tp600
Rp601
ag1
(g5
S'\x190Q<'
p602
tp603
Rp604
ag1
(g5
S'\x15%y<'
p605
tp606
Rp607
ag1
(g5
S'\x88_]<'
p608
tp609
Rp610
ag1
(g5
S'\xa8Y`<'
p611
tp612
Rp613
ag1
(g5
S'\xb5b><'
p614
tp615
Rp616
ag1
(g5
S'0\xdek<'
p617
tp618
Rp619
ag1
(g5
S'\x9c/e<'
p620
tp621
Rp622
ag1
(g5
S'8r\x7f<'
p623
tp624
Rp625
ag1
(g5
S'\x00\x96n<'
p626
tp627
Rp628
ag1
(g5
S'\xbaSq<'
p629
tp630
Rp631
ag1
(g5
S'\xc8JX<'
p632
tp633
Rp634
ag1
(g5
S'\xce\x1cN<'
p635
tp636
Rp637
ag1
(g5
S'\xcf\xd7^<'
p638
tp639
Rp640
ag1
(g5
S'\xd2MR<'
p641
tp642
Rp643
ag1
(g5
S'Gl\x89<'
p644
tp645
Rp646
ag1
(g5
S'\xcbSX<'
p647
tp648
Rp649
ag1
(g5
S'L|X<'
p650
tp651
Rp652
ag1
(g5
S'>\xa8f<'
p653
tp654
Rp655
ag1
(g5
S'\x03\xc5y<'
p656
tp657
Rp658
ag1
(g5
S'\xd8>i<'
p659
tp660
Rp661
ag1
(g5
S'\xe4\xd2g<'
p662
tp663
Rp664
ag1
(g5
S'm\xcfV<'
p665
tp666
Rp667
ag1
(g5
S'V\xd6x<'
p668
tp669
Rp670
ag1
(g5
S'\x95Di<'
p671
tp672
Rp673
ag1
(g5
S'&\x95a<'
p674
tp675
Rp676
ag1
(g5
S'|M_<'
p677
tp678
Rp679
ag1
(g5
S'r.t<'
p680
tp681
Rp682
ag1
(g5
S'\xe5f\x82<'
p683
tp684
Rp685
ag1
(g5
S'\xd3YP<'
p686
tp687
Rp688
ag1
(g5
S'3\x11i<'
p689
tp690
Rp691
ag1
(g5
S'/uo<'
p692
tp693
Rp694
ag1
(g5
S'\xf7\r]<'
p695
tp696
Rp697
ag1
(g5
S'\x0b\x08U<'
p698
tp699
Rp700
ag1
(g5
S'\x81\x04t<'
p701
tp702
Rp703
ag1
(g5
S'\x99M[<'
p704
tp705
Rp706
ag1
(g5
S'J\xc3O<'
p707
tp708
Rp709
ag1
(g5
S'\x9a\x85@<'
p710
tp711
Rp712
ag1
(g5
S'@\xacL<'
p713
tp714
Rp715
ag1
(g5
S'\x8b\x84k<'
p716
tp717
Rp718
ag1
(g5
S'\x16\x91\\<'
p719
tp720
Rp721
ag1
(g5
S'PX_<'
p722
tp723
Rp724
ag1
(g5
S'_\x87z<'
p725
tp726
Rp727
ag1
(g5
S'\x01\xc5I<'
p728
tp729
Rp730
ag1
(g5
S'\xb97]<'
p731
tp732
Rp733
ag1
(g5
S'\x84\x1aw<'
p734
tp735
Rp736
ag1
(g5
S'\x8c\x06y<'
p737
tp738
Rp739
ag1
(g5
S'/3k<'
p740
tp741
Rp742
ag1
(g5
S'\xce\xc1[<'
p743
tp744
Rp745
ag1
(g5
S'z\xd4C<'
p746
tp747
Rp748
ag1
(g5
S'\xbd\xeeY<'
p749
tp750
Rp751
ag1
(g5
S'\x96\x1aQ<'
p752
tp753
Rp754
ag1
(g5
S')\xddZ<'
p755
tp756
Rp757
ag1
(g5
S'>\xd6t<'
p758
tp759
Rp760
ag1
(g5
S'\x83BZ<'
p761
tp762
Rp763
ag1
(g5
S'\x99\xe0V<'
p764
tp765
Rp766
ag1
(g5
S'\x07%j<'
p767
tp768
Rp769
ag1
(g5
S'\x92\x86k<'
p770
tp771
Rp772
ag1
(g5
S'9*O<'
p773
tp774
Rp775
ag1
(g5
S'\xde\xf3O<'
p776
tp777
Rp778
ag1
(g5
S'%\xbfN<'
p779
tp780
Rp781
ag1
(g5
S'\x06\x08i<'
p782
tp783
Rp784
ag1
(g5
S'\xa8\xceL<'
p785
tp786
Rp787
ag1
(g5
S'\x90rj<'
p788
tp789
Rp790
ag1
(g5
S'\x1f\xa6U<'
p791
tp792
Rp793
ag1
(g5
S'W\xce_<'
p794
tp795
Rp796
ag1
(g5
S'\xa0\xffY<'
p797
tp798
Rp799
ag1
(g5
S'~\xb8Z<'
p800
tp801
Rp802
ag1
(g5
S'kFU<'
p803
tp804
Rp805
ag1
(g5
S'\x91|s<'
p806
tp807
Rp808
ag1
(g5
S'F\x0ce<'
p809
tp810
Rp811
ag1
(g5
S'\xcd\x92_<'
p812
tp813
Rp814
ag1
(g5
S'\x95\xbdn<'
p815
tp816
Rp817
ag1
(g5
S'{bK<'
p818
tp819
Rp820
ag1
(g5
S'heR<'
p821
tp822
Rp823
ag1
(g5
S'C\xadX<'
p824
tp825
Rp826
ag1
(g5
S'J\xb2b<'
p827
tp828
Rp829
ag1
(g5
S'(\xb9M<'
p830
tp831
Rp832
ag1
(g5
S'-\x88[<'
p833
tp834
Rp835
ag1
(g5
S'\xc6\x82O<'
p836
tp837
Rp838
ag1
(g5
S'z\xe7T<'
p839
tp840
Rp841
ag1
(g5
S'\xd6\xbcW<'
p842
tp843
Rp844
ag1
(g5
S'\xd2L]<'
p845
tp846
Rp847
ag1
(g5
S'3\x03b<'
p848
tp849
Rp850
ag1
(g5
S'\x81\xba}<'
p851
tp852
Rp853
ag1
(g5
S'\xf7\tX<'
p854
tp855
Rp856
ag1
(g5
S'\xe47W<'
p857
tp858
Rp859
ag1
(g5
S'\xf2}_<'
p860
tp861
Rp862
ag1
(g5
S'P\x14N<'
p863
tp864
Rp865
ag1
(g5
S'}f^<'
p866
tp867
Rp868
ag1
(g5
S'\x9e\x02T<'
p869
tp870
Rp871
ag1
(g5
S'\x12\xa8p<'
p872
tp873
Rp874
ag1
(g5
S'4FS<'
p875
tp876
Rp877
ag1
(g5
S'<KZ<'
p878
tp879
Rp880
ag1
(g5
S'OEK<'
p881
tp882
Rp883
ag1
(g5
S'\xa3Qy<'
p884
tp885
Rp886
ag1
(g5
S'\xc4KM<'
p887
tp888
Rp889
ag1
(g5
S'\xf0jD<'
p890
tp891
Rp892
ag1
(g5
S'\xcf\x16\\<'
p893
tp894
Rp895
ag1
(g5
S'\xa7iS<'
p896
tp897
Rp898
ag1
(g5
S'\xbc\xf4l<'
p899
tp900
Rp901
ag1
(g5
S'c9O<'
p902
tp903
Rp904
ag1
(g5
S'\x90\x0f[<'
p905
tp906
Rp907
ag1
(g5
S'\xb3\xa6\\<'
p908
tp909
Rp910
ag1
(g5
S'\x862T<'
p911
tp912
Rp913
ag1
(g5
S'\x99\x08a<'
p914
tp915
Rp916
ag1
(g5
S'\x98\xdbZ<'
p917
tp918
Rp919
ag1
(g5
S'\xc1\xacM<'
p920
tp921
Rp922
ag1
(g5
S'\x1b)8<'
p923
tp924
Rp925
ag1
(g5
S'AAR<'
p926
tp927
Rp928
ag1
(g5
S'Uxf<'
p929
tp930
Rp931
ag1
(g5
S'\x98\tY<'
p932
tp933
Rp934
ag1
(g5
S'\xd8\x17i<'
p935
tp936
Rp937
ag1
(g5
S'S\xdbA<'
p938
tp939
Rp940
ag1
(g5
S'\xb3hA<'
p941
tp942
Rp943
ag1
(g5
S'\xd9\xfeh<'
p944
tp945
Rp946
ag1
(g5
S'\xb6\xadY<'
p947
tp948
Rp949
ag1
(g5
S'y!m<'
p950
tp951
Rp952
ag1
(g5
S'\x13\x0eN<'
p953
tp954
Rp955
ag1
(g5
S'K\xab@<'
p956
tp957
Rp958
ag1
(g5
S'Z ?<'
p959
tp960
Rp961
ag1
(g5
S'\\\x1ab<'
p962
tp963
Rp964
ag1
(g5
S'\xe3?V<'
p965
tp966
Rp967
ag1
(g5
S'1\x9bb<'
p968
tp969
Rp970
ag1
(g5
S':\xcd]<'
p971
tp972
Rp973
ag1
(g5
S'~\xacl<'
p974
tp975
Rp976
ag1
(g5
S'\xbfXI<'
p977
tp978
Rp979
ag1
(g5
S'Nqo<'
p980
tp981
Rp982
ag1
(g5
S'\xd8XR<'
p983
tp984
Rp985
ag1
(g5
S'\xba\xb0V<'
p986
tp987
Rp988
ag1
(g5
S'j19<'
p989
tp990
Rp991
ag1
(g5
S'n\xe3b<'
p992
tp993
Rp994
ag1
(g5
S'\x7f\xc1X<'
p995
tp996
Rp997
ag1
(g5
S'#\xa2v<'
p998
tp999
Rp1000
ag1
(g5
S'\x9e\xbcg<'
p1001
tp1002
Rp1003
ag1
(g5
S'T\xeae<'
p1004
tp1005
Rp1006
ag1
(g5
S'\x05oN<'
p1007
tp1008
Rp1009
ag1
(g5
S'\x96\xa5C<'
p1010
tp1011
Rp1012
ag1
(g5
S'D\xdeU<'
p1013
tp1014
Rp1015
ag1
(g5
S'\xf1\x1eJ<'
p1016
tp1017
Rp1018
ag1
(g5
S';\x1d\x83<'
p1019
tp1020
Rp1021
ag1
(g5
S'\x94NM<'
p1022
tp1023
Rp1024
ag1
(g5
S'/\xa7P<'
p1025
tp1026
Rp1027
ag1
(g5
S'\xfb\x1aY<'
p1028
tp1029
Rp1030
ag1
(g5
S'\xe9\x99r<'
p1031
tp1032
Rp1033
ag1
(g5
S'\x0f\x04e<'
p1034
tp1035
Rp1036
ag1
(g5
S'+*`<'
p1037
tp1038
Rp1039
ag1
(g5
S'\x0c?N<'
p1040
tp1041
Rp1042
ag1
(g5
S'P\x0co<'
p1043
tp1044
Rp1045
ag1
(g5
S'\x10\xe3^<'
p1046
tp1047
Rp1048
ag1
(g5
S'\x90\xc3Y<'
p1049
tp1050
Rp1051
ag1
(g5
S'irQ<'
p1052
tp1053
Rp1054
ag1
(g5
S'\x12\xb1l<'
p1055
tp1056
Rp1057
ag1
(g5
S'\xf4ay<'
p1058
tp1059
Rp1060
ag1
(g5
S'_\xe6G<'
p1061
tp1062
Rp1063
ag1
(g5
S' s`<'
p1064
tp1065
Rp1066
ag1
(g5
S'.Jb<'
p1067
tp1068
Rp1069
ag1
(g5
S'W\x96T<'
p1070
tp1071
Rp1072
ag1
(g5
S'\xb7\x96K<'
p1073
tp1074
Rp1075
ag1
(g5
S'p\xa4n<'
p1076
tp1077
Rp1078
ag1
(g5
S'\x89pS<'
p1079
tp1080
Rp1081
ag1
(g5
S'\xf9lI<'
p1082
tp1083
Rp1084
ag1
(g5
S'\xf7s8<'
p1085
tp1086
Rp1087
ag1
(g5
S'K\xbfD<'
p1088
tp1089
Rp1090
ag1
(g5
S'34c<'
p1091
tp1092
Rp1093
ag1
(g5
S'4HW<'
p1094
tp1095
Rp1096
ag1
(g5
S'\x9a~V<'
p1097
tp1098
Rp1099
ag1
(g5
S'j\xd6o<'
p1100
tp1101
Rp1102
ag1
(g5
S'b\xb2A<'
p1103
tp1104
Rp1105
ag1
(g5
S'\xbf\x93U<'
p1106
tp1107
Rp1108
ag1
(g5
S'8\xfeo<'
p1109
tp1110
Rp1111
ag1
(g5
S'\xfb*o<'
p1112
tp1113
Rp1114
ag1
(g5
S'\xf6=d<'
p1115
tp1116
Rp1117
ag1
(g5
S'-\xb9S<'
p1118
tp1119
Rp1120
ag1
(g5
S'\xdb\xff:<'
p1121
tp1122
Rp1123
ag1
(g5
S'A\x8eV<'
p1124
tp1125
Rp1126
ag1
(g5
S'r7M<'
p1127
tp1128
Rp1129
ag1
(g5
S'?lR<'
p1130
tp1131
Rp1132
ag1
(g5
S'h\xf0l<'
p1133
tp1134
Rp1135
ag1
(g5
S'\x97gP<'
p1136
tp1137
Rp1138
ag1
(g5
S'\x19\xc5L<'
p1139
tp1140
Rp1141
ag1
(g5
S'\x9b\xbf`<'
p1142
tp1143
Rp1144
ag1
(g5
S'\xa0\xb6a<'
p1145
tp1146
Rp1147
ag1
(g5
S'PUE<'
p1148
tp1149
Rp1150
ag1
(g5
S'\x86\xb1I<'
p1151
tp1152
Rp1153
ag1
(g5
S'\x9d\xa1F<'
p1154
tp1155
Rp1156
ag1
(g5
S'\xc8Ib<'
p1157
tp1158
Rp1159
ag1
(g5
S'\xdf\xfaE<'
p1160
tp1161
Rp1162
ag1
(g5
S'\xd9jc<'
p1163
tp1164
Rp1165
ag1
(g5
S'\xe0`N<'
p1166
tp1167
Rp1168
ag1
(g5
S'\xc8\x80X<'
p1169
tp1170
Rp1171
ag1
(g5
S'\xd2QP<'
p1172
tp1173
Rp1174
ag1
(g5
S'z\x9fU<'
p1175
tp1176
Rp1177
ag1
(g5
S'\xe2\x97P<'
p1178
tp1179
Rp1180
ag1
(g5
S'\x95\x81l<'
p1181
tp1182
Rp1183
ag1
(g5
S'\xd5\xc5[<'
p1184
tp1185
Rp1186
ag1
(g5
S'\x94#W<'
p1187
tp1188
Rp1189
ag1
(g5
S'\xc2\xa0g<'
p1190
tp1191
Rp1192
ag1
(g5
S'R\xe3D<'
p1193
tp1194
Rp1195
ag1
(g5
S'\x8a\xb4M<'
p1196
tp1197
Rp1198
ag1
(g5
S'\x9elQ<'
p1199
tp1200
Rp1201
ag1
(g5
S'\x02\xa0a<'
p1202
tp1203
Rp1204
ag1
(g5
S'&\x90F<'
p1205
tp1206
Rp1207
ag1
(g5
S'\x05\xb4T<'
p1208
tp1209
Rp1210
ag1
(g5
S'\xa6\x10I<'
p1211
tp1212
Rp1213
ag1
(g5
S'-\x84O<'
p1214
tp1215
Rp1216
ag1
(g5
S'$+Q<'
p1217
tp1218
Rp1219
ag1
(g5
S'\xe9.Q<'
p1220
tp1221
Rp1222
ag1
(g5
S'\xf3\xf6[<'
p1223
tp1224
Rp1225
ag1
(g5
S'\xdf\x15x<'
p1226
tp1227
Rp1228
ag1
(g5
S'8\xdaS<'
p1229
tp1230
Rp1231
ag1
(g5
S'\xebjP<'
p1232
tp1233
Rp1234
ag1
(g5
S'\xab\xf6U<'
p1235
tp1236
Rp1237
ag1
(g5
S'\x18\xfcH<'
p1238
tp1239
Rp1240
ag1
(g5
S'\xe1%]<'
p1241
tp1242
Rp1243
ag1
(g5
S'\x02\xc6M<'
p1244
tp1245
Rp1246
ag1
(g5
S'X\xb1i<'
p1247
tp1248
Rp1249
ag1
(g5
S'\xf8\x83L<'
p1250
tp1251
Rp1252
ag1
(g5
S'l\x0bU<'
p1253
tp1254
Rp1255
ag1
(g5
S'ApA<'
p1256
tp1257
Rp1258
ag1
(g5
S'b\xdak<'
p1259
tp1260
Rp1261
ag1
(g5
S'\xa2\xbfC<'
p1262
tp1263
Rp1264
ag1
(g5
S'\x83m=<'
p1265
tp1266
Rp1267
ag1
(g5
S'\xf5\x95Q<'
p1268
tp1269
Rp1270
ag1
(g5
S'\xca\xedI<'
p1271
tp1272
Rp1273
ag1
(g5
S'\xecPd<'
p1274
tp1275
Rp1276
ag1
(g5
S'j\xdcJ<'
p1277
tp1278
Rp1279
ag1
(g5
S'\xcc\x04U<'
p1280
tp1281
Rp1282
ag1
(g5
S'E9U<'
p1283
tp1284
Rp1285
ag1
(g5
S';\x0eK<'
p1286
tp1287
Rp1288
ag1
(g5
S'\xdf4Z<'
p1289
tp1290
Rp1291
ag1
(g5
S'\xe3HU<'
p1292
tp1293
Rp1294
ag1
(g5
S'\x10\x02E<'
p1295
tp1296
Rp1297
ag1
(g5
S'wN1<'
p1298
tp1299
Rp1300
ag1
(g5
S'\xa0yJ<'
p1301
tp1302
Rp1303
ag1
(g5
S'\xfc\xd7[<'
p1304
tp1305
Rp1306
ag1
(g5
S'\x85\xb5R<'
p1307
tp1308
Rp1309
ag1
(g5
S'\x1eK]<'
p1310
tp1311
Rp1312
ag1
(g5
S'\xa0Q:<'
p1313
tp1314
Rp1315
ag1
(g5
S'\xb8\x94;<'
p1316
tp1317
Rp1318
ag1
(g5
S'\x10\xe3`<'
p1319
tp1320
Rp1321
ag1
(g5
S'\x8e\xc2Q<'
p1322
tp1323
Rp1324
ag1
(g5
S'~6e<'
p1325
tp1326
Rp1327
ag1
(g5
S'(\xa0F<'
p1328
tp1329
Rp1330
ag1
(g5
S'\x08\x80<<'
p1331
tp1332
Rp1333
ag1
(g5
S'\xdfL;<'
p1334
tp1335
Rp1336
ag1
(g5
S'\x8e\xcd\\<'
p1337
tp1338
Rp1339
ag1
(g5
S'\xd4\xe3O<'
p1340
tp1341
Rp1342
ag1
(g5
S'\xab\xabZ<'
p1343
tp1344
Rp1345
ag1
(g5
S'\xf5\x18Z<'
p1346
tp1347
Rp1348
ag1
(g5
S'\x90\xd9_<'
p1349
tp1350
Rp1351
ag1
(g5
S'I<@<'
p1352
tp1353
Rp1354
ag1
(g5
S'=\xe5g<'
p1355
tp1356
Rp1357
ag1
(g5
S'g\xcbH<'
p1358
tp1359
Rp1360
ag1
(g5
S'\x1e\xe9O<'
p1361
tp1362
Rp1363
ag1
(g5
S'\x9a?1<'
p1364
tp1365
Rp1366
ag1
(g5
S'\xdb\x08[<'
p1367
tp1368
Rp1369
ag1
(g5
S'\x93\xc9R<'
p1370
tp1371
Rp1372
ag1
(g5
S'\xeb\x90p<'
p1373
tp1374
Rp1375
ag1
(g5
S'\x8c\xc9a<'
p1376
tp1377
Rp1378
ag1
(g5
S'\xf1\x9ca<'
p1379
tp1380
Rp1381
ag1
(g5
S'\xd0oJ<'
p1382
tp1383
Rp1384
ag1
(g5
S'\xe5\xa9;<'
p1385
tp1386
Rp1387
ag1
(g5
S'\x89\xccM<'
p1388
tp1389
Rp1390
ag1
(g5
S'\xc4\x03C<'
p1391
tp1392
Rp1393
ag1
(g5
S'\x8aX}<'
p1394
tp1395
Rp1396
ag1
(g5
S'\xf4\xa6F<'
p1397
tp1398
Rp1399
ag1
(g5
S'n\xeeI<'
p1400
tp1401
Rp1402
ag1
(g5
S'M\xeeR<'
p1403
tp1404
Rp1405
ag1
(g5
S's\xcch<'
p1406
tp1407
Rp1408
ag1
(g5
S'\x87\xccZ<'
p1409
tp1410
Rp1411
ag1
(g5
S'\xedmY<'
p1412
tp1413
Rp1414
ag1
(g5
S'Y\xd2F<'
p1415
tp1416
Rp1417
ag1
(g5
S'W\x18j<'
p1418
tp1419
Rp1420
ag1
(g5
S'\xbclY<'
p1421
tp1422
Rp1423
ag1
(g5
S'?\xf0R<'
p1424
tp1425
Rp1426
ag1
(g5
S'\x85\xccJ<'
p1427
tp1428
Rp1429
ag1
(g5
S'\x8d\xeeh<'
p1430
tp1431
Rp1432
ag1
(g5
S'\xccqt<'
p1433
tp1434
Rp1435
ag1
(g5
S'r\x87@<'
p1436
tp1437
Rp1438
ag1
(g5
S'\xefvZ<'
p1439
tp1440
Rp1441
ag1
(g5
S'\xf3\xbc[<'
p1442
tp1443
Rp1444
ag1
(g5
S's\xa8M<'
p1445
tp1446
Rp1447
ag1
(g5
S'\xcf\x9cD<'
p1448
tp1449
Rp1450
ag1
(g5
S'S\xc1f<'
p1451
tp1452
Rp1453
ag1
(g5
S'}\xf4M<'
p1454
tp1455
Rp1456
ag1
(g5
S'eYD<'
p1457
tp1458
Rp1459
ag1
(g5
S'\x98A4<'
p1460
tp1461
Rp1462
ag1
(g5
S'\xfe\x83B<'
p1463
tp1464
Rp1465
ag1
(g5
S'\xd8h]<'
p1466
tp1467
Rp1468
ag1
(g5
S'\xd9\xa9U<'
p1469
tp1470
Rp1471
ag1
(g5
S'thO<'
p1472
tp1473
Rp1474
ag1
(g5
S'\x16\x10h<'
p1475
tp1476
Rp1477
ag1
(g5
S'\x9e\x14;<'
p1478
tp1479
Rp1480
ag1
(g5
S'\x03\x97R<'
p1481
tp1482
Rp1483
ag1
(g5
S'\xe0\x1ag<'
p1484
tp1485
Rp1486
ag1
(g5
S'!\xcaf<'
p1487
tp1488
Rp1489
ag1
(g5
S'\xb7v^<'
p1490
tp1491
Rp1492
ag1
(g5
S'<\x11M<'
p1493
tp1494
Rp1495
ag1
(g5
S'\x16\xfd4<'
p1496
tp1497
Rp1498
ag1
(g5
S'\xdckL<'
p1499
tp1500
Rp1501
ag1
(g5
S'\xe4\xc3E<'
p1502
tp1503
Rp1504
ag1
(g5
S');S<'
p1505
tp1506
Rp1507
ag1
(g5
S'B\x9ce<'
p1508
tp1509
Rp1510
ag1
(g5
S'\x07\xccG<'
p1511
tp1512
Rp1513
ag1
(g5
S'\x1b\xccE<'
p1514
tp1515
Rp1516
ag1
(g5
S'T\xa9[<'
p1517
tp1518
Rp1519
ag1
(g5
S'\xda\xa3Z<'
p1520
tp1521
Rp1522
ag1
(g5
S'D\xd2<<'
p1523
tp1524
Rp1525
ag1
(g5
S'\x8exA<'
p1526
tp1527
Rp1528
ag1
(g5
S'\xa3qC<'
p1529
tp1530
Rp1531
ag1
(g5
S'\xe7\xc4Z<'
p1532
tp1533
Rp1534
ag1
(g5
S"\x01'?<"
p1535
tp1536
Rp1537
ag1
(g5
S'GJ\\<'
p1538
tp1539
Rp1540
ag1
(g5
S'\\\x05J<'
p1541
tp1542
Rp1543
ag1
(g5
S'e\xe4R<'
p1544
tp1545
Rp1546
ag1
(g5
S'\x93\xa4I<'
p1547
tp1548
Rp1549
ag1
(g5
S'\xc1\xedO<'
p1550
tp1551
Rp1552
ag1
(g5
S'3\x9fM<'
p1553
tp1554
Rp1555
ag1
(g5
S'\xf2\xfcf<'
p1556
tp1557
Rp1558
ag1
(g5
S'\xcd}V<'
p1559
tp1560
Rp1561
ag1
(g5
S'\xc0\x89Q<'
p1562
tp1563
Rp1564
ag1
(g5
S'\x8btb<'
p1565
tp1566
Rp1567
ag1
(g5
S'\xff\xa9@<'
p1568
tp1569
Rp1570
ag1
(g5
S'X\xdfE<'
p1571
tp1572
Rp1573
ag1
(g5
S'9(G<'
p1574
tp1575
Rp1576
ag1
(g5
S'\xd5GY<'
p1577
tp1578
Rp1579
ag1
(g5
S'>\xa8@<'
p1580
tp1581
Rp1582
ag1
(g5
S'Z\xecL<'
p1583
tp1584
Rp1585
ag1
(g5
S'\xe9\xe5B<'
p1586
tp1587
Rp1588
ag1
(g5
S'y\xe8J<'
p1589
tp1590
Rp1591
ag1
(g5
S'\x81\x9aK<'
p1592
tp1593
Rp1594
ag1
(g5
S'8{F<'
p1595
tp1596
Rp1597
ag1
(g5
S'\xeb\xebS<'
p1598
tp1599
Rp1600
ag1
(g5
S'\xe2\xaes<'
p1601
tp1602
Rp1603
ag1
(g5
S':\xdcM<'
p1604
tp1605
Rp1606
ag1
(g5
S'\xe1lI<'
p1607
tp1608
Rp1609
ag1
(g5
S'\x93\x8aP<'
p1610
tp1611
Rp1612
ag1
(g5
S'v`C<'
p1613
tp1614
Rp1615
ag1
(g5
S'X\xffP<'
p1616
tp1617
Rp1618
ag1
(g5
S'\xf9\xceG<'
p1619
tp1620
Rp1621
ag1
(g5
S'\x97\xa0d<'
p1622
tp1623
Rp1624
ag1
(g5
S'\xdd\x17G<'
p1625
tp1626
Rp1627
ag1
(g5
S'1>O<'
p1628
tp1629
Rp1630
ag1
(g5
S'gY@<'
p1631
tp1632
Rp1633
ag1
(g5
S'\xcb\xceg<'
p1634
tp1635
Rp1636
ag1
(g5
S'\xffb=<'
p1637
tp1638
Rp1639
ag1
(g5
S'\xd6g5<'
p1640
tp1641
Rp1642
ag1
(g5
S'2\xbaT<'
p1643
tp1644
Rp1645
ag1
(g5
S'\xac\xe6D<'
p1646
tp1647
Rp1648
ag1
(g5
S'\x1e\n`<'
p1649
tp1650
Rp1651
ag1
(g5
S'@\x8bC<'
p1652
tp1653
Rp1654
ag1
(g5
S'\xd6gM<'
p1655
tp1656
Rp1657
ag1
(g5
S'\x86\x07N<'
p1658
tp1659
Rp1660
ag1
(g5
S')\xa9D<'
p1661
tp1662
Rp1663
ag1
(g5
S'.\xd5R<'
p1664
tp1665
Rp1666
ag1
(g5
S'[\x81P<'
p1667
tp1668
Rp1669
ag1
(g5
S'\xe1\x8f@<'
p1670
tp1671
Rp1672
ag1
(g5
S'\xc5\xc1+<'
p1673
tp1674
Rp1675
ag1
(g5
S'\xf6tH<'
p1676
tp1677
Rp1678
ag1
(g5
S'5\xd4Q<'
p1679
tp1680
Rp1681
ag1
(g5
S'\x9bXK<'
p1682
tp1683
Rp1684
ag1
(g5
S'\x98\x82U<'
p1685
tp1686
Rp1687
ag1
(g5
S'\x9fU2<'
p1688
tp1689
Rp1690
ag1
(g5
S'\xa4\xf35<'
p1691
tp1692
Rp1693
ag1
(g5
S'\xdd\xd5]<'
p1694
tp1695
Rp1696
ag1
(g5
S'.3L<'
p1697
tp1698
Rp1699
ag1
(g5
S'\xe0\x15_<'
p1700
tp1701
Rp1702
ag1
(g5
S'\xd5\x86@<'
p1703
tp1704
Rp1705
ag1
(g5
S'\xbd\xf97<'
p1706
tp1707
Rp1708
ag1
(g5
S'\x00G4<'
p1709
tp1710
Rp1711
ag1
(g5
S'\xae\xf6V<'
p1712
tp1713
Rp1714
ag1
(g5
S'*"J<'
p1715
tp1716
Rp1717
ag1
(g5
S'\x02\xc9P<'
p1718
tp1719
Rp1720
ag1
(g5
S'E\x93U<'
p1721
tp1722
Rp1723
ag1
(g5
S'\xe4\x08Z<'
p1724
tp1725
Rp1726
ag1
(g5
S'\x1f/:<'
p1727
tp1728
Rp1729
ag1
(g5
S'\xf1\x1b`<'
p1730
tp1731
Rp1732
ag1
(g5
S'\xbe\tE<'
p1733
tp1734
Rp1735
ag1
(g5
S' \x07I<'
p1736
tp1737
Rp1738
ag1
(g5
S'Af-<'
p1739
tp1740
Rp1741
ag1
(g5
S'\x0f\xf3U<'
p1742
tp1743
Rp1744
ag1
(g5
S'!\x10P<'
p1745
tp1746
Rp1747
ag1
(g5
S'|\xe2i<'
p1748
tp1749
Rp1750
ag1
(g5
S'\xc6\x88Z<'
p1751
tp1752
Rp1753
ag1
(g5
S'L\x08]<'
p1754
tp1755
Rp1756
ag1
(g5
S'\x87\x11E<'
p1757
tp1758
Rp1759
ag1
(g5
S'o\x9d8<'
p1760
tp1761
Rp1762
ag1
(g5
S'\x92[I<'
p1763
tp1764
Rp1765
ag1
(g5
S'\xfcD?<'
p1766
tp1767
Rp1768
ag1
(g5
S'\x97 y<'
p1769
tp1770
Rp1771
ag1
(g5
S'\x8dWA<'
p1772
tp1773
Rp1774
ag1
(g5
S'\xfe\xafD<'
p1775
tp1776
Rp1777
ag1
(g5
S'T\xe7M<'
p1778
tp1779
Rp1780
ag1
(g5
S'E3c<'
p1781
tp1782
Rp1783
ag1
(g5
S'[\xa2T<'
p1784
tp1785
Rp1786
ag1
(g5
S'\xf4\x1bT<'
p1787
tp1788
Rp1789
ag1
(g5
S'DoB<'
p1790
tp1791
Rp1792
ag1
(g5
S'\x88\x10g<'
p1793
tp1794
Rp1795
ag1
(g5
S'\x84eV<'
p1796
tp1797
Rp1798
ag1
(g5
S'\xb5RN<'
p1799
tp1800
Rp1801
ag1
(g5
S'\xa4\x87C<'
p1802
tp1803
Rp1804
ag1
(g5
S'\x03\xc3b<'
p1805
tp1806
Rp1807
ag1
(g5
S'ZHm<'
p1808
tp1809
Rp1810
ag1
(g5
S'\x0b\x1f<<'
p1811
tp1812
Rp1813
ag1
(g5
S'N\xbdS<'
p1814
tp1815
Rp1816
ag1
(g5
S'\x08VT<'
p1817
tp1818
Rp1819
ag1
(g5
S't\xd7J<'
p1820
tp1821
Rp1822
ag1
(g5
S'\x9b\xdd@<'
p1823
tp1824
Rp1825
ag1
(g5
S'=\xfa_<'
p1826
tp1827
Rp1828
ag1
(g5
S'\xae\x8aJ<'
p1829
tp1830
Rp1831
ag1
(g5
S'9\xba=<'
p1832
tp1833
Rp1834
ag1
(g5
S'\x8b\xfa/<'
p1835
tp1836
Rp1837
ag1
(g5
S';\x818<'
p1838
tp1839
Rp1840
ag1
(g5
S'\xc0\xebY<'
p1841
tp1842
Rp1843
ag1
(g5
S'\xae\x8dM<'
p1844
tp1845
Rp1846
ag1
(g5
S'\x95\xdfG<'
p1847
tp1848
Rp1849
ag1
(g5
S'\xbf\xbee<'
p1850
tp1851
Rp1852
ag1
(g5
S'L|7<'
p1853
tp1854
Rp1855
ag1
(g5
S'\xb0\xb0L<'
p1856
tp1857
Rp1858
ag1
(g5
S'\xd2V_<'
p1859
tp1860
Rp1861
ag1
(g5
S'm\x16a<'
p1862
tp1863
Rp1864
ag1
(g5
S'|nZ<'
p1865
tp1866
Rp1867
ag1
(g5
S'\x17\x17I<'
p1868
tp1869
Rp1870
ag1
(g5
S'\xd2\xe0,<'
p1871
tp1872
Rp1873
ag1
(g5
S'\xfd\x9cH<'
p1874
tp1875
Rp1876
ag1
(g5
S'\x0c\x9f><'
p1877
tp1878
Rp1879
ag1
(g5
S'7\x8aH<'
p1880
tp1881
Rp1882
ag1
(g5
S'}Y]<'
p1883
tp1884
Rp1885
ag1
(g5
S'9\xb2C<'
p1886
tp1887
Rp1888
ag1
(g5
S'^\xdfA<'
p1889
tp1890
Rp1891
ag1
(g5
S'\x9b\xdaT<'
p1892
tp1893
Rp1894
ag1
(g5
S'\n\x8bW<'
p1895
tp1896
Rp1897
ag1
(g5
S'Q\xbb:<'
p1898
tp1899
Rp1900
ag1
(g5
S'\x8b\xd7<<'
p1901
tp1902
Rp1903
ag1
(g5
S'\xed\xbd=<'
p1904
tp1905
Rp1906
ag1
(g5
S'opU<'
p1907
tp1908
Rp1909
ag1
(g5
S'\x14@;<'
p1910
tp1911
Rp1912
ag1
(g5
S' \x86X<'
p1913
tp1914
Rp1915
ag1
(g5
S'\xb5-D<'
p1916
tp1917
Rp1918
ag1
(g5
S'\x8c\xd0O<'
p1919
tp1920
Rp1921
ag1
(g5
S'BKB<'
p1922
tp1923
Rp1924
ag1
(g5
S'J\x14I<'
p1925
tp1926
Rp1927
ag1
(g5
S'F\xb1F<'
p1928
tp1929
Rp1930
ag1
(g5
S'\xb9\xc4_<'
p1931
tp1932
Rp1933
ag1
(g5
S'\x02\x9fP<'
p1934
tp1935
Rp1936
ag1
(g5
S'\xc9\xf7L<'
p1937
tp1938
Rp1939
ag1
(g5
S'x\xedX<'
p1940
tp1941
Rp1942
ag1
(g5
S'\xbaL<<'
p1943
tp1944
Rp1945
ag1
(g5
S'\xb8\x9bB<'
p1946
tp1947
Rp1948
ag1
(g5
S'2\xa3A<'
p1949
tp1950
Rp1951
ag1
(g5
S'\xbfsS<'
p1952
tp1953
Rp1954
ag1
(g5
S'\xd7\x06:<'
p1955
tp1956
Rp1957
ag1
(g5
S'\xa1uK<'
p1958
tp1959
Rp1960
ag1
(g5
S'\x19\x93@<'
p1961
tp1962
Rp1963
ag1
(g5
S'\xa4CD<'
p1964
tp1965
Rp1966
ag1
(g5
S'\x1cRD<'
p1967
tp1968
Rp1969
ag1
(g5
S'\x10\xc9@<'
p1970
tp1971
Rp1972
ag1
(g5
S'\xd9pN<'
p1973
tp1974
Rp1975
ag1
(g5
S'J\x15n<'
p1976
tp1977
Rp1978
ag1
(g5
S'\x8eKG<'
p1979
tp1980
Rp1981
ag1
(g5
S'\xdf\x82C<'
p1982
tp1983
Rp1984
ag1
(g5
S'gdJ<'
p1985
tp1986
Rp1987
ag1
(g5
S'Z\x7f?<'
p1988
tp1989
Rp1990
ag1
(g5
S'\xda#N<'
p1991
tp1992
Rp1993
ag1
(g5
S'\x15\xb1A<'
p1994
tp1995
Rp1996
ag1
(g5
S'\xf4q]<'
p1997
tp1998
Rp1999
ag1
(g5
S'B<B<'
p2000
tp2001
Rp2002
ag1
(g5
S'e\xc2K<'
p2003
tp2004
Rp2005
ag1
(g5
S'\xb4\x189<'
p2006
tp2007
Rp2008
ag1
(g5
S'\x9e\r`<'
p2009
tp2010
Rp2011
ag1
(g5
S'\xe4\x928<'
p2012
tp2013
Rp2014
ag1
(g5
S'\xa8\xbc0<'
p2015
tp2016
Rp2017
ag1
(g5
S'N\x0eJ<'
p2018
tp2019
Rp2020
ag1
(g5
S'\xe5\xa3><'
p2021
tp2022
Rp2023
ag1
(g5
S'\x16\xb6Z<'
p2024
tp2025
Rp2026
ag1
(g5
S'&\xca?<'
p2027
tp2028
Rp2029
ag1
(g5
S'\x91+G<'
p2030
tp2031
Rp2032
ag1
(g5
S'mFM<'
p2033
tp2034
Rp2035
ag1
(g5
S'1\x11@<'
p2036
tp2037
Rp2038
ag1
(g5
S'Q\xf8L<'
p2039
tp2040
Rp2041
ag1
(g5
S')\x8eI<'
p2042
tp2043
Rp2044
ag1
(g5
S'>\x7f8<'
p2045
tp2046
Rp2047
ag1
(g5
S"r\x9d'<"
p2048
tp2049
Rp2050
ag1
(g5
S'\xb2\xe3B<'
p2051
tp2052
Rp2053
ag1
(g5
S'fZK<'
p2054
tp2055
Rp2056
ag1
(g5
S'\xcb\xb5F<'
p2057
tp2058
Rp2059
ag1
(g5
S"\xfa'Q<"
p2060
tp2061
Rp2062
ag1
(g5
S'I.-<'
p2063
tp2064
Rp2065
ag1
(g5
S'!\x950<'
p2066
tp2067
Rp2068
ag1
(g5
S'/eV<'
p2069
tp2070
Rp2071
ag1
(g5
S'\x80\x0bH<'
p2072
tp2073
Rp2074
ag1
(g5
S'\xf8\xe5\\<'
p2075
tp2076
Rp2077
ag1
(g5
S'RS;<'
p2078
tp2079
Rp2080
ag1
(g5
S'\xdeh2<'
p2081
tp2082
Rp2083
ag1
(g5
S'!\xbb/<'
p2084
tp2085
Rp2086
ag1
(g5
S'\x04\x9eS<'
p2087
tp2088
Rp2089
ag1
(g5
S'\xff\xdfE<'
p2090
tp2091
Rp2092
ag1
(g5
S'~uJ<'
p2093
tp2094
Rp2095
ag1
(g5
S'-\xbcP<'
p2096
tp2097
Rp2098
ag1
(g5
S'\x93\x97T<'
p2099
tp2100
Rp2101
ag1
(g5
S'?\r5<'
p2102
tp2103
Rp2104
ag1
(g5
S'\x0f\xcaZ<'
p2105
tp2106
Rp2107
ag1
(g5
S'\x86\\><'
p2108
tp2109
Rp2110
ag1
(g5
S'\x03lF<'
p2111
tp2112
Rp2113
ag1
(g5
S"A~'<"
p2114
tp2115
Rp2116
ag1
(g5
S'\xb1\xdcQ<'
p2117
tp2118
Rp2119
ag1
(g5
S'\xe0\xecL<'
p2120
tp2121
Rp2122
ag1
(g5
S'%\xddb<'
p2123
tp2124
Rp2125
ag1
(g5
S'7GW<'
p2126
tp2127
Rp2128
ag1
(g5
S'\x10\x9eW<'
p2129
tp2130
Rp2131
ag1
(g5
S'\xb9>@<'
p2132
tp2133
Rp2134
ag1
(g5
S'\xe9\xb33<'
p2135
tp2136
Rp2137
ag1
(g5
S'G~E<'
p2138
tp2139
Rp2140
ag1
(g5
S'\x16\xad:<'
p2141
tp2142
Rp2143
ag1
(g5
S'RYs<'
p2144
tp2145
Rp2146
ag1
(g5
S'\x87\xf9=<'
p2147
tp2148
Rp2149
ag1
(g5
S'\xcc\xe7B<'
p2150
tp2151
Rp2152
ag1
(g5
S'<\xe2K<'
p2153
tp2154
Rp2155
ag1
(g5
S',\xee[<'
p2156
tp2157
Rp2158
ag1
(g5
S'\xb8\x97O<'
p2159
tp2160
Rp2161
ag1
(g5
S'\x8d\x00P<'
p2162
tp2163
Rp2164
ag1
(g5
S'\xc7\x03?<'
p2165
tp2166
Rp2167
ag1
(g5
S'\x94n^<'
p2168
tp2169
Rp2170
ag1
(g5
S'\xf9\xa3O<'
p2171
tp2172
Rp2173
ag1
(g5
S'\xbc\xaeG<'
p2174
tp2175
Rp2176
ag1
(g5
S'\r`@<'
p2177
tp2178
Rp2179
ag1
(g5
S'\xc1\xad]<'
p2180
tp2181
Rp2182
ag1
(g5
S'\xc3\xaef<'
p2183
tp2184
Rp2185
ag1
(g5
S'>z6<'
p2186
tp2187
Rp2188
ag1
(g5
S'W\xceS<'
p2189
tp2190
Rp2191
ag1
(g5
S'\xf5\x16O<'
p2192
tp2193
Rp2194
ag1
(g5
S'\xff\x93F<'
p2195
tp2196
Rp2197
ag1
(g5
S'"\xda;<'
p2198
tp2199
Rp2200
ag1
(g5
S'\t:[<'
p2201
tp2202
Rp2203
ag1
(g5
S'\x90\xddD<'
p2204
tp2205
Rp2206
ag1
(g5
S'\x99\xef8<'
p2207
tp2208
Rp2209
ag1
(g5
S'\xce?+<'
p2210
tp2211
Rp2212
ag1
(g5
S'\x86g2<'
p2213
tp2214
Rp2215
ag1
(g5
S'C<T<'
p2216
tp2217
Rp2218
ag1
(g5
S'\xe4VJ<'
p2219
tp2220
Rp2221
ag1
(g5
S'\x10\xf5C<'
p2222
tp2223
Rp2224
ag1
(g5
S'\n\xd9^<'
p2225
tp2226
Rp2227
ag1
(g5
S'\x91\xc31<'
p2228
tp2229
Rp2230
ag1
(g5
S'\x95pG<'
p2231
tp2232
Rp2233
ag1
(g5
S'\x0e\xd3\\<'
p2234
tp2235
Rp2236
ag1
(g5
S'\xd7\xa3_<'
p2237
tp2238
Rp2239
ag1
(g5
S'S\x88U<'
p2240
tp2241
Rp2242
ag1
(g5
S'\xfdnB<'
p2243
tp2244
Rp2245
ag1
(g5
S'S\xf6(<'
p2246
tp2247
Rp2248
ag1
(g5
S'\x15\x9bA<'
p2249
tp2250
Rp2251
ag1
(g5
S'\x9e\xf5;<'
p2252
tp2253
Rp2254
ag1
(g5
S's\xc1E<'
p2255
tp2256
Rp2257
ag1
(g5
S'\xbf\x88Y<'
p2258
tp2259
Rp2260
ag1
(g5
S'\xfc\x88B<'
p2261
tp2262
Rp2263
ag1
(g5
S'\x05\xbe<<'
p2264
tp2265
Rp2266
ag1
(g5
S'\x05RT<'
p2267
tp2268
Rp2269
ag1
(g5
S'\xf7\xbfP<'
p2270
tp2271
Rp2272
ag1
(g5
S'\xc2\xb40<'
p2273
tp2274
Rp2275
ag1
(g5
S'\x0e,<<'
p2276
tp2277
Rp2278
ag1
(g5
S'\x88S7<'
p2279
tp2280
Rp2281
ag1
(g5
S'\xeb=P<'
p2282
tp2283
Rp2284
ag1
(g5
S'<\x817<'
p2285
tp2286
Rp2287
ag1
(g5
S'"+T<'
p2288
tp2289
Rp2290
ag1
(g5
S'\xf3\x18A<'
p2291
tp2292
Rp2293
ag1
(g5
S'\xe9\xb7K<'
p2294
tp2295
Rp2296
ag1
(g5
S'\xb0\xdc?<'
p2297
tp2298
Rp2299
ag1
(g5
S'\xac\xcfA<'
p2300
tp2301
Rp2302
ag1
(g5
S'\x84\xb4@<'
p2303
tp2304
Rp2305
ag1
(g5
S'8\x08\\<'
p2306
tp2307
Rp2308
ag1
(g5
S'\x8a5L<'
p2309
tp2310
Rp2311
ag1
(g5
S'\nYF<'
p2312
tp2313
Rp2314
ag1
(g5
S's\x15T<'
p2315
tp2316
Rp2317
ag1
(g5
S'\xbc\xe85<'
p2318
tp2319
Rp2320
ag1
(g5
S'\xcb\x9d><'
p2321
tp2322
Rp2323
ag1
(g5
S'\xd2\x15?<'
p2324
tp2325
Rp2326
ag1
(g5
S'\xd4\xbbJ<'
p2327
tp2328
Rp2329
ag1
(g5
S'\x81\x077<'
p2330
tp2331
Rp2332
ag1
(g5
S'\xeb\xf9C<'
p2333
tp2334
Rp2335
ag1
(g5
S'\x1e\xc4:<'
p2336
tp2337
Rp2338
ag1
(g5
S'8\xa1@<'
p2339
tp2340
Rp2341
ag1
(g5
S'^\r=<'
p2342
tp2343
Rp2344
ag1
(g5
S'\xc8*?<'
p2345
tp2346
Rp2347
ag1
(g5
S'\x03\x92I<'
p2348
tp2349
Rp2350
ag1
(g5
S'J\xd4e<'
p2351
tp2352
Rp2353
ag1
(g5
S'1\x9d@<'
p2354
tp2355
Rp2356
ag1
(g5
S'-\xac@<'
p2357
tp2358
Rp2359
ag1
(g5
S'\x12\x16F<'
p2360
tp2361
Rp2362
ag1
(g5
S'\xd8\x91:<'
p2363
tp2364
Rp2365
ag1
(g5
S'\xbf\xf6I<'
p2366
tp2367
Rp2368
ag1
(g5
S'Ap><'
p2369
tp2370
Rp2371
ag1
(g5
S'e\xeeW<'
p2372
tp2373
Rp2374
ag1
(g5
S'\x1c9=<'
p2375
tp2376
Rp2377
ag1
(g5
S'\t\xbaC<'
p2378
tp2379
Rp2380
ag1
(g5
S'|\xf14<'
p2381
tp2382
Rp2383
ag1
(g5
S'M\xd7Z<'
p2384
tp2385
Rp2386
ag1
(g5
S'R\xb22<'
p2387
tp2388
Rp2389
ag1
(g5
S'\xd6\x0b+<'
p2390
tp2391
Rp2392
ag1
(g5
S'\x92\x80F<'
p2393
tp2394
Rp2395
ag1
(g5
S'\x9e\x8a:<'
p2396
tp2397
Rp2398
ag1
(g5
S'\x8e\xc4U<'
p2399
tp2400
Rp2401
ag1
(g5
S'\x887;<'
p2402
tp2403
Rp2404
ag1
(g5
S'\xa9\xfeB<'
p2405
tp2406
Rp2407
ag1
(g5
S'E\x15I<'
p2408
tp2409
Rp2410
ag1
(g5
S'\x8b\x1b8<'
p2411
tp2412
Rp2413
ag1
(g5
S'\xe68H<'
p2414
tp2415
Rp2416
ag1
(g5
S'\x00\x05F<'
p2417
tp2418
Rp2419
ag1
(g5
S'\x16C3<'
p2420
tp2421
Rp2422
ag1
(g5
S'\xf92%<'
p2423
tp2424
Rp2425
ag1
(g5
S'y\xa4><'
p2426
tp2427
Rp2428
ag1
(g5
S'\x9e^F<'
p2429
tp2430
Rp2431
ag1
(g5
S'`:@<'
p2432
tp2433
Rp2434
ag1
(g5
S"\xee'M<"
p2435
tp2436
Rp2437
ag1
(g5
S"!%'<"
p2438
tp2439
Rp2440
ag1
(g5
S'\xceu.<'
p2441
tp2442
Rp2443
ag1
(g5
S'\x86cR<'
p2444
tp2445
Rp2446
ag1
(g5
S'eOB<'
p2447
tp2448
Rp2449
ag1
(g5
S'J\xa2X<'
p2450
tp2451
Rp2452
ag1
(g5
S'\xf7\xac6<'
p2453
tp2454
Rp2455
ag1
(g5
S'0\xc7-<'
p2456
tp2457
Rp2458
ag1
(g5
S"0\xbf'<"
p2459
tp2460
Rp2461
ag1
(g5
S'5\xb1K<'
p2462
tp2463
Rp2464
ag1
(g5
S'\xa9\xa4><'
p2465
tp2466
Rp2467
ag1
(g5
S'\xc1\xc3D<'
p2468
tp2469
Rp2470
ag1
(g5
S'\xb8\xbaJ<'
p2471
tp2472
Rp2473
ag1
(g5
S'\xe3\x91O<'
p2474
tp2475
Rp2476
ag1
(g5
S'\x87\xe02<'
p2477
tp2478
Rp2479
ag1
(g5
S'(\x17U<'
p2480
tp2481
Rp2482
ag1
(g5
S'\xd9\x13:<'
p2483
tp2484
Rp2485
ag1
(g5
S'\xd7\x1dA<'
p2486
tp2487
Rp2488
ag1
(g5
S'WV$<'
p2489
tp2490
Rp2491
ag1
(g5
S'\xb2\x84M<'
p2492
tp2493
Rp2494
ag1
(g5
S'\xd9 G<'
p2495
tp2496
Rp2497
ag1
(g5
S'\xd3j^<'
p2498
tp2499
Rp2500
ag1
(g5
S'\xaf\xfbS<'
p2501
tp2502
Rp2503
ag1
(g5
S'\xa5\x1cU<'
p2504
tp2505
Rp2506
ag1
(g5
S' <;<'
p2507
tp2508
Rp2509
ag1
(g5
S'\xc5\xf7-<'
p2510
tp2511
Rp2512
ag1
(g5
S'-\xa7@<'
p2513
tp2514
Rp2515
ag1
(g5
S'\xcc\xdf6<'
p2516
tp2517
Rp2518
ag1
(g5
S'\xe0\xe4k<'
p2519
tp2520
Rp2521
ag1
(g5
S'\xf1\x197<'
p2522
tp2523
Rp2524
ag1
(g5
S'\x93D=<'
p2525
tp2526
Rp2527
ag1
(g5
S'\x112E<'
p2528
tp2529
Rp2530
ag1
(g5
S'P\xb3U<'
p2531
tp2532
Rp2533
ag1
(g5
S'Q\xbfK<'
p2534
tp2535
Rp2536
ag1
(g5
S'=wK<'
p2537
tp2538
Rp2539
ag1
(g5
S'\xa0\xf98<'
p2540
tp2541
Rp2542
ag1
(g5
S'\xa1\xbeZ<'
p2543
tp2544
Rp2545
ag1
(g5
S'\x8c\xd4G<'
p2546
tp2547
Rp2548
ag1
(g5
S'\x90\xfeB<'
p2549
tp2550
Rp2551
ag1
(g5
S'B\x9c:<'
p2552
tp2553
Rp2554
ag1
(g5
S'\xfc\x14U<'
p2555
tp2556
Rp2557
ag1
(g5
S'\x8c\xbec<'
p2558
tp2559
Rp2560
ag1
(g5
S's\xdb2<'
p2561
tp2562
Rp2563
ag1
(g5
S'&\xc1K<'
p2564
tp2565
Rp2566
ag1
(g5
S'\x89\xe4J<'
p2567
tp2568
Rp2569
ag1
(g5
S'\xf4\xdcA<'
p2570
tp2571
Rp2572
ag1
(g5
S'\x0f\x0c8<'
p2573
tp2574
Rp2575
ag1
(g5
S'\xcdsW<'
p2576
tp2577
Rp2578
ag1
(g5
S'V\xc9A<'
p2579
tp2580
Rp2581
ag1
(g5
S'b\xc80<'
p2582
tp2583
Rp2584
ag1
(g5
S"\xa3\xcc'<"
p2585
tp2586
Rp2587
ag1
(g5
S'da.<'
p2588
tp2589
Rp2590
ag1
(g5
S'\x9b\x8cR<'
p2591
tp2592
Rp2593
ag1
(g5
S'\x81\xffD<'
p2594
tp2595
Rp2596
ag1
(g5
S'\xe1\xdf<<'
p2597
tp2598
Rp2599
ag1
(g5
S'\xb6\xfa[<'
p2600
tp2601
Rp2602
ag1
(g5
S'\xdf1-<'
p2603
tp2604
Rp2605
ag1
(g5
S'\n\x06C<'
p2606
tp2607
Rp2608
ag1
(g5
S'\xc8\xa9U<'
p2609
tp2610
Rp2611
ag1
(g5
S'\x17e[<'
p2612
tp2613
Rp2614
ag1
(g5
S'\xa5\x8aP<'
p2615
tp2616
Rp2617
ag1
(g5
S'\xd8\xb7<<'
p2618
tp2619
Rp2620
ag1
(g5
S'2\xfb$<'
p2621
tp2622
Rp2623
ag1
(g5
S'\x96\x0e?<'
p2624
tp2625
Rp2626
ag1
(g5
S'\xeah6<'
p2627
tp2628
Rp2629
ag1
(g5
S'\xd0\xcd><'
p2630
tp2631
Rp2632
ag1
(g5
S'\x00\xcbT<'
p2633
tp2634
Rp2635
ag1
(g5
S'\x92\x056<'
p2636
tp2637
Rp2638
ag1
(g5
S'\xf8\xea7<'
p2639
tp2640
Rp2641
ag1
(g5
S'{\x9fM<'
p2642
tp2643
Rp2644
ag1
(g5
S'\xf3\x06P<'
p2645
tp2646
Rp2647
ag1
(g5
S'|\xb3,<'
p2648
tp2649
Rp2650
ag1
(g5
S'\x19\n8<'
p2651
tp2652
Rp2653
ag1
(g5
S'\xefB6<'
p2654
tp2655
Rp2656
ag1
(g5
S'I\xe4L<'
p2657
tp2658
Rp2659
ag1
(g5
S'm\x7f0<'
p2660
tp2661
Rp2662
ag1
(g5
S'F\xe1N<'
p2663
tp2664
Rp2665
ag1
(g5
S'\xd1f=<'
p2666
tp2667
Rp2668
ag1
(g5
S'\xc3\xefE<'
p2669
tp2670
Rp2671
ag1
(g5
S'\xc4\xb29<'
p2672
tp2673
Rp2674
ag1
(g5
S'U\x1f?<'
p2675
tp2676
Rp2677
ag1
(g5
S'\xd1\xfc<<'
p2678
tp2679
Rp2680
ag1
(g5
S'\x95\x07X<'
p2681
tp2682
Rp2683
ag1
(g5
S'\xe0JI<'
p2684
tp2685
Rp2686
ag1
(g5
S'\xd5\xadA<'
p2687
tp2688
Rp2689
ag1
(g5
S'\x9e\xe6O<'
p2690
tp2691
Rp2692
ag1
(g5
S'\x0f\xcf/<'
p2693
tp2694
Rp2695
ag1
(g5
S'\xc4\x888<'
p2696
tp2697
Rp2698
ag1
(g5
S'v\xb0;<'
p2699
tp2700
Rp2701
ag1
(g5
S'\xe6uE<'
p2702
tp2703
Rp2704
ag1
(g5
S'VG3<'
p2705
tp2706
Rp2707
ag1
(g5
S'\x98\xbdA<'
p2708
tp2709
Rp2710
ag1
(g5
S'\xcd\xc73<'
p2711
tp2712
Rp2713
ag1
(g5
S'\xf119<'
p2714
tp2715
Rp2716
ag1
(g5
S'\xfe\x8c:<'
p2717
tp2718
Rp2719
ag1
(g5
S'\x1be9<'
p2720
tp2721
Rp2722
ag1
(g5
S'\xa9\xdfC<'
p2723
tp2724
Rp2725
ag1
(g5
S'S\xefc<'
p2726
tp2727
Rp2728
ag1
(g5
S'^*=<'
p2729
tp2730
Rp2731
ag1
(g5
S'4\xa1:<'
p2732
tp2733
Rp2734
ag1
(g5
S'\xe5fD<'
p2735
tp2736
Rp2737
ag1
(g5
S'H\x905<'
p2738
tp2739
Rp2740
ag1
(g5
S'\xe8rE<'
p2741
tp2742
Rp2743
ag1
(g5
S')\\6<'
p2744
tp2745
Rp2746
ag1
(g5
S'\x86\x95P<'
p2747
tp2748
Rp2749
ag1
(g5
S'\xf5\r?<'
p2750
tp2751
Rp2752
ag1
(g5
S'\x06\x9a?<'
p2753
tp2754
Rp2755
ag1
(g5
S'b\xf00<'
p2756
tp2757
Rp2758
ag1
(g5
S'\x8fuY<'
p2759
tp2760
Rp2761
ag1
(g5
S'9s/<'
p2762
tp2763
Rp2764
ag1
(g5
S'3\xe8(<'
p2765
tp2766
Rp2767
ag1
(g5
S'\xd9\xe3@<'
p2768
tp2769
Rp2770
ag1
(g5
S'6(8<'
p2771
tp2772
Rp2773
ag1
(g5
S'\xb9\xd5O<'
p2774
tp2775
Rp2776
ag1
(g5
S'GX8<'
p2777
tp2778
Rp2779
ag1
(g5
S']EA<'
p2780
tp2781
Rp2782
ag1
(g5
S'7>C<'
p2783
tp2784
Rp2785
ag1
(g5
S'\x19\x9d6<'
p2786
tp2787
Rp2788
ag1
(g5
S'B\x8cE<'
p2789
tp2790
Rp2791
ag1
(g5
S'\x96\xd2C<'
p2792
tp2793
Rp2794
ag1
(g5
S'\x8e\x8a-<'
p2795
tp2796
Rp2797
ag1
(g5
S'0\x89\x1f<'
p2798
tp2799
Rp2800
ag1
(g5
S'\x83\xab9<'
p2801
tp2802
Rp2803
ag1
(g5
S'&-D<'
p2804
tp2805
Rp2806
ag1
(g5
S'\xf6\xac;<'
p2807
tp2808
Rp2809
ag1
(g5
S'\x81\xe6G<'
p2810
tp2811
Rp2812
ag1
(g5
S'\xa9t$<'
p2813
tp2814
Rp2815
ag1
(g5
S'\x141*<'
p2816
tp2817
Rp2818
ag1
(g5
S'}UM<'
p2819
tp2820
Rp2821
ag1
(g5
S'$\xea@<'
p2822
tp2823
Rp2824
ag1
(g5
S'\x0c\xb8R<'
p2825
tp2826
Rp2827
ag1
(g5
S'\xc3,3<'
p2828
tp2829
Rp2830
ag1
(g5
S'\x1f\xd3)<'
p2831
tp2832
Rp2833
ag1
(g5
S'\xf0\x83"<'
p2834
tp2835
Rp2836
ag1
(g5
S'n\xdbI<'
p2837
tp2838
Rp2839
ag1
(g5
S'/i;<'
p2840
tp2841
Rp2842
ag1
(g5
S'L\xae?<'
p2843
tp2844
Rp2845
ag1
(g5
S'A\x8cE<'
p2846
tp2847
Rp2848
ag1
(g5
S'\xbc\xaeK<'
p2849
tp2850
Rp2851
ag1
(g5
S'\x94\xad,<'
p2852
tp2853
Rp2854
ag1
(g5
S'\xb9^Q<'
p2855
tp2856
Rp2857
ag1
(g5
S'\xf8\x165<'
p2858
tp2859
Rp2860
ag1
(g5
S'9\xe7;<'
p2861
tp2862
Rp2863
ag1
(g5
S'\x07\xed\x1f<'
p2864
tp2865
Rp2866
ag1
(g5
S'g\\I<'
p2867
tp2868
Rp2869
ag1
(g5
S'\xcc\xba?<'
p2870
tp2871
Rp2872
ag1
(g5
S'\xc4\xb7V<'
p2873
tp2874
Rp2875
ag1
(g5
S'n\x0cO<'
p2876
tp2877
Rp2878
ag1
(g5
S'\xff\xfaR<'
p2879
tp2880
Rp2881
ag1
(g5
S'b\x047<'
p2882
tp2883
Rp2884
ag1
(g5
S'%\xcc)<'
p2885
tp2886
Rp2887
ag1
(g5
S'\x9e\x8e:<'
p2888
tp2889
Rp2890
ag1
(g5
S'\xfb\xc24<'
p2891
tp2892
Rp2893
ag1
(g5
S',\rf<'
p2894
tp2895
Rp2896
ag1
(g5
S' \x814<'
p2897
tp2898
Rp2899
ag1
(g5
S'pj7<'
p2900
tp2901
Rp2902
ag1
(g5
S'\x02r?<'
p2903
tp2904
Rp2905
ag1
(g5
S'\x12\x03P<'
p2906
tp2907
Rp2908
ag1
(g5
S'O\x9eD<'
p2909
tp2910
Rp2911
ag1
(g5
S'\x0f\xa6C<'
p2912
tp2913
Rp2914
ag1
(g5
S'\xa1\x193<'
p2915
tp2916
Rp2917
ag1
(g5
S'\x07\x16Q<'
p2918
tp2919
Rp2920
ag1
(g5
S'\xed\xf9B<'
p2921
tp2922
Rp2923
ag1
(g5
S"'Y?<"
p2924
tp2925
Rp2926
ag1
(g5
S'}\xe82<'
p2927
tp2928
Rp2929
ag1
(g5
S'\xbb\xbbP<'
p2930
tp2931
Rp2932
ag1
(g5
S'\xff\xda]<'
p2933
tp2934
Rp2935
ag1
(g5
S'hd3<'
p2936
tp2937
Rp2938
ag1
(g5
S'i~H<'
p2939
tp2940
Rp2941
ag1
(g5
S'\x83\x12L<'
p2942
tp2943
Rp2944
ag1
(g5
S'\xf18=<'
p2945
tp2946
Rp2947
ag1
(g5
S'\xac\x944<'
p2948
tp2949
Rp2950
ag1
(g5
S'Z\xdfR<'
p2951
tp2952
Rp2953
ag1
(g5
S'\xcf\x8a><'
p2954
tp2955
Rp2956
ag1
(g5
S'\x1d\x1d-<'
p2957
tp2958
Rp2959
ag1
(g5
S'\xe5\xd9"<'
p2960
tp2961
Rp2962
ag1
(g5
S'\xa7\x91&<'
p2963
tp2964
Rp2965
ag1
(g5
S'\x9aYJ<'
p2966
tp2967
Rp2968
ag1
(g5
S'\xc5\\A<'
p2969
tp2970
Rp2971
ag1
(g5
S'\x0e}9<'
p2972
tp2973
Rp2974
ag1
(g5
S'\xa0\xdeU<'
p2975
tp2976
Rp2977
ag1
(g5
S'\xa7s(<'
p2978
tp2979
Rp2980
ag1
(g5
S'\x01\n><'
p2981
tp2982
Rp2983
ag1
(g5
S'\xd8\xf4S<'
p2984
tp2985
Rp2986
ag1
(g5
S'd\x9dT<'
p2987
tp2988
Rp2989
ag1
(g5
S'\xd2\xaaL<'
p2990
tp2991
Rp2992
ag1
(g5
S'z\x038<'
p2993
tp2994
Rp2995
ag1
(g5
S'\x1f\xb7\x1e<'
p2996
tp2997
Rp2998
ag1
(g5
S'nf9<'
p2999
tp3000
Rp3001
ag1
(g5
S'\xf3\x063<'
p3002
tp3003
Rp3004
ag1
(g5
S'X\x10:<'
p3005
tp3006
Rp3007
ag1
(g5
S'i\xa5M<'
p3008
tp3009
Rp3010
ag1
(g5
S'-\xcb6<'
p3011
tp3012
Rp3013
ag1
(g5
S'\xc4\xd40<'
p3014
tp3015
Rp3016
ag1
(g5
S'!\xa9E<'
p3017
tp3018
Rp3019
ag1
(g5
S'\xdb H<'
p3020
tp3021
Rp3022
ag1
(g5
S'\xbc\xf8%<'
p3023
tp3024
Rp3025
ag1
(g5
S'\x9f\x152<'
p3026
tp3027
Rp3028
ag1
(g5
S'\xe5\x06/<'
p3029
tp3030
Rp3031
ag1
(g5
S'%5H<'
p3032
tp3033
Rp3034
ag1
(g5
S'\x01\xf4-<'
p3035
tp3036
Rp3037
ag1
(g5
S'\x8cYP<'
p3038
tp3039
Rp3040
ag1
(g5
S'\xf1\x158<'
p3041
tp3042
Rp3043
ag1
(g5
S'A\r@<'
p3044
tp3045
Rp3046
ag1
(g5
S'TY5<'
p3047
tp3048
Rp3049
ag1
(g5
S'2\x828<'
p3050
tp3051
Rp3052
ag1
(g5
S'\x1fc:<'
p3053
tp3054
Rp3055
ag1
(g5
S'h\x1cT<'
p3056
tp3057
Rp3058
ag1
(g5
S'\xe7\xaaC<'
p3059
tp3060
Rp3061
ag1
(g5
S'\xd16=<'
p3062
tp3063
Rp3064
ag1
(g5
S'l\x05I<'
p3065
tp3066
Rp3067
ag1
(g5
S'\xb1\xcc.<'
p3068
tp3069
Rp3070
ag1
(g5
S'\x80\xea2<'
p3071
tp3072
Rp3073
ag1
(g5
S'I.6<'
p3074
tp3075
Rp3076
ag1
(g5
S'\xc2\rB<'
p3077
tp3078
Rp3079
ag1
(g5
S'B\xe6,<'
p3080
tp3081
Rp3082
ag1
(g5
S'\xcd\xf5;<'
p3083
tp3084
Rp3085
ag1
(g5
S'J\x811<'
p3086
tp3087
Rp3088
ag1
(g5
S'\x9c\xf27<'
p3089
tp3090
Rp3091
ag1
(g5
S'\xcb\xa65<'
p3092
tp3093
Rp3094
ag1
(g5
S'\xda\x1c3<'
p3095
tp3096
Rp3097
ag1
(g5
S'\xaf\xb6@<'
p3098
tp3099
Rp3100
ag1
(g5
S'\xaf\x00^<'
p3101
tp3102
Rp3103
ag1
(g5
S'\x92\xaf9<'
p3104
tp3105
Rp3106
ag1
(g5
S'\xd8<5<'
p3107
tp3108
Rp3109
ag1
(g5
S'm\x83?<'
p3110
tp3111
Rp3112
ag1
(g5
S'\xbc\xc43<'
p3113
tp3114
Rp3115
ag1
(g5
S'\x11\x85A<'
p3116
tp3117
Rp3118
ag1
(g5
S'\xac\xc01<'
p3119
tp3120
Rp3121
ag1
(g5
S'\xad\x13R<'
p3122
tp3123
Rp3124
ag1
(g5
S'\xf4\xa36<'
p3125
tp3126
Rp3127
ag1
(g5
S'%\x9a<<'
p3128
tp3129
Rp3130
ag1
(g5
S'o\xff-<'
p3131
tp3132
Rp3133
ag1
(g5
S'\xc9\x02S<'
p3134
tp3135
Rp3136
ag1
(g5
S'\xe6\x9b*<'
p3137
tp3138
Rp3139
ag1
(g5
S'N\x1a&<'
p3140
tp3141
Rp3142
ag1
(g5
S'"\xb4=<'
p3143
tp3144
Rp3145
ag1
(g5
S'\x1b\xbe2<'
p3146
tp3147
Rp3148
ag1
(g5
S's\xf3K<'
p3149
tp3150
Rp3151
ag1
(g5
S'\x17\xb72<'
p3152
tp3153
Rp3154
ag1
(g5
S'Y\x0e<<'
p3155
tp3156
Rp3157
ag1
(g5
S'V\xe9<<'
p3158
tp3159
Rp3160
ag1
(g5
S'\xd5\x193<'
p3161
tp3162
Rp3163
ag1
(g5
S'&m=<'
p3164
tp3165
Rp3166
ag1
(g5
S'\x93\xe7<<'
p3167
tp3168
Rp3169
ag1
(g5
S'f )<'
p3170
tp3171
Rp3172
ag1
(g5
S'\xa9g\x1b<'
p3173
tp3174
Rp3175
ag1
(g5
S'EC4<'
p3176
tp3177
Rp3178
ag1
(g5
S'\xfa\xef><'
p3179
tp3180
Rp3181
ag1
(g5
S'M\xcf6<'
p3182
tp3183
Rp3184
ag1
(g5
S'\xe9\x1aB<'
p3185
tp3186
Rp3187
ag1
(g5
S'N\\ <'
p3188
tp3189
Rp3190
ag1
(g5
S"kY'<"
p3191
tp3192
Rp3193
ag1
(g5
S'\x1a\xfdN<'
p3194
tp3195
Rp3196
ag1
(g5
S'\xc9\x0b9<'
p3197
tp3198
Rp3199
ag1
(g5
S'\xedWN<'
p3200
tp3201
Rp3202
ag1
(g5
S'\xc4\xc3-<'
p3203
tp3204
Rp3205
ag1
(g5
S'\x16Z&<'
p3206
tp3207
Rp3208
ag1
(g5
S'\x04u!<'
p3209
tp3210
Rp3211
ag1
(g5
S'\xaa\xcaF<'
p3212
tp3213
Rp3214
ag1
(g5
S'\xb9\xd08<'
p3215
tp3216
Rp3217
ag1
(g5
S'\xb5\xbf;<'
p3218
tp3219
Rp3220
ag1
(g5
S'Vv><'
p3221
tp3222
Rp3223
ag1
(g5
S'\xbe\x10I<'
p3224
tp3225
Rp3226
ag1
(g5
S'F%)<'
p3227
tp3228
Rp3229
ag1
(g5
S'\xb2bM<'
p3230
tp3231
Rp3232
ag1
(g5
S'\x1d\x169<'
p3233
tp3234
Rp3235
ag1
(g5
S'rU:<'
p3236
tp3237
Rp3238
ag1
(g5
S'+\xf8\x1e<'
p3239
tp3240
Rp3241
ag1
(g5
S'N<F<'
p3242
tp3243
Rp3244
ag1
(g5
S'\xba\xd2?<'
p3245
tp3246
Rp3247
ag1
(g5
S'\xdcYS<'
p3248
tp3249
Rp3250
ag1
(g5
S'V\x15P<'
p3251
tp3252
Rp3253
ag1
(g5
S'\x7fuO<'
p3254
tp3255
Rp3256
ag1
(g5
S'\xcbF6<'
p3257
tp3258
Rp3259
ag1
(g5
S'\\\x85%<'
p3260
tp3261
Rp3262
ag1
(g5
S'\xef\xae7<'
p3263
tp3264
Rp3265
ag1
(g5
S'\x00u3<'
p3266
tp3267
Rp3268
ag1
(g5
S'\xf5"b<'
p3269
tp3270
Rp3271
ag1
(g5
S'\xb87.<'
p3272
tp3273
Rp3274
ag1
(g5
S'\x00\x9f5<'
p3275
tp3276
Rp3277
ag1
(g5
S'\xd8\xa3<<'
p3278
tp3279
Rp3280
ag1
(g5
S'\\LM<'
p3281
tp3282
Rp3283
ag1
(g5
S'\x14\xbaE<'
p3284
tp3285
Rp3286
ag1
(g5
S'9\xf2A<'
p3287
tp3288
Rp3289
ag1
(g5
S'\x81\xf52<'
p3290
tp3291
Rp3292
ag1
(g5
S'\x0b\x1dM<'
p3293
tp3294
Rp3295
ag1
(g5
S'\xe6\x9e?<'
p3296
tp3297
Rp3298
ag1
(g5
S'\xb2\x98=<'
p3299
tp3300
Rp3301
ag1
(g5
S'E\xb03<'
p3302
tp3303
Rp3304
ag1
(g5
S'\xf9\x02L<'
p3305
tp3306
Rp3307
ag1
(g5
S'`qV<'
p3308
tp3309
Rp3310
ag1
(g5
S'\xfb\xf2+<'
p3311
tp3312
Rp3313
ag1
(g5
S'\xf3dE<'
p3314
tp3315
Rp3316
ag1
(g5
S'K\xe8A<'
p3317
tp3318
Rp3319
ag1
(g5
S'\xae@9<'
p3320
tp3321
Rp3322
ag1
(g5
S'Mv0<'
p3323
tp3324
Rp3325
ag1
(g5
S'\xc8\x8dM<'
p3326
tp3327
Rp3328
ag1
(g5
S'h\xa5;<'
p3329
tp3330
Rp3331
ag1
(g5
S'\xf0\x8c*<'
p3332
tp3333
Rp3334
ag1
(g5
S'\xbbr#<'
p3335
tp3336
Rp3337
ag1
(g5
S"'\x10$<"
p3338
tp3339
Rp3340
ag1
(g5
S'\xa4\xf6E<'
p3341
tp3342
Rp3343
ag1
(g5
S'\x0b\x8c><'
p3344
tp3345
Rp3346
ag1
(g5
S'\xb6\xa76<'
p3347
tp3348
Rp3349
ag1
(g5
S'WhV<'
p3350
tp3351
Rp3352
ag1
(g5
S"y'%<"
p3353
tp3354
Rp3355
ag1
(g5
S'\xde\xdd?<'
p3356
tp3357
Rp3358
ag1
(g5
S'\xba\xd0P<'
p3359
tp3360
Rp3361
ag1
(g5
S'G2N<'
p3362
tp3363
Rp3364
ag1
(g5
S'\xf8!H<'
p3365
tp3366
Rp3367
ag1
(g5
S'\\26<'
p3368
tp3369
Rp3370
ag1
(g5
S'S\x96\x1c<'
p3371
tp3372
Rp3373
ag1
(g5
S'\xbcd5<'
p3374
tp3375
Rp3376
ag1
(g5
S'\xda\xc5/<'
p3377
tp3378
Rp3379
ag1
(g5
S'\xd2\xe46<'
p3380
tp3381
Rp3382
ag1
(g5
S'\xaesK<'
p3383
tp3384
Rp3385
ag1
(g5
S'P\xbc/<'
p3386
tp3387
Rp3388
ag1
(g5
S'\x06V/<'
p3389
tp3390
Rp3391
ag1
(g5
S'\x87\x02F<'
p3392
tp3393
Rp3394
ag1
(g5
S'\xecjC<'
p3395
tp3396
Rp3397
ag1
(g5
S'\xeb\xd4 <'
p3398
tp3399
Rp3400
ag1
(g5
S'~30<'
p3401
tp3402
Rp3403
ag1
(g5
S'\x01m*<'
p3404
tp3405
Rp3406
ag1
(g5
S'\x87|F<'
p3407
tp3408
Rp3409
ag1
(g5
S'\xb94+<'
p3410
tp3411
Rp3412
ag1
(g5
S'-LH<'
p3413
tp3414
Rp3415
ag1
(g5
S'P;5<'
p3416
tp3417
Rp3418
ag1
(g5
S'\n\xae?<'
p3419
tp3420
Rp3421
ag1
(g5
S'4\xea2<'
p3422
tp3423
Rp3424
ag1
(g5
S'e56<'
p3425
tp3426
Rp3427
ag1
(g5
S'\xee48<'
p3428
tp3429
Rp3430
ag1
(g5
S'\xf0\xc8W<'
p3431
tp3432
Rp3433
ag1
(g5
S'\xf6nB<'
p3434
tp3435
Rp3436
ag1
(g5
S'\xf1c4<'
p3437
tp3438
Rp3439
ag1
(g5
S'\xaffB<'
p3440
tp3441
Rp3442
ag1
(g5
S'\x93\xb6(<'
p3443
tp3444
Rp3445
ag1
(g5
S'\t\xc8/<'
p3446
tp3447
Rp3448
ag1
(g5
S'K84<'
p3449
tp3450
Rp3451
ag1
(g5
S'\xf7\x88=<'
p3452
tp3453
Rp3454
ag1
(g5
S"}>'<"
p3455
tp3456
Rp3457
ag1
(g5
S'Y\xdf8<'
p3458
tp3459
Rp3460
ag1
(g5
S'z\xbf-<'
p3461
tp3462
Rp3463
ag1
(g5
S'\x0e^3<'
p3464
tp3465
Rp3466
ag1
(g5
S'U\xbd/<'
p3467
tp3468
Rp3469
ag1
(g5
S'\xe8@/<'
p3470
tp3471
Rp3472
ag1
(g5
S'\xee4;<'
p3473
tp3474
Rp3475
ag1
(g5
S'\xd2W[<'
p3476
tp3477
Rp3478
ag1
(g5
S'.\xc64<'
p3479
tp3480
Rp3481
ag1
(g5
S'\x13\xa38<'
p3482
tp3483
Rp3484
ag1
(g5
S'\xf5\x9b7<'
p3485
tp3486
Rp3487
ag1
(g5
S'~\xaf.<'
p3488
tp3489
Rp3490
ag1
(g5
S'\xb5\xd1<<'
p3491
tp3492
Rp3493
ag1
(g5
S'\xee\xf9-<'
p3494
tp3495
Rp3496
ag1
(g5
S'\xe3\x15J<'
p3497
tp3498
Rp3499
ag1
(g5
S'\xb9\x7f3<'
p3500
tp3501
Rp3502
ag1
(g5
S'\xd2\x9e5<'
p3503
tp3504
Rp3505
ag1
(g5
S'\xcd\xb4(<'
p3506
tp3507
Rp3508
ag1
(g5
S'\xcc\xf1L<'
p3509
tp3510
Rp3511
ag1
(g5
S'\xcc;&<'
p3512
tp3513
Rp3514
ag1
(g5
S'\xbb;(<'
p3515
tp3516
Rp3517
ag1
(g5
S'&\x9b;<'
p3518
tp3519
Rp3520
ag1
(g5
S'2>-<'
p3521
tp3522
Rp3523
ag1
(g5
S'\xfb-H<'
p3524
tp3525
Rp3526
ag1
(g5
S'e@/<'
p3527
tp3528
Rp3529
ag1
(g5
S'\xd4\x0c9<'
p3530
tp3531
Rp3532
ag1
(g5
S'\x9e1@<'
p3533
tp3534
Rp3535
ag1
(g5
S'\xed&.<'
p3536
tp3537
Rp3538
ag1
(g5
S'sv:<'
p3539
tp3540
Rp3541
ag1
(g5
S'm\xe98<'
p3542
tp3543
Rp3544
ag1
(g5
S'7\t&<'
p3545
tp3546
Rp3547
ag1
(g5
S'\xa4\xdb\x18<'
p3548
tp3549
Rp3550
ag1
(g5
S'\xb8\xfb/<'
p3551
tp3552
Rp3553
ag1
(g5
S']\x1c><'
p3554
tp3555
Rp3556
ag1
(g5
S'\xb6W2<'
p3557
tp3558
Rp3559
ag1
(g5
S'\xa2\x17=<'
p3560
tp3561
Rp3562
ag1
(g5
S'\xc6\xd4\x19<'
p3563
tp3564
Rp3565
ag1
(g5
S'cM$<'
p3566
tp3567
Rp3568
ag1
(g5
S'\xd3\xc3B<'
p3569
tp3570
Rp3571
ag1
(g5
S'\xaa\x987<'
p3572
tp3573
Rp3574
ag1
(g5
S'\x00\xf4J<'
p3575
tp3576
Rp3577
ag1
(g5
S'\x17\x9e*<'
p3578
tp3579
Rp3580
ag1
(g5
S'\xb8\xad#<'
p3581
tp3582
Rp3583
ag1
(g5
S'\xfe\x0e <'
p3584
tp3585
Rp3586
ag1
(g5
S'/\x92@<'
p3587
tp3588
Rp3589
ag1
(g5
S'\xd8+1<'
p3590
tp3591
Rp3592
ag1
(g5
S'\xdf{:<'
p3593
tp3594
Rp3595
ag1
(g5
S'\rO=<'
p3596
tp3597
Rp3598
ag1
(g5
S'\xe8\xa1B<'
p3599
tp3600
Rp3601
ag1
(g5
S'\xb2_&<'
p3602
tp3603
Rp3604
ag1
(g5
S'v\xedG<'
p3605
tp3606
Rp3607
ag1
(g5
S'~R.<'
p3608
tp3609
Rp3610
ag1
(g5
S'F05<'
p3611
tp3612
Rp3613
ag1
(g5
S'?\x0f\x1c<'
p3614
tp3615
Rp3616
ag1
(g5
S'\xa17B<'
p3617
tp3618
Rp3619
ag1
(g5
S']H=<'
p3620
tp3621
Rp3622
ag1
(g5
S'\xec\xfcK<'
p3623
tp3624
Rp3625
ag1
(g5
S'\xfa\xd0F<'
p3626
tp3627
Rp3628
ag1
(g5
S'fzI<'
p3629
tp3630
Rp3631
ag1
(g5
S'\x08\xcb.<'
p3632
tp3633
Rp3634
ag1
(g5
S'\x9a3\x1f<'
p3635
tp3636
Rp3637
ag1
(g5
S'9\xd04<'
p3638
tp3639
Rp3640
ag1
(g5
S'b.-<'
p3641
tp3642
Rp3643
ag1
(g5
S'a\x8eZ<'
p3644
tp3645
Rp3646
ag1
(g5
S'\xf4\x86*<'
p3647
tp3648
Rp3649
ag1
(g5
S'\xac+0<'
p3650
tp3651
Rp3652
ag1
(g5
S']\xca8<'
p3653
tp3654
Rp3655
ag1
(g5
S'\x93\xe1J<'
p3656
tp3657
Rp3658
ag1
(g5
S'=sA<'
p3659
tp3660
Rp3661
ag1
(g5
S'\x83w<<'
p3662
tp3663
Rp3664
ag1
(g5
S'9{-<'
p3665
tp3666
Rp3667
ag1
(g5
S':\x02I<'
p3668
tp3669
Rp3670
ag1
(g5
S'j\xe6=<'
p3671
tp3672
Rp3673
ag1
(g5
S'\xdaf5<'
p3674
tp3675
Rp3676
ag1
(g5
S'\xf4+-<'
p3677
tp3678
Rp3679
ag1
(g5
S'\xa8\x88G<'
p3680
tp3681
Rp3682
ag1
(g5
S'~hT<'
p3683
tp3684
Rp3685
ag1
(g5
S'\xbb\x0f*<'
p3686
tp3687
Rp3688
ag1
(g5
S'\xca\xbbB<'
p3689
tp3690
Rp3691
ag1
(g5
S'\xabs<<'
p3692
tp3693
Rp3694
ag1
(g5
S'\xbb\xb73<'
p3695
tp3696
Rp3697
ag1
(g5
S'd|.<'
p3698
tp3699
Rp3700
ag1
(g5
S'8\x00H<'
p3701
tp3702
Rp3703
ag1
(g5
S'\x0b\x917<'
p3704
tp3705
Rp3706
ag1
(g5
S'\xc0\xa8%<'
p3707
tp3708
Rp3709
ag1
(g5
S'!\xbb <'
p3710
tp3711
Rp3712
ag1
(g5
S'Z\xe4 <'
p3713
tp3714
Rp3715
ag1
(g5
S',{C<'
p3716
tp3717
Rp3718
ag1
(g5
S'Pa8<'
p3719
tp3720
Rp3721
ag1
(g5
S'\xd8\xd40<'
p3722
tp3723
Rp3724
ag1
(g5
S'\xeeXL<'
p3725
tp3726
Rp3727
ag1
(g5
S'\xa7\xf1\x1e<'
p3728
tp3729
Rp3730
ag1
(g5
S'1w9<'
p3731
tp3732
Rp3733
ag1
(g5
S'b2K<'
p3734
tp3735
Rp3736
ag1
(g5
S'uHI<'
p3737
tp3738
Rp3739
ag1
(g5
S'\x03\xf7C<'
p3740
tp3741
Rp3742
ag1
(g5
S'\xaa\x872<'
p3743
tp3744
Rp3745
ag1
(g5
S'#E\x16<'
p3746
tp3747
Rp3748
ag1
(g5
S'\xb484<'
p3749
tp3750
Rp3751
ag1
(g5
S'\x91\x10*<'
p3752
tp3753
Rp3754
ag1
(g5
S'\xec\x1d5<'
p3755
tp3756
Rp3757
ag1
(g5
S'\xe2\x0fC<'
p3758
tp3759
Rp3760
ag1
(g5
S'\xbb\xc8,<'
p3761
tp3762
Rp3763
ag1
(g5
S'W\xb9-<'
p3764
tp3765
Rp3766
ag1
(g5
S'\x08DB<'
p3767
tp3768
Rp3769
ag1
(g5
S'\x92\xd5A<'
p3770
tp3771
Rp3772
ag1
(g5
S'\xfeq\x1f<'
p3773
tp3774
Rp3775
ag1
(g5
S'\xa1S+<'
p3776
tp3777
Rp3778
ag1
(g5
S'\xe5\xc2%<'
p3779
tp3780
Rp3781
ag1
(g5
S'\x0bn><'
p3782
tp3783
Rp3784
ag1
(g5
S"t4'<"
p3785
tp3786
Rp3787
ag1
(g5
S'nAD<'
p3788
tp3789
Rp3790
ag1
(g5
S'\x81\x9a3<'
p3791
tp3792
Rp3793
ag1
(g5
S'\x1b\x84=<'
p3794
tp3795
Rp3796
ag1
(g5
S'2\xa00<'
p3797
tp3798
Rp3799
ag1
(g5
S"'l2<"
p3800
tp3801
Rp3802
ag1
(g5
S'\x92j/<'
p3803
tp3804
Rp3805
ag1
(g5
S'\x94\xefN<'
p3806
tp3807
Rp3808
ag1
(g5
S'\xc7\xee><'
p3809
tp3810
Rp3811
ag1
(g5
S'\x03\xaa0<'
p3812
tp3813
Rp3814
ag1
(g5
S'N\xe2@<'
p3815
tp3816
Rp3817
ag1
(g5
S'\xda,"<'
p3818
tp3819
Rp3820
ag1
(g5
S'\xbc\xea,<'
p3821
tp3822
Rp3823
ag1
(g5
S'R\x9c-<'
p3824
tp3825
Rp3826
ag1
(g5
S'\x07[7<'
p3827
tp3828
Rp3829
ag1
(g5
S'\x06\x16!<'
p3830
tp3831
Rp3832
ag1
(g5
S'`\x883<'
p3833
tp3834
Rp3835
ag1
(g5
S'\x86\xa1)<'
p3836
tp3837
Rp3838
ag1
(g5
S'B\xad2<'
p3839
tp3840
Rp3841
ag1
(g5
S'\xad\xd3+<'
p3842
tp3843
Rp3844
ag1
(g5
S'\xc6\x0b+<'
p3845
tp3846
Rp3847
ag1
(g5
S'\xe7\t:<'
p3848
tp3849
Rp3850
ag1
(g5
S'.\x03Y<'
p3851
tp3852
Rp3853
ag1
(g5
S'N\x035<'
p3854
tp3855
Rp3856
ag1
(g5
S'\xdaf/<'
p3857
tp3858
Rp3859
ag1
(g5
S'\x1bZ6<'
p3860
tp3861
Rp3862
ag1
(g5
S'\n\n+<'
p3863
tp3864
Rp3865
ag1
(g5
S'Z)9<'
p3866
tp3867
Rp3868
ag1
(g5
S'\r\x97+<'
p3869
tp3870
Rp3871
ag1
(g5
S'8\x96E<'
p3872
tp3873
Rp3874
ag1
(g5
S'\xb8\xac/<'
p3875
tp3876
Rp3877
ag1
(g5
S'\x12\x934<'
p3878
tp3879
Rp3880
ag1
(g5
S'0\xea%<'
p3881
tp3882
Rp3883
ag1
(g5
S'\xae#K<'
p3884
tp3885
Rp3886
ag1
(g5
S'H3%<'
p3887
tp3888
Rp3889
ag1
(g5
S'\x87\xd3\x1f<'
p3890
tp3891
Rp3892
ag1
(g5
S'\xbe\x079<'
p3893
tp3894
Rp3895
ag1
(g5
S'\xe0\xdd,<'
p3896
tp3897
Rp3898
ag1
(g5
S'C\xc1C<'
p3899
tp3900
Rp3901
ag1
(g5
S'\x17\xf0+<'
p3902
tp3903
Rp3904
ag1
(g5
S'\x0b\x935<'
p3905
tp3906
Rp3907
ag1
(g5
S'\x17\x179<'
p3908
tp3909
Rp3910
ag1
(g5
S'\xb4\x84&<'
p3911
tp3912
Rp3913
ag1
(g5
S':\x016<'
p3914
tp3915
Rp3916
ag1
(g5
S'S\xbc6<'
p3917
tp3918
Rp3919
ag1
(g5
S'\xe6\x9c\x1f<'
p3920
tp3921
Rp3922
ag1
(g5
S'\x987\x17<'
p3923
tp3924
Rp3925
ag1
(g5
S'~&.<'
p3926
tp3927
Rp3928
ag1
(g5
S'\x14\xc2;<'
p3929
tp3930
Rp3931
ag1
(g5
S'\xb8\xca.<'
p3932
tp3933
Rp3934
ag1
(g5
S'\xab\r3<'
p3935
tp3936
Rp3937
ag1
(g5
S'`*\x15<'
p3938
tp3939
Rp3940
ag1
(g5
S'\xbd\xec <'
p3941
tp3942
Rp3943
ag1
(g5
S'N\xc1@<'
p3944
tp3945
Rp3946
ag1
(g5
S'\x03\x0b0<'
p3947
tp3948
Rp3949
ag1
(g5
S'C\xefE<'
p3950
tp3951
Rp3952
ag1
(g5
S'\x90i*<'
p3953
tp3954
Rp3955
ag1
(g5
S')\xc0\x1c<'
p3956
tp3957
Rp3958
ag1
(g5
S'x\xb0\x19<'
p3959
tp3960
Rp3961
ag1
(g5
S'\xe6K<<'
p3962
tp3963
Rp3964
ag1
(g5
S'\x04\x9d1<'
p3965
tp3966
Rp3967
ag1
(g5
S'v\xc33<'
p3968
tp3969
Rp3970
ag1
(g5
S'zV;<'
p3971
tp3972
Rp3973
ag1
(g5
S'Bi?<'
p3974
tp3975
Rp3976
ag1
(g5
S'\xbf\xbd"<'
p3977
tp3978
Rp3979
ag1
(g5
S'\x96zB<'
p3980
tp3981
Rp3982
ag1
(g5
S'.#)<'
p3983
tp3984
Rp3985
ag1
(g5
S'M-2<'
p3986
tp3987
Rp3988
ag1
(g5
S'\x1a\xab\x1c<'
p3989
tp3990
Rp3991
ag1
(g5
S'\xdf\x1f:<'
p3992
tp3993
Rp3994
ag1
(g5
S'\x98\x9f;<'
p3995
tp3996
Rp3997
ag1
(g5
S'R\xe7K<'
p3998
tp3999
Rp4000
ag1
(g5
S'\xd4RB<'
p4001
tp4002
Rp4003
ag1
(g5
S'Y\x8bI<'
p4004
tp4005
Rp4006
ag1
(g5
S'\x1b\xa8.<'
p4007
tp4008
Rp4009
ag1
(g5
S'\xe9\xea\x1b<'
p4010
tp4011
Rp4012
ag1
(g5
S'\xa8\xc40<'
p4013
tp4014
Rp4015
ag1
(g5
S'\xcf\x13(<'
p4016
tp4017
Rp4018
ag1
(g5
S'\xa2\xd3[<'
p4019
tp4020
Rp4021
ag1
(g5
S"\x8e\xc9'<"
p4022
tp4023
Rp4024
ag1
(g5
S'\x9cx-<'
p4025
tp4026
Rp4027
ag1
(g5
S'\x0b\xd24<'
p4028
tp4029
Rp4030
ag1
(g5
S'\xcf"F<'
p4031
tp4032
Rp4033
ag1
(g5
S'N\xb4?<'
p4034
tp4035
Rp4036
ag1
(g5
S'\x0f\x0c6<'
p4037
tp4038
Rp4039
ag1
(g5
S'u\x0f(<'
p4040
tp4041
Rp4042
ag1
(g5
S'\xcb\x8eG<'
p4043
tp4044
Rp4045
ag1
(g5
S'\xff\xa0<<'
p4046
tp4047
Rp4048
ag1
(g5
S'\xfc\xdc3<'
p4049
tp4050
Rp4051
ag1
(g5
S'm\x0f,<'
p4052
tp4053
Rp4054
ag1
(g5
S'a\x16H<'
p4055
tp4056
Rp4057
ag1
(g5
S'\xb2\xc7O<'
p4058
tp4059
Rp4060
ag1
(g5
S'\xb9L%<'
p4061
tp4062
Rp4063
ag1
(g5
S'\xea\x02><'
p4064
tp4065
Rp4066
ag1
(g5
S';\xd59<'
p4067
tp4068
Rp4069
ag1
(g5
S'\x89\xd51<'
p4070
tp4071
Rp4072
ag1
(g5
S'S\x13-<'
p4073
tp4074
Rp4075
ag1
(g5
S'8aD<'
p4076
tp4077
Rp4078
ag1
(g5
S'\xe3D4<'
p4079
tp4080
Rp4081
ag1
(g5
S'q\x93!<'
p4082
tp4083
Rp4084
ag1
(g5
S'{\xe2\x1f<'
p4085
tp4086
Rp4087
ag1
(g5
S'\xec\xcc\x1e<'
p4088
tp4089
Rp4090
ag1
(g5
S'\xfeb><'
p4091
tp4092
Rp4093
ag1
(g5
S'\xbf\xbd4<'
p4094
tp4095
Rp4096
ag1
(g5
S'\x0e\x8e-<'
p4097
tp4098
Rp4099
ag1
(g5
S'@OH<'
p4100
tp4101
Rp4102
ag1
(g5
S'6\x17\x1e<'
p4103
tp4104
Rp4105
ag1
(g5
S'\xc9\xe05<'
p4106
tp4107
Rp4108
ag1
(g5
S'\xb3\x98H<'
p4109
tp4110
Rp4111
ag1
(g5
S'\xf34J<'
p4112
tp4113
Rp4114
ag1
(g5
S'Nh><'
p4115
tp4116
Rp4117
ag1
(g5
S'e\xaf,<'
p4118
tp4119
Rp4120
ag1
(g5
S'\t\xa8\x13<'
p4121
tp4122
Rp4123
ag1
(g5
S'\x16\xc90<'
p4124
tp4125
Rp4126
ag1
(g5
S'*A%<'
p4127
tp4128
Rp4129
ag1
(g5
S'}\xf10<'
p4130
tp4131
Rp4132
ag1
(g5
S'i\xdaB<'
p4133
tp4134
Rp4135
ag1
(g5
S'U_(<'
p4136
tp4137
Rp4138
ag1
(g5
S'\xdab)<'
p4139
tp4140
Rp4141
ag1
(g5
S'Y\x0b=<'
p4142
tp4143
Rp4144
ag1
(g5
S'\xd1\x12<<'
p4145
tp4146
Rp4147
ag1
(g5
S'&X\x1b<'
p4148
tp4149
Rp4150
ag1
(g5
S'\xd9\xfb(<'
p4151
tp4152
Rp4153
ag1
(g5
S'"\xad!<'
p4154
tp4155
Rp4156
ag1
(g5
S'\x93\xbb:<'
p4157
tp4158
Rp4159
ag1
(g5
S'r\xfa$<'
p4160
tp4161
Rp4162
ag1
(g5
S'\xa5\xc8A<'
p4163
tp4164
Rp4165
ag1
(g5
S'\x14|,<'
p4166
tp4167
Rp4168
ag1
(g5
S'\xd217<'
p4169
tp4170
Rp4171
ag1
(g5
S'\xacJ,<'
p4172
tp4173
Rp4174
ag1
(g5
S'\xc6\xa4.<'
p4175
tp4176
Rp4177
ag1
(g5
S'T\xc4,<'
p4178
tp4179
Rp4180
ag1
(g5
S'y5K<'
p4181
tp4182
Rp4183
ag1
(g5
S'\x08P8<'
p4184
tp4185
Rp4186
ag1
(g5
S'\x9b\x034<'
p4187
tp4188
Rp4189
ag1
(g5
S'#\xab><'
p4190
tp4191
Rp4192
ag1
(g5
S';\xd4!<'
p4193
tp4194
Rp4195
ag1
(g5
S'H\x84(<'
p4196
tp4197
Rp4198
ag1
(g5
S']+,<'
p4199
tp4200
Rp4201
ag1
(g5
S'\xbc.5<'
p4202
tp4203
Rp4204
ag1
(g5
S'\x12^\x1e<'
p4205
tp4206
Rp4207
ag1
(g5
S'\x0e/2<'
p4208
tp4209
Rp4210
ag1
(g5
S'W\x84(<'
p4211
tp4212
Rp4213
ag1
(g5
S'\\\x99/<'
p4214
tp4215
Rp4216
ag1
(g5
S'V\xf0(<'
p4217
tp4218
Rp4219
ag1
(g5
S'\xcdo*<'
p4220
tp4221
Rp4222
ag1
(g5
S'\xe0\x1d7<'
p4223
tp4224
Rp4225
ag1
(g5
S'g\x14Q<'
p4226
tp4227
Rp4228
ag1
(g5
S'\x14O/<'
p4229
tp4230
Rp4231
ag1
(g5
S'\x88z,<'
p4232
tp4233
Rp4234
ag1
(g5
S'w\xf25<'
p4235
tp4236
Rp4237
ag1
(g5
S'i\r(<'
p4238
tp4239
Rp4240
ag1
(g5
S'\xa4*8<'
p4241
tp4242
Rp4243
ag1
(g5
S'\xcdc)<'
p4244
tp4245
Rp4246
ag1
(g5
S'H1A<'
p4247
tp4248
Rp4249
ag1
(g5
S'\xf8`.<'
p4250
tp4251
Rp4252
ag1
(g5
S'ZG2<'
p4253
tp4254
Rp4255
ag1
(g5
S'V\xe3!<'
p4256
tp4257
Rp4258
ag1
(g5
S'\xb0nJ<'
p4259
tp4260
Rp4261
ag1
(g5
S'J\x99!<'
p4262
tp4263
Rp4264
ag1
(g5
S'\xcc0\x1f<'
p4265
tp4266
Rp4267
ag1
(g5
S'6\xac3<'
p4268
tp4269
Rp4270
ag1
(g5
S'Je&<'
p4271
tp4272
Rp4273
ag1
(g5
S'\xf5\x12@<'
p4274
tp4275
Rp4276
ag1
(g5
S'\xfe\xd2(<'
p4277
tp4278
Rp4279
ag1
(g5
S'e]2<'
p4280
tp4281
Rp4282
ag1
(g5
S'vG8<'
p4283
tp4284
Rp4285
ag1
(g5
S'>\x9b&<'
p4286
tp4287
Rp4288
ag1
(g5
S'\x08e1<'
p4289
tp4290
Rp4291
ag1
(g5
S'\xd8\x003<'
p4292
tp4293
Rp4294
ag1
(g5
S'\x005\x1c<'
p4295
tp4296
Rp4297
ag1
(g5
S' \x9d\x14<'
p4298
tp4299
Rp4300
ag1
(g5
S'-Q,<'
p4301
tp4302
Rp4303
ag1
(g5
S'\xdb78<'
p4304
tp4305
Rp4306
ag1
(g5
S'QF/<'
p4307
tp4308
Rp4309
ag1
(g5
S'\xc1\x941<'
p4310
tp4311
Rp4312
ag1
(g5
S'\x13\x9e\x16<'
p4313
tp4314
Rp4315
ag1
(g5
S'\xd63\x1a<'
p4316
tp4317
Rp4318
ag1
(g5
S'\xe2\x86=<'
p4319
tp4320
Rp4321
ag1
(g5
S'\xd4\x17.<'
p4322
tp4323
Rp4324
ag1
(g5
S'\xf1\x99?<'
p4325
tp4326
Rp4327
ag1
(g5
S'-#&<'
p4328
tp4329
Rp4330
ag1
(g5
S'\xd0^\x1a<'
p4331
tp4332
Rp4333
ag1
(g5
S'\x99?\x18<'
p4334
tp4335
Rp4336
ag1
(g5
S'\x8d,9<'
p4337
tp4338
Rp4339
ag1
(g5
S'\xe0\x890<'
p4340
tp4341
Rp4342
ag1
(g5
S'\x08E0<'
p4343
tp4344
Rp4345
ag1
(g5
S'\xd9\xac6<'
p4346
tp4347
Rp4348
ag1
(g5
S'\x1bM=<'
p4349
tp4350
Rp4351
ag1
(g5
S'\xac\xfd\x1d<'
p4352
tp4353
Rp4354
ag1
(g5
S'g>><'
p4355
tp4356
Rp4357
ag1
(g5
S'\x7f\xa7$<'
p4358
tp4359
Rp4360
ag1
(g5
S'/\xc7-<'
p4361
tp4362
Rp4363
ag1
(g5
S'\xf1\x00\x18<'
p4364
tp4365
Rp4366
ag1
(g5
S'\xc8\xd78<'
p4367
tp4368
Rp4369
ag1
(g5
S'|`7<'
p4370
tp4371
Rp4372
ag1
(g5
S'\x08\xcbJ<'
p4373
tp4374
Rp4375
ag1
(g5
S'\xd1(><'
p4376
tp4377
Rp4378
ag1
(g5
S'\xc6\xe4B<'
p4379
tp4380
Rp4381
ag1
(g5
S'(?(<'
p4382
tp4383
Rp4384
ag1
(g5
S'\xff(\x1b<'
p4385
tp4386
Rp4387
ag1
(g5
S'Da.<'
p4388
tp4389
Rp4390
ag1
(g5
S"\xa4\x86'<"
p4391
tp4392
Rp4393
ag1
(g5
S'^\xc6T<'
p4394
tp4395
Rp4396
ag1
(g5
S'\x8fp(<'
p4397
tp4398
Rp4399
ag1
(g5
S"\xedz'<"
p4400
tp4401
Rp4402
ag1
(g5
S'3\x963<'
p4403
tp4404
Rp4405
ag1
(g5
S'Z\xe9E<'
p4406
tp4407
Rp4408
ag1
(g5
S'ms<<'
p4409
tp4410
Rp4411
ag1
(g5
S'\xdb\x1b:<'
p4412
tp4413
Rp4414
ag1
(g5
S'l\xb3(<'
p4415
tp4416
Rp4417
ag1
(g5
S'\xc4\x1bA<'
p4418
tp4419
Rp4420
ag1
(g5
S'\x0e\x927<'
p4421
tp4422
Rp4423
ag1
(g5
S'w\xf44<'
p4424
tp4425
Rp4426
ag1
(g5
S'\x975)<'
p4427
tp4428
Rp4429
ag1
(g5
S'\x8e\xf5A<'
p4430
tp4431
Rp4432
ag1
(g5
S'^HL<'
p4433
tp4434
Rp4435
ag1
(g5
S'f\x83"<'
p4436
tp4437
Rp4438
ag1
(g5
S'9{=<'
p4439
tp4440
Rp4441
ag1
(g5
S'\xd6:4<'
p4442
tp4443
Rp4444
ag1
(g5
S'\xba\x01/<'
p4445
tp4446
Rp4447
ag1
(g5
S'e\x15*<'
p4448
tp4449
Rp4450
ag1
(g5
S'*\x8aC<'
p4451
tp4452
Rp4453
ag1
(g5
S'\xa071<'
p4454
tp4455
Rp4456
ag1
(g5
S'0\xad\x1e<'
p4457
tp4458
Rp4459
ag1
(g5
S'\xa2\x02\x1d<'
p4460
tp4461
Rp4462
ag1
(g5
S'\x92^\x1c<'
p4463
tp4464
Rp4465
ag1
(g5
S'\nH:<'
p4466
tp4467
Rp4468
ag1
(g5
S'"\x9b0<'
p4469
tp4470
Rp4471
ag1
(g5
S'\xc59)<'
p4472
tp4473
Rp4474
ag1
(g5
S'\x82UD<'
p4475
tp4476
Rp4477
ag1
(g5
S'q\xf4\x1a<'
p4478
tp4479
Rp4480
ag1
(g5
S'A^3<'
p4481
tp4482
Rp4483
ag1
(g5
S'2\x85E<'
p4484
tp4485
Rp4486
ag1
(g5
S'\x99\x80I<'
p4487
tp4488
Rp4489
ag1
(g5
S'\x8808<'
p4490
tp4491
Rp4492
ag1
(g5
S'H"*<'
p4493
tp4494
Rp4495
ag1
(g5
S'b\xc7\x12<'
p4496
tp4497
Rp4498
ag1
(g5
S'7\xa2/<'
p4499
tp4500
Rp4501
ag1
(g5
S'q\x94(<'
p4502
tp4503
Rp4504
ag1
(g5
S'\x9f\xed-<'
p4505
tp4506
Rp4507
ag1
(g5
S'\xc8\x1d@<'
p4508
tp4509
Rp4510
ag1
(g5
S'z\xd6!<'
p4511
tp4512
Rp4513
ag1
(g5
S"\xb4|'<"
p4514
tp4515
Rp4516
ag1
(g5
S'\xf6D:<'
p4517
tp4518
Rp4519
ag1
(g5
S'\x90\xc87<'
p4520
tp4521
Rp4522
ag1
(g5
S'\x16!\x19<'
p4523
tp4524
Rp4525
ag1
(g5
S'\x08\x9d(<'
p4526
tp4527
Rp4528
ag1
(g5
S'|\xf9\x1f<'
p4529
tp4530
Rp4531
ag1
(g5
S'\x92\x0b;<'
p4532
tp4533
Rp4534
ag1
(g5
S'\xb4\x0c!<'
p4535
tp4536
Rp4537
ag1
(g5
S'R\xd6@<'
p4538
tp4539
Rp4540
ag1
(g5
S'\xdc\x0c.<'
p4541
tp4542
Rp4543
ag1
(g5
S'\xc2V6<'
p4544
tp4545
Rp4546
ag1
(g5
S'\xd7\x02-<'
p4547
tp4548
Rp4549
ag1
(g5
S'P\xad.<'
p4550
tp4551
Rp4552
ag1
(g5
S'\xae\xd1*<'
p4553
tp4554
Rp4555
ag1
(g5
S'Q\x17G<'
p4556
tp4557
Rp4558
ag1
(g5
S'$\xd66<'
p4559
tp4560
Rp4561
ag1
(g5
S'Y\xd91<'
p4562
tp4563
Rp4564
ag1
(g5
S',\xb8;<'
p4565
tp4566
Rp4567
ag1
(g5
S'\x18\xb5 <'
p4568
tp4569
Rp4570
ag1
(g5
S'\x89\xa4$<'
p4571
tp4572
Rp4573
ag1
(g5
S'u\x1c)<'
p4574
tp4575
Rp4576
ag1
(g5
S'\x9e\xb12<'
p4577
tp4578
Rp4579
ag1
(g5
S'\xbd\xf0\x1b<'
p4580
tp4581
Rp4582
ag1
(g5
S'\xf4,.<'
p4583
tp4584
Rp4585
ag1
(g5
S'"\xfe%<'
p4586
tp4587
Rp4588
ag1
(g5
S'\xc4\xd5(<'
p4589
tp4590
Rp4591
ag1
(g5
S'\xbe\xa3)<'
p4592
tp4593
Rp4594
ag1
(g5
S"JA'<"
p4595
tp4596
Rp4597
ag1
(g5
S'\x82\xd54<'
p4598
tp4599
Rp4600
ag1
(g5
S'JAM<'
p4601
tp4602
Rp4603
ag1
(g5
S'?\xab+<'
p4604
tp4605
Rp4606
ag1
(g5
S'\x8a\xbe(<'
p4607
tp4608
Rp4609
ag1
(g5
S'\xa4Q0<'
p4610
tp4611
Rp4612
ag1
(g5
S'G\x86$<'
p4613
tp4614
Rp4615
ag1
(g5
S'o\xc12<'
p4616
tp4617
Rp4618
ag1
(g5
S'HM&<'
p4619
tp4620
Rp4621
ag1
(g5
S'\xe3gC<'
p4622
tp4623
Rp4624
ag1
(g5
S'\x04\xa0-<'
p4625
tp4626
Rp4627
ag1
(g5
S't\xb90<'
p4628
tp4629
Rp4630
ag1
(g5
S'\xf7\xc7 <'
p4631
tp4632
Rp4633
ag1
(g5
S'n\xefD<'
p4634
tp4635
Rp4636
ag1
(g5
S'\x1eo\x1a<'
p4637
tp4638
Rp4639
ag1
(g5
S'\x17-\x19<'
p4640
tp4641
Rp4642
ag1
(g5
S'\xd9\x0c5<'
p4643
tp4644
Rp4645
ag1
(g5
S'\xa5\xcc"<'
p4646
tp4647
Rp4648
ag1
(g5
S'vk?<'
p4649
tp4650
Rp4651
ag1
(g5
S'd\xa4&<'
p4652
tp4653
Rp4654
ag1
(g5
S'\x14\x882<'
p4655
tp4656
Rp4657
ag1
(g5
S'\x02:8<'
p4658
tp4659
Rp4660
ag1
(g5
S'n\xdf"<'
p4661
tp4662
Rp4663
ag1
(g5
S'6\x853<'
p4664
tp4665
Rp4666
ag1
(g5
S'\xfdu1<'
p4667
tp4668
Rp4669
ag1
(g5
S'.\xa0\x1a<'
p4670
tp4671
Rp4672
ag1
(g5
S'\x10\xf0\x14<'
p4673
tp4674
Rp4675
ag1
(g5
S'\x96")<'
p4676
tp4677
Rp4678
ag1
(g5
S'p\x0e;<'
p4679
tp4680
Rp4681
ag1
(g5
S'\xe3\x90-<'
p4682
tp4683
Rp4684
ag1
(g5
S'\xcc\x90-<'
p4685
tp4686
Rp4687
ag1
(g5
S'\xfaB\x12<'
p4688
tp4689
Rp4690
ag1
(g5
S'\x13\xaf\x18<'
p4691
tp4692
Rp4693
ag1
(g5
S'8\x11?<'
p4694
tp4695
Rp4696
ag1
(g5
S'\xa2\xd1,<'
p4697
tp4698
Rp4699
ag1
(g5
S'Dp><'
p4700
tp4701
Rp4702
ag1
(g5
S'\x97\xb0#<'
p4703
tp4704
Rp4705
ag1
(g5
S',3\x19<'
p4706
tp4707
Rp4708
ag1
(g5
S'\x00\xf1\x14<'
p4709
tp4710
Rp4711
ag1
(g5
S'\xb0\xca7<'
p4712
tp4713
Rp4714
ag1
(g5
S'\xe7\xbe*<'
p4715
tp4716
Rp4717
ag1
(g5
S'\xafY0<'
p4718
tp4719
Rp4720
ag1
(g5
S'\x91i4<'
p4721
tp4722
Rp4723
ag1
(g5
S'\x04\x00:<'
p4724
tp4725
Rp4726
ag1
(g5
S'\xdf\xf3\x1a<'
p4727
tp4728
Rp4729
ag1
(g5
S'\xd9\xfa:<'
p4730
tp4731
Rp4732
ag1
(g5
S"\xedd'<"
p4733
tp4734
Rp4735
ag1
(g5
S'8H*<'
p4736
tp4737
Rp4738
ag1
(g5
S'\xeb\x8a\x10<'
p4739
tp4740
Rp4741
ag1
(g5
S'\x93Q6<'
p4742
tp4743
Rp4744
ag1
(g5
S':\x9a6<'
p4745
tp4746
Rp4747
ag1
(g5
S'V\x82@<'
p4748
tp4749
Rp4750
ag1
(g5
S'\x0b"?<'
p4751
tp4752
Rp4753
ag1
(g5
S'\xb1\x98A<'
p4754
tp4755
Rp4756
ag1
(g5
S'\xc9\x8a%<'
p4757
tp4758
Rp4759
ag1
(g5
S'\x96 \x15<'
p4760
tp4761
Rp4762
ag1
(g5
S'\xe5l,<'
p4763
tp4764
Rp4765
ag1
(g5
S'wy$<'
p4766
tp4767
Rp4768
ag1
(g5
S'\xcf\xd2N<'
p4769
tp4770
Rp4771
ag1
(g5
S'\xe1\x0f%<'
p4772
tp4773
Rp4774
ag1
(g5
S"\x81\x87'<"
p4775
tp4776
Rp4777
ag1
(g5
S'R\xa01<'
p4778
tp4779
Rp4780
ag1
(g5
S'\x8a\xabC<'
p4781
tp4782
Rp4783
ag1
(g5
S'\x99;:<'
p4784
tp4785
Rp4786
ag1
(g5
S'i\xc6;<'
p4787
tp4788
Rp4789
ag1
(g5
S'7\xd8&<'
p4790
tp4791
Rp4792
ag1
(g5
S'\x92\xb8B<'
p4793
tp4794
Rp4795
ag1
(g5
S'\x8d\xff3<'
p4796
tp4797
Rp4798
ag1
(g5
S'\r\x1f1<'
p4799
tp4800
Rp4801
ag1
(g5
S'\xb6\xed+<'
p4802
tp4803
Rp4804
ag1
(g5
S'xL=<'
p4805
tp4806
Rp4807
ag1
(g5
S'A\xdbK<'
p4808
tp4809
Rp4810
ag1
(g5
S'\xff\x82"<'
p4811
tp4812
Rp4813
ag1
(g5
S'\xd1\xfd9<'
p4814
tp4815
Rp4816
ag1
(g5
S'z\xec4<'
p4817
tp4818
Rp4819
ag1
(g5
S';\x83-<'
p4820
tp4821
Rp4822
ag1
(g5
S"\x1c\xec'<"
p4823
tp4824
Rp4825
ag1
(g5
S'*\xc0@<'
p4826
tp4827
Rp4828
ag1
(g5
S'\xd3~.<'
p4829
tp4830
Rp4831
ag1
(g5
S'\xe8)\x1e<'
p4832
tp4833
Rp4834
ag1
(g5
S'\x1c\xe8\x19<'
p4835
tp4836
Rp4837
ag1
(g5
S'\x99\xae\x19<'
p4838
tp4839
Rp4840
ag1
(g5
S'X$;<'
p4841
tp4842
Rp4843
ag1
(g5
S'\x17\xb51<'
p4844
tp4845
Rp4846
ag1
(g5
S'\xfb )<'
p4847
tp4848
Rp4849
ag1
(g5
S'\xa17@<'
p4850
tp4851
Rp4852
ag1
(g5
S'\xe4\\\x16<'
p4853
tp4854
Rp4855
ag1
(g5
S'\x94\xd20<'
p4856
tp4857
Rp4858
ag1
(g5
S'\xf0\nC<'
p4859
tp4860
Rp4861
ag1
(g5
S'!OI<'
p4862
tp4863
Rp4864
ag1
(g5
S'\x05\xc95<'
p4865
tp4866
Rp4867
ag1
(g5
S'\xf86&<'
p4868
tp4869
Rp4870
ag1
(g5
S'\x8c\xa7\x0e<'
p4871
tp4872
Rp4873
ag1
(g5
S'\xd9\x8f+<'
p4874
tp4875
Rp4876
ag1
(g5
S"\xc6\xcb'<"
p4877
tp4878
Rp4879
ag1
(g5
S'h\x8d,<'
p4880
tp4881
Rp4882
ag1
(g5
S'\xcc\xea:<'
p4883
tp4884
Rp4885
ag1
(g5
S's\xcb!<'
p4886
tp4887
Rp4888
ag1
(g5
S'@\xa7$<'
p4889
tp4890
Rp4891
ag1
(g5
S'\xbcM;<'
p4892
tp4893
Rp4894
ag1
(g5
S'\x85i7<'
p4895
tp4896
Rp4897
ag1
(g5
S'\xab\xa6\x15<'
p4898
tp4899
Rp4900
ag1
(g5
S'\xc5\xaf%<'
p4901
tp4902
Rp4903
ag1
(g5
S'\x91\xba\x1c<'
p4904
tp4905
Rp4906
ag1
(g5
S'}^9<'
p4907
tp4908
Rp4909
ag1
(g5
S'\xc9N <'
p4910
tp4911
Rp4912
ag1
(g5
S'\xa1\xb9=<'
p4913
tp4914
Rp4915
ag1
(g5
S'\xc5\x12*<'
p4916
tp4917
Rp4918
ag1
(g5
S'<\xa53<'
p4919
tp4920
Rp4921
ag1
(g5
S'\xa5B)<'
p4922
tp4923
Rp4924
ag1
(g5
S'z=-<'
p4925
tp4926
Rp4927
ag1
(g5
S']\x08&<'
p4928
tp4929
Rp4930
ag1
(g5
S'\x90?B<'
p4931
tp4932
Rp4933
ag1
(g5
S'L>4<'
p4934
tp4935
Rp4936
ag1
(g5
S'\xe8w)<'
p4937
tp4938
Rp4939
ag1
(g5
S'\xeb/6<'
p4940
tp4941
Rp4942
ag1
(g5
S'i\r\x1f<'
p4943
tp4944
Rp4945
ag1
(g5
S'V\xbe!<'
p4946
tp4947
Rp4948
ag1
(g5
S'\xd7\xfe&<'
p4949
tp4950
Rp4951
ag1
(g5
S'\xd1J1<'
p4952
tp4953
Rp4954
ag1
(g5
S'L\x0b\x1d<'
p4955
tp4956
Rp4957
ag1
(g5
S'(:,<'
p4958
tp4959
Rp4960
ag1
(g5
S'VG"<'
p4961
tp4962
Rp4963
ag1
(g5
S"\x02~'<"
p4964
tp4965
Rp4966
ag1
(g5
S'\xe9)*<'
p4967
tp4968
Rp4969
ag1
(g5
S'\x1c{(<'
p4970
tp4971
Rp4972
ag1
(g5
S'\x86\x9c2<'
p4973
tp4974
Rp4975
ag1
(g5
S'u\x16J<'
p4976
tp4977
Rp4978
ag1
(g5
S'\xe6\xe8*<'
p4979
tp4980
Rp4981
ag1
(g5
S"^#'<"
p4982
tp4983
Rp4984
ag1
(g5
S'\xa6h-<'
p4985
tp4986
Rp4987
ag1
(g5
S'\x85\xce"<'
p4988
tp4989
Rp4990
ag1
(g5
S'GW2<'
p4991
tp4992
Rp4993
ag1
(g5
S'\xb1t#<'
p4994
tp4995
Rp4996
ag1
(g5
S'LF><'
p4997
tp4998
Rp4999
ag1
(g5
S'\\R.<'
p5000
tp5001
Rp5002
ag1
(g5
S'n\xcf.<'
p5003
tp5004
Rp5005
ag1
(g5
S'\xf3\xc9\x1d<'
p5006
tp5007
Rp5008
ag1
(g5
S'=\xb5E<'
p5009
tp5010
Rp5011
ag1
(g5
S'$\x1e\x1a<'
p5012
tp5013
Rp5014
ag1
(g5
S'L\xe8\x1d<'
p5015
tp5016
Rp5017
ag1
(g5
S'\x15\xe0.<'
p5018
tp5019
Rp5020
ag1
(g5
S'\x01r <'
p5021
tp5022
Rp5023
ag1
(g5
S'\xef\xca;<'
p5024
tp5025
Rp5026
ag1
(g5
S'HV#<'
p5027
tp5028
Rp5029
ag1
(g5
S'\xf9\xd3.<'
p5030
tp5031
Rp5032
ag1
(g5
S'xX2<'
p5033
tp5034
Rp5035
ag1
(g5
S'\x84n\x1f<'
p5036
tp5037
Rp5038
ag1
(g5
S'\xba\xb8,<'
p5039
tp5040
Rp5041
ag1
(g5
S'\xber,<'
p5042
tp5043
Rp5044
ag1
(g5
S'\xe5\x18\x19<'
p5045
tp5046
Rp5047
ag1
(g5
S'E\x1b\x0e<'
p5048
tp5049
Rp5050
ag1
(g5
S'\xfd\x95(<'
p5051
tp5052
Rp5053
ag1
(g5
S'\x16Q8<'
p5054
tp5055
Rp5056
ag1
(g5
S'\x97\xa3*<'
p5057
tp5058
Rp5059
ag1
(g5
S'\xcd\xbc0<'
p5060
tp5061
Rp5062
ag1
(g5
S'f\xf7\x10<'
p5063
tp5064
Rp5065
ag1
(g5
S'\r\xa2\x17<'
p5066
tp5067
Rp5068
ag1
(g5
S'\xff\x92;<'
p5069
tp5070
Rp5071
ag1
(g5
S'\x9e\xfc*<'
p5072
tp5073
Rp5074
ag1
(g5
S'\x9d\x86=<'
p5075
tp5076
Rp5077
ag1
(g5
S'\xa0\x14!<'
p5078
tp5079
Rp5080
ag1
(g5
S'\x84\xdf\x14<'
p5081
tp5082
Rp5083
ag1
(g5
S'p\xad\x12<'
p5084
tp5085
Rp5086
ag1
(g5
S"\xb1'8<"
p5087
tp5088
Rp5089
ag1
(g5
S'\xf4\xd3(<'
p5090
tp5091
Rp5092
ag1
(g5
S'\xd5\xf9.<'
p5093
tp5094
Rp5095
ag1
(g5
S'\x8c\xf20<'
p5096
tp5097
Rp5098
ag1
(g5
S'Q{8<'
p5099
tp5100
Rp5101
ag1
(g5
S'E\xce\x1a<'
p5102
tp5103
Rp5104
ag1
(g5
S'L\xe6:<'
p5105
tp5106
Rp5107
ag1
(g5
S'\xca{#<'
p5108
tp5109
Rp5110
ag1
(g5
S'\x83\x02+<'
p5111
tp5112
Rp5113
ag1
(g5
S'\xbd\x1e\x0f<'
p5114
tp5115
Rp5116
ag1
(g5
S'\xc6\xd16<'
p5117
tp5118
Rp5119
ag1
(g5
S'\x1e\xff2<'
p5120
tp5121
Rp5122
ag1
(g5
S'\x0e=@<'
p5123
tp5124
Rp5125
ag1
(g5
S'JB;<'
p5126
tp5127
Rp5128
ag1
(g5
S'\xdc\x8a?<'
p5129
tp5130
Rp5131
ag1
(g5
S'z\x83"<'
p5132
tp5133
Rp5134
ag1
(g5
S'\x993\x14<'
p5135
tp5136
Rp5137
ag1
(g5
S'\xc1\xb2+<'
p5138
tp5139
Rp5140
ag1
(g5
S'G\xe1 <'
p5141
tp5142
Rp5143
ag1
(g5
S'\xe7\xcaQ<'
p5144
tp5145
Rp5146
ag1
(g5
S'\x1a\x81"<'
p5147
tp5148
Rp5149
ag1
(g5
S'F\xc1)<'
p5150
tp5151
Rp5152
ag1
(g5
S'\x98{1<'
p5153
tp5154
Rp5155
ag1
(g5
S'\xed\xe4@<'
p5156
tp5157
Rp5158
ag1
(g5
S'\x02u9<'
p5159
tp5160
Rp5161
ag1
(g5
S'\x02\xd46<'
p5162
tp5163
Rp5164
ag1
(g5
S'\xdf!#<'
p5165
tp5166
Rp5167
ag1
(g5
S'\xe9\xd7@<'
p5168
tp5169
Rp5170
ag1
(g5
S'6\x044<'
p5171
tp5172
Rp5173
ag1
(g5
S'\xc2\xb8-<'
p5174
tp5175
Rp5176
ag1
(g5
S'\x9b\x8c%<'
p5177
tp5178
Rp5179
ag1
(g5
S'}\x05D<'
p5180
tp5181
Rp5182
ag1
(g5
S'P\xdaH<'
p5183
tp5184
Rp5185
ag1
(g5
S' \xa7"<'
p5186
tp5187
Rp5188
ag1
(g5
S'r?2<'
p5189
tp5190
Rp5191
ag1
(g5
S'z\x0e4<'
p5192
tp5193
Rp5194
ag1
(g5
S'\xfaY+<'
p5195
tp5196
Rp5197
ag1
(g5
S'c\xd0%<'
p5198
tp5199
Rp5200
ag1
(g5
S'\x07\x86=<'
p5201
tp5202
Rp5203
ag1
(g5
S'\x90,,<'
p5204
tp5205
Rp5206
ag1
(g5
S'\x04K\x1b<'
p5207
tp5208
Rp5209
ag1
(g5
S'\x1fS\x19<'
p5210
tp5211
Rp5212
ag1
(g5
S'hM\x17<'
p5213
tp5214
Rp5215
ag1
(g5
S'sN8<'
p5216
tp5217
Rp5218
ag1
(g5
S'6z1<'
p5219
tp5220
Rp5221
ag1
(g5
S'\xcd\xac*<'
p5222
tp5223
Rp5224
ag1
(g5
S'\xc9\xe6><'
p5225
tp5226
Rp5227
ag1
(g5
S'\xb2"\x13<'
p5228
tp5229
Rp5230
ag1
(g5
S'7\xee-<'
p5231
tp5232
Rp5233
ag1
(g5
S'\x0e\x90B<'
p5234
tp5235
Rp5236
ag1
(g5
S'\x0f\x82E<'
p5237
tp5238
Rp5239
ag1
(g5
S'a\x863<'
p5240
tp5241
Rp5242
ag1
(g5
S'0\xe0&<'
p5243
tp5244
Rp5245
ag1
(g5
S'j\xbf\x0e<'
p5246
tp5247
Rp5248
ag1
(g5
S'Q\x81)<'
p5249
tp5250
Rp5251
ag1
(g5
S'O\xdb <'
p5252
tp5253
Rp5254
ag1
(g5
S'\xf6\x00)<'
p5255
tp5256
Rp5257
ag1
(g5
S'\xbb\x1e=<'
p5258
tp5259
Rp5260
ag1
(g5
S'\xf7\xf1#<'
p5261
tp5262
Rp5263
ag1
(g5
S'\x0e\xb3$<'
p5264
tp5265
Rp5266
ag1
(g5
S'M\\:<'
p5267
tp5268
Rp5269
ag1
(g5
S'\x8c\xdb2<'
p5270
tp5271
Rp5272
ag1
(g5
S'\xa6\x85\x14<'
p5273
tp5274
Rp5275
ag1
(g5
S'Hn!<'
p5276
tp5277
Rp5278
ag1
(g5
S'\xc9{\x1f<'
p5279
tp5280
Rp5281
ag1
(g5
S'\xff\xb08<'
p5282
tp5283
Rp5284
ag1
(g5
S"'\x1f\x1f<"
p5285
tp5286
Rp5287
ag1
(g5
S'\xee\xee=<'
p5288
tp5289
Rp5290
ag1
(g5
S'\xa4])<'
p5291
tp5292
Rp5293
ag1
(g5
S'\xb0\x821<'
p5294
tp5295
Rp5296
ag1
(g5
S'f=(<'
p5297
tp5298
Rp5299
ag1
(g5
S'm9,<'
p5300
tp5301
Rp5302
ag1
(g5
S'\x19\xaa$<'
p5303
tp5304
Rp5305
ag1
(g5
S'\x88OB<'
p5306
tp5307
Rp5308
ag1
(g5
S'\x8c\x1a3<'
p5309
tp5310
Rp5311
ag1
(g5
S'2\x15(<'
p5312
tp5313
Rp5314
ag1
(g5
S'\xa7\xd34<'
p5315
tp5316
Rp5317
ag1
(g5
S'KR\x1c<'
p5318
tp5319
Rp5320
ag1
(g5
S'\xe7$#<'
p5321
tp5322
Rp5323
ag1
(g5
S"E>'<"
p5324
tp5325
Rp5326
ag1
(g5
S'\xf9\xa21<'
p5327
tp5328
Rp5329
ag1
(g5
S'\xb0x\x1d<'
p5330
tp5331
Rp5332
ag1
(g5
S';T,<'
p5333
tp5334
Rp5335
ag1
(g5
S'A\x0b\x1f<'
p5336
tp5337
Rp5338
ag1
(g5
S'\x0e\x94%<'
p5339
tp5340
Rp5341
ag1
(g5
S'\xed\xb8#<'
p5342
tp5343
Rp5344
ag1
(g5
S'Lq&<'
p5345
tp5346
Rp5347
ag1
(g5
S'\xbc\x95,<'
p5348
tp5349
Rp5350
ag1
(g5
S"'\xe0H<"
p5351
tp5352
Rp5353
ag1
(g5
S'\xaf\xbd)<'
p5354
tp5355
Rp5356
ag1
(g5
S'\xc4\xb4#<'
p5357
tp5358
Rp5359
ag1
(g5
S'\xa0R.<'
p5360
tp5361
Rp5362
ag1
(g5
S'_\x96"<'
p5363
tp5364
Rp5365
ag1
(g5
S'\xee\xce-<'
p5366
tp5367
Rp5368
ag1
(g5
S':p <'
p5369
tp5370
Rp5371
ag1
(g5
S'\xea\xca=<'
p5372
tp5373
Rp5374
ag1
(g5
S'\x99\xa2(<'
p5375
tp5376
Rp5377
ag1
(g5
S'_\xb9+<'
p5378
tp5379
Rp5380
ag1
(g5
S'g\xe1\x19<'
p5381
tp5382
Rp5383
ag1
(g5
S'n\x05><'
p5384
tp5385
Rp5386
ag1
(g5
S'\xbdK\x18<'
p5387
tp5388
Rp5389
ag1
(g5
S'\x0f{\x16<'
p5390
tp5391
Rp5392
ag1
(g5
S'\xb4\xad*<'
p5393
tp5394
Rp5395
ag1
(g5
S'p\x98!<'
p5396
tp5397
Rp5398
ag1
(g5
S'&\xa38<'
p5399
tp5400
Rp5401
ag1
(g5
S'L\xe3#<'
p5402
tp5403
Rp5404
ag1
(g5
S'\xea\xac,<'
p5405
tp5406
Rp5407
ag1
(g5
S'V\xf43<'
p5408
tp5409
Rp5410
ag1
(g5
S'\x97d\x1e<'
p5411
tp5412
Rp5413
ag1
(g5
S'\xb9\xe4-<'
p5414
tp5415
Rp5416
ag1
(g5
S'\x97f)<'
p5417
tp5418
Rp5419
ag1
(g5
S'\xf8X\x1c<'
p5420
tp5421
Rp5422
ag1
(g5
S'O\xd6\n<'
p5423
tp5424
Rp5425
ag1
(g5
S'\x80\xeb%<'
p5426
tp5427
Rp5428
ag1
(g5
S'\x18\xc50<'
p5429
tp5430
Rp5431
ag1
(g5
S'\xfb\xdb*<'
p5432
tp5433
Rp5434
ag1
(g5
S'*\x97,<'
p5435
tp5436
Rp5437
ag1
(g5
S'^\xaa\x0f<'
p5438
tp5439
Rp5440
ag1
(g5
S'_\xf0\x18<'
p5441
tp5442
Rp5443
ag1
(g5
S'eR;<'
p5444
tp5445
Rp5446
ag1
(g5
S'\x92i)<'
p5447
tp5448
Rp5449
ag1
(g5
S'MX9<'
p5450
tp5451
Rp5452
ag1
(g5
S'\xf4\xe8\x1d<'
p5453
tp5454
Rp5455
ag1
(g5
S'\xcb\xee\x13<'
p5456
tp5457
Rp5458
ag1
(g5
S'07\x11<'
p5459
tp5460
Rp5461
ag1
(g5
S'\x13,5<'
p5462
tp5463
Rp5464
ag1
(g5
S'\xf4\xce*<'
p5465
tp5466
Rp5467
ag1
(g5
S'\x0c\x84,<'
p5468
tp5469
Rp5470
ag1
(g5
S'qR/<'
p5471
tp5472
Rp5473
ag1
(g5
S'\x92J9<'
p5474
tp5475
Rp5476
ag1
(g5
S'&\x14\x16<'
p5477
tp5478
Rp5479
ag1
(g5
S'\xb14:<'
p5480
tp5481
Rp5482
ag1
(g5
S'\x94-!<'
p5483
tp5484
Rp5485
ag1
(g5
S'\x94\xc7&<'
p5486
tp5487
Rp5488
ag1
(g5
S'r/\x0f<'
p5489
tp5490
Rp5491
ag1
(g5
S"'f3<"
p5492
tp5493
Rp5494
ag1
(g5
S'?\xb70<'
p5495
tp5496
Rp5497
ag1
(g5
S'Z\xc6?<'
p5498
tp5499
Rp5500
ag1
(g5
S'\xf9?9<'
p5501
tp5502
Rp5503
ag1
(g5
S'\xc1\xd7<<'
p5504
tp5505
Rp5506
ag1
(g5
S'\xc5\xfc"<'
p5507
tp5508
Rp5509
ag1
(g5
S'\xcaM\x15<'
p5510
tp5511
Rp5512
ag1
(g5
S'\xa3N*<'
p5513
tp5514
Rp5515
ag1
(g5
S'z\xeb <'
p5516
tp5517
Rp5518
ag1
(g5
S'\x88MN<'
p5519
tp5520
Rp5521
ag1
(g5
S'_\xf1\x1f<'
p5522
tp5523
Rp5524
ag1
(g5
S'\x0fa(<'
p5525
tp5526
Rp5527
ag1
(g5
S'\xc2s0<'
p5528
tp5529
Rp5530
ag1
(g5
S'A\xa5<<'
p5531
tp5532
Rp5533
ag1
(g5
S'1\xe97<'
p5534
tp5535
Rp5536
ag1
(g5
S'iE1<'
p5537
tp5538
Rp5539
ag1
(g5
S'\xd8\\#<'
p5540
tp5541
Rp5542
ag1
(g5
S'\xc0\xc9=<'
p5543
tp5544
Rp5545
ag1
(g5
S'\xecD5<'
p5546
tp5547
Rp5548
ag1
(g5
S'\x14\x96)<'
p5549
tp5550
Rp5551
ag1
(g5
S'\x7f\xf3&<'
p5552
tp5553
Rp5554
ag1
(g5
S':k9<'
p5555
tp5556
Rp5557
ag1
(g5
S'\xeb\xf3I<'
p5558
tp5559
Rp5560
ag1
(g5
S'\xeaU\x1d<'
p5561
tp5562
Rp5563
ag1
(g5
S'zd0<'
p5564
tp5565
Rp5566
ag1
(g5
S'N\xb22<'
p5567
tp5568
Rp5569
ag1
(g5
S'\xe1\xbd+<'
p5570
tp5571
Rp5572
ag1
(g5
S'\x9fz$<'
p5573
tp5574
Rp5575
ag1
(g5
S'Z*?<'
p5576
tp5577
Rp5578
ag1
(g5
S'\xf3L*<'
p5579
tp5580
Rp5581
ag1
(g5
S' (\x1d<'
p5582
tp5583
Rp5584
ag1
(g5
S'.\x8a\x16<'
p5585
tp5586
Rp5587
ag1
(g5
S'\xa3\xa9\x15<'
p5588
tp5589
Rp5590
ag1
(g5
S'\xce\x985<'
p5591
tp5592
Rp5593
ag1
(g5
S'\x857-<'
p5594
tp5595
Rp5596
ag1
(g5
S'\x8d\xc8$<'
p5597
tp5598
Rp5599
ag1
(g5
S"'\xc2C<"
p5600
tp5601
Rp5602
ag1
(g5
S'\xaf\xb6\x13<'
p5603
tp5604
Rp5605
ag1
(g5
S'\xbbW,<'
p5606
tp5607
Rp5608
ag1
(g5
S';\x9dA<'
p5609
tp5610
Rp5611
ag1
(g5
S'6\x87@<'
p5612
tp5613
Rp5614
ag1
(g5
S'\x00\x8d1<'
p5615
tp5616
Rp5617
ag1
(g5
S'({%<'
p5618
tp5619
Rp5620
ag1
(g5
S'\xa4\xca\n<'
p5621
tp5622
Rp5623
ag1
(g5
S'C1)<'
p5624
tp5625
Rp5626
ag1
(g5
S'\x01\xe5 <'
p5627
tp5628
Rp5629
ag1
(g5
S'\xa8P&<'
p5630
tp5631
Rp5632
ag1
(g5
S'\x02 ;<'
p5633
tp5634
Rp5635
ag1
(g5
S'\xbc\xe4 <'
p5636
tp5637
Rp5638
ag1
(g5
S'\xbcW!<'
p5639
tp5640
Rp5641
ag1
(g5
S'\xeaB6<'
p5642
tp5643
Rp5644
ag1
(g5
S'\xb3\xb32<'
p5645
tp5646
Rp5647
ag1
(g5
S'JP\x11<'
p5648
tp5649
Rp5650
ag1
(g5
S'\xf78"<'
p5651
tp5652
Rp5653
ag1
(g5
S'\xda&\x1b<'
p5654
tp5655
Rp5656
ag1
(g5
S'm\xec6<'
p5657
tp5658
Rp5659
ag1
(g5
S'\x98\xda\x1a<'
p5660
tp5661
Rp5662
ag1
(g5
S'U\xf8:<'
p5663
tp5664
Rp5665
ag1
(g5
S'\xca\x08+<'
p5666
tp5667
Rp5668
ag1
(g5
S'!\xeb/<'
p5669
tp5670
Rp5671
ag1
(g5
S'\x03E%<'
p5672
tp5673
Rp5674
ag1
(g5
S'\xd6X)<'
p5675
tp5676
Rp5677
ag1
(g5
S'\x8fr!<'
p5678
tp5679
Rp5680
ag1
(g5
S'\xeb\xc6A<'
p5681
tp5682
Rp5683
ag1
(g5
S']\x1f1<'
p5684
tp5685
Rp5686
ag1
(g5
S'H/$<'
p5687
tp5688
Rp5689
ag1
(g5
S'BL:<'
p5690
tp5691
Rp5692
ag1
(g5
S'y\x03\x1a<'
p5693
tp5694
Rp5695
ag1
(g5
S'5\x9b <'
p5696
tp5697
Rp5698
ag1
(g5
S'\x99\xc4(<'
p5699
tp5700
Rp5701
ag1
(g5
S'\xf5\xe5-<'
p5702
tp5703
Rp5704
ag1
(g5
S'\x9b\x1e\x18<'
p5705
tp5706
Rp5707
ag1
(g5
S'\xb1\x7f-<'
p5708
tp5709
Rp5710
ag1
(g5
S'\x92\xce\x1e<'
p5711
tp5712
Rp5713
ag1
(g5
S'bD#<'
p5714
tp5715
Rp5716
ag1
(g5
S'\x8cD!<'
p5717
tp5718
Rp5719
ag1
(g5
S'\\X%<'
p5720
tp5721
Rp5722
ag1
(g5
S'h\xda(<'
p5723
tp5724
Rp5725
ag1
(g5
S'\xd9\xddF<'
p5726
tp5727
Rp5728
ag1
(g5
S'C\x94(<'
p5729
tp5730
Rp5731
ag1
(g5
S'\xa4)(<'
p5732
tp5733
Rp5734
ag1
(g5
S')b(<'
p5735
tp5736
Rp5737
ag1
(g5
S'\x152\x1f<'
p5738
tp5739
Rp5740
ag1
(g5
S'm.,<'
p5741
tp5742
Rp5743
ag1
(g5
S'\x11\xc9\x1c<'
p5744
tp5745
Rp5746
ag1
(g5
S']\xcb;<'
p5747
tp5748
Rp5749
ag1
(g5
S'.$$<'
p5750
tp5751
Rp5752
ag1
(g5
S'i\xb3+<'
p5753
tp5754
Rp5755
ag1
(g5
S'\x07\x9c\x1a<'
p5756
tp5757
Rp5758
ag1
(g5
S'\x0fx><'
p5759
tp5760
Rp5761
ag1
(g5
S'\x91\x0e\x16<'
p5762
tp5763
Rp5764
ag1
(g5
S'H\\\x14<'
p5765
tp5766
Rp5767
ag1
(g5
S'\xd4\xb0-<'
p5768
tp5769
Rp5770
ag1
(g5
S'D\xcb\x1c<'
p5771
tp5772
Rp5773
ag1
(g5
S'\x99\xeb6<'
p5774
tp5775
Rp5776
ag1
(g5
S'\xe2\x01!<'
p5777
tp5778
Rp5779
ag1
(g5
S'\x93\x82+<'
p5780
tp5781
Rp5782
ag1
(g5
S'\xed"/<'
p5783
tp5784
Rp5785
ag1
(g5
S'T\xb0\x1c<'
p5786
tp5787
Rp5788
ag1
(g5
S'\xb8\xd3(<'
p5789
tp5790
Rp5791
ag1
(g5
S'\xe35*<'
p5792
tp5793
Rp5794
ag1
(g5
S'@f\x18<'
p5795
tp5796
Rp5797
ag1
(g5
S'\x16\xbe\n<'
p5798
tp5799
Rp5800
ag1
(g5
S'\xe7\x9c$<'
p5801
tp5802
Rp5803
ag1
(g5
S'\xd2\xba/<'
p5804
tp5805
Rp5806
ag1
(g5
S'\t&(<'
p5807
tp5808
Rp5809
ag1
(g5
S'\x02\xc3-<'
p5810
tp5811
Rp5812
ag1
(g5
S'\xed\x1b\x0f<'
p5813
tp5814
Rp5815
ag1
(g5
S'>\x0e\x14<'
p5816
tp5817
Rp5818
ag1
(g5
S'\x1b\xdc5<'
p5819
tp5820
Rp5821
ag1
(g5
S'U\xa7%<'
p5822
tp5823
Rp5824
ag1
(g5
S'\xd6g9<'
p5825
tp5826
Rp5827
ag1
(g5
S'\xdf\x03\x1d<'
p5828
tp5829
Rp5830
ag1
(g5
S'\xbd\x1d\x0f<'
p5831
tp5832
Rp5833
ag1
(g5
S'\xaf\x93\x0f<'
p5834
tp5835
Rp5836
ag1
(g5
S'\xa8\x184<'
p5837
tp5838
Rp5839
ag1
(g5
S'"H(<'
p5840
tp5841
Rp5842
ag1
(g5
S'\xe2\xcc+<'
p5843
tp5844
Rp5845
ag1
(g5
S'H\xb60<'
p5846
tp5847
Rp5848
ag1
(g5
S'\x04\xbd4<'
p5849
tp5850
Rp5851
ag1
(g5
S'\x13\xe8\x15<'
p5852
tp5853
Rp5854
ag1
(g5
S'\xe3\xd47<'
p5855
tp5856
Rp5857
ag1
(g5
S'\xf2I$<'
p5858
tp5859
Rp5860
ag1
(g5
S'T\xc0(<'
p5861
tp5862
Rp5863
ag1
(g5
S'q\xc8\r<'
p5864
tp5865
Rp5866
ag1
(g5
S'|\xf75<'
p5867
tp5868
Rp5869
ag1
(g5
S'\x84w/<'
p5870
tp5871
Rp5872
ag1
(g5
S'\xb5\xcc:<'
p5873
tp5874
Rp5875
ag1
(g5
S'E\xd6:<'
p5876
tp5877
Rp5878
ag1
(g5
S'\xca<<<'
p5879
tp5880
Rp5881
ag1
(g5
S'\xcc\xa6&<'
p5882
tp5883
Rp5884
ag1
(g5
S'G\x81\x14<'
p5885
tp5886
Rp5887
ag1
(g5
S'T\xe1)<'
p5888
tp5889
Rp5890
ag1
(g5
S'\xd8\xcd\x1e<'
p5891
tp5892
Rp5893
ag1
(g5
S'\x81,N<'
p5894
tp5895
Rp5896
ag1
(g5
S'tC\x1e<'
p5897
tp5898
Rp5899
ag1
(g5
S'\xea\x15 <'
p5900
tp5901
Rp5902
ag1
(g5
S'P\x7f+<'
p5903
tp5904
Rp5905
ag1
(g5
S'\xef\\7<'
p5906
tp5907
Rp5908
ag1
(g5
S'g\x912<'
p5909
tp5910
Rp5911
ag1
(g5
S'j~2<'
p5912
tp5913
Rp5914
ag1
(g5
S'"-$<'
p5915
tp5916
Rp5917
ag1
(g5
S'\xd3_<<'
p5918
tp5919
Rp5920
ag1
(g5
S'QV1<'
p5921
tp5922
Rp5923
ag1
(g5
S"\xf3\xd5'<"
p5924
tp5925
Rp5926
ag1
(g5
S'\xfa5"<'
p5927
tp5928
Rp5929
ag1
(g5
S'r68<'
p5930
tp5931
Rp5932
ag1
(g5
S'\xe1.H<'
p5933
tp5934
Rp5935
ag1
(g5
S'\x19\x1f\x1c<'
p5936
tp5937
Rp5938
ag1
(g5
S'\x07\xf0/<'
p5939
tp5940
Rp5941
ag1
(g5
S'\xaf\xa3,<'
p5942
tp5943
Rp5944
ag1
(g5
S'\x7f7(<'
p5945
tp5946
Rp5947
ag1
(g5
S'\x1dv"<'
p5948
tp5949
Rp5950
ag1
(g5
S'\xcd\xcc9<'
p5951
tp5952
Rp5953
ag1
(g5
S"\xab\xc2'<"
p5954
tp5955
Rp5956
ag1
(g5
S'\x08A\x17<'
p5957
tp5958
Rp5959
ag1
(g5
S'\xbcp\x13<'
p5960
tp5961
Rp5962
ag1
(g5
S'\xe0+\x13<'
p5963
tp5964
Rp5965
ag1
(g5
S')\xf06<'
p5966
tp5967
Rp5968
ag1
(g5
S'\x0b\xb7,<'
p5969
tp5970
Rp5971
ag1
(g5
S'\x90*$<'
p5972
tp5973
Rp5974
ag1
(g5
S'=\xc7;<'
p5975
tp5976
Rp5977
ag1
(g5
S'Q\xd1\x0f<'
p5978
tp5979
Rp5980
ag1
(g5
S'x\x91)<'
p5981
tp5982
Rp5983
ag1
(g5
S'\xd3m><'
p5984
tp5985
Rp5986
ag1
(g5
S"g'@<"
p5987
tp5988
Rp5989
ag1
(g5
S'>\x150<'
p5990
tp5991
Rp5992
ag1
(g5
S'\xc9\xf2!<'
p5993
tp5994
Rp5995
ag1
(g5
S'\xc5\xae\x0b<'
p5996
tp5997
Rp5998
ag1
(g5
S'+\xb1(<'
p5999
tp6000
Rp6001
ag1
(g5
S'\xb75\x1d<'
p6002
tp6003
Rp6004
ag1
(g5
S'\x1d`&<'
p6005
tp6006
Rp6007
ag1
(g5
S'K\x1a><'
p6008
tp6009
Rp6010
ag1
(g5
S'1$"<'
p6011
tp6012
Rp6013
ag1
(g5
S'\xf1H <'
p6014
tp6015
Rp6016
ag1
(g5
S'\x94\xc14<'
p6017
tp6018
Rp6019
ag1
(g5
S'\xc2g/<'
p6020
tp6021
Rp6022
ag1
(g5
S'\x03\xdf\x0f<'
p6023
tp6024
Rp6025
ag1
(g5
S'm2!<'
p6026
tp6027
Rp6028
ag1
(g5
S'\x96o <'
p6029
tp6030
Rp6031
ag1
(g5
S'Fs3<'
p6032
tp6033
Rp6034
ag1
(g5
S'\x05q\x1c<'
p6035
tp6036
Rp6037
ag1
(g5
S'\xb2%8<'
p6038
tp6039
Rp6040
ag1
(g5
S'\xb5~$<'
p6041
tp6042
Rp6043
ag1
(g5
S'l\xae.<'
p6044
tp6045
Rp6046
ag1
(g5
S'\x8bg!<'
p6047
tp6048
Rp6049
ag1
(g5
S">\xe1'<"
p6050
tp6051
Rp6052
ag1
(g5
S'T"\x1f<'
p6053
tp6054
Rp6055
ag1
(g5
S'\xec\x9dA<'
p6056
tp6057
Rp6058
ag1
(g5
S'SA1<'
p6059
tp6060
Rp6061
ag1
(g5
S'\xa9s$<'
p6062
tp6063
Rp6064
ag1
(g5
S'+\x107<'
p6065
tp6066
Rp6067
ag1
(g5
S'\x10\xba\x15<'
p6068
tp6069
Rp6070
ag1
(g5
S'\x8b\xc1\x1d<'
p6071
tp6072
Rp6073
ag1
(g5
S'\xb6\x98#<'
p6074
tp6075
Rp6076
ag1
(g5
S'\x0670<'
p6077
tp6078
Rp6079
ag1
(g5
S'V\xe2\x14<'
p6080
tp6081
Rp6082
ag1
(g5
S'~\xee*<'
p6083
tp6084
Rp6085
ag1
(g5
S't\x99\x1c<'
p6086
tp6087
Rp6088
ag1
(g5
S'\xf4t&<'
p6089
tp6090
Rp6091
ag1
(g5
S'\xbe\xd5"<'
p6092
tp6093
Rp6094
ag1
(g5
S'q-"<'
p6095
tp6096
Rp6097
ag1
(g5
S'D=)<'
p6098
tp6099
Rp6100
ag1
(g5
S'\xa2\xb1B<'
p6101
tp6102
Rp6103
ag1
(g5
S'\xd7\xbe(<'
p6104
tp6105
Rp6106
ag1
(g5
S"\xfa\\'<"
p6107
tp6108
Rp6109
ag1
(g5
S"S\xa0'<"
p6110
tp6111
Rp6112
ag1
(g5
S'\xed\x12\x1f<'
p6113
tp6114
Rp6115
ag1
(g5
S'\x89\x02+<'
p6116
tp6117
Rp6118
ag1
(g5
S'\xbdn\x1d<'
p6119
tp6120
Rp6121
ag1
(g5
S'\xcd}7<'
p6122
tp6123
Rp6124
ag1
(g5
S'\xbe\x07$<'
p6125
tp6126
Rp6127
ag1
(g5
S'h\xd2)<'
p6128
tp6129
Rp6130
ag1
(g5
S'\x9e\x02\x18<'
p6131
tp6132
Rp6133
ag1
(g5
S'1\xb0;<'
p6134
tp6135
Rp6136
ag1
(g5
S'\xd5D\x12<'
p6137
tp6138
Rp6139
ag1
(g5
S"\x1a'\x11<"
p6140
tp6141
Rp6142
ag1
(g5
S'7X*<'
p6143
tp6144
Rp6145
ag1
(g5
S'c\x95\x19<'
p6146
tp6147
Rp6148
ag1
(g5
S'\xa7\x02;<'
p6149
tp6150
Rp6151
ag1
(g5
S'\xa0\x1c <'
p6152
tp6153
Rp6154
ag1
(g5
S'\xe5v/<'
p6155
tp6156
Rp6157
ag1
(g5
S'\x06\xe6/<'
p6158
tp6159
Rp6160
ag1
(g5
S'\x18\xb0\x1c<'
p6161
tp6162
Rp6163
ag1
(g5
S"\x83\x0b'<"
p6164
tp6165
Rp6166
ag1
(g5
S'\xdf\xd2(<'
p6167
tp6168
Rp6169
ag1
(g5
S'\xb5\xd1\x17<'
p6170
tp6171
Rp6172
ag1
(g5
S'\x11+\n<'
p6173
tp6174
Rp6175
ag1
(g5
S'\x01\xcd#<'
p6176
tp6177
Rp6178
ag1
(g5
S'J\xf1,<'
p6179
tp6180
Rp6181
ag1
(g5
S'x\xfe%<'
p6182
tp6183
Rp6184
ag1
(g5
S'qF+<'
p6185
tp6186
Rp6187
ag1
(g5
S'\x0b`\x0b<'
p6188
tp6189
Rp6190
ag1
(g5
S'\xd6\x0b\x13<'
p6191
tp6192
Rp6193
ag1
(g5
S'$K2<'
p6194
tp6195
Rp6196
ag1
(g5
S'\x05\x95$<'
p6197
tp6198
Rp6199
ag1
(g5
S'\xba.9<'
p6200
tp6201
Rp6202
ag1
(g5
S'\xa2:\x1c<'
p6203
tp6204
Rp6205
ag1
(g5
S'\x98\r\x0f<'
p6206
tp6207
Rp6208
ag1
(g5
S'tx\x0e<'
p6209
tp6210
Rp6211
ag1
(g5
S'\x8e\x930<'
p6212
tp6213
Rp6214
ag1
(g5
S'\x17\x04#<'
p6215
tp6216
Rp6217
ag1
(g5
S'G\x12(<'
p6218
tp6219
Rp6220
ag1
(g5
S'\x9e\xe3+<'
p6221
tp6222
Rp6223
ag1
(g5
S'\xfan0<'
p6224
tp6225
Rp6226
ag1
(g5
S'G\xa3\x13<'
p6227
tp6228
Rp6229
ag1
(g5
S'\xb2\xff3<'
p6230
tp6231
Rp6232
ag1
(g5
S'r\xa0\x1d<'
p6233
tp6234
Rp6235
ag1
(g5
S'\xca\xdc"<'
p6236
tp6237
Rp6238
ag1
(g5
S'?E\r<'
p6239
tp6240
Rp6241
ag1
(g5
S'3\x144<'
p6242
tp6243
Rp6244
ag1
(g5
S'\xc3\x06+<'
p6245
tp6246
Rp6247
ag1
(g5
S'\x0bw;<'
p6248
tp6249
Rp6250
ag1
(g5
S'\xb1\x8f2<'
p6251
tp6252
Rp6253
ag1
(g5
S'\x90\xeb6<'
p6254
tp6255
Rp6256
ag1
(g5
S'\x1fs\x1e<'
p6257
tp6258
Rp6259
ag1
(g5
S'\xc9\x90\x13<'
p6260
tp6261
Rp6262
ag1
(g5
S'\x18\xc2%<'
p6263
tp6264
Rp6265
ag1
(g5
S'D\xb6\x1c<'
p6266
tp6267
Rp6268
ag1
(g5
S'(\xd0O<'
p6269
tp6270
Rp6271
ag1
(g5
S'\xcb\x17\x1d<'
p6272
tp6273
Rp6274
ag1
(g5
S'\x05\x1b\x1e<'
p6275
tp6276
Rp6277
ag1
(g5
S'\xf0N*<'
p6278
tp6279
Rp6280
ag1
(g5
S'\xe6\xf79<'
p6281
tp6282
Rp6283
ag1
(g5
S'\xc1*0<'
p6284
tp6285
Rp6286
ag1
(g5
S';W.<'
p6287
tp6288
Rp6289
ag1
(g5
S'\xad\x17\x1e<'
p6290
tp6291
Rp6292
ag1
(g5
S'H\xe5<<'
p6293
tp6294
Rp6295
ag1
(g5
S' \x110<'
p6296
tp6297
Rp6298
ag1
(g5
S'\xf7\x08(<'
p6299
tp6300
Rp6301
ag1
(g5
S'\xffQ"<'
p6302
tp6303
Rp6304
ag1
(g5
S'\xd3\xad5<'
p6305
tp6306
Rp6307
ag1
(g5
S'\xfd2G<'
p6308
tp6309
Rp6310
ag1
(g5
S'\t\xa0\x1c<'
p6311
tp6312
Rp6313
ag1
(g5
S'\xfc\x9c.<'
p6314
tp6315
Rp6316
ag1
(g5
S'\x7f\x0b+<'
p6317
tp6318
Rp6319
ag1
(g5
S'\xc2\x80#<'
p6320
tp6321
Rp6322
ag1
(g5
S'\xa7\xec <'
p6323
tp6324
Rp6325
ag1
(g5
S'\xae\x18;<'
p6326
tp6327
Rp6328
ag1
(g5
S'\x8a\x06(<'
p6329
tp6330
Rp6331
ag1
(g5
S'W0\x17<'
p6332
tp6333
Rp6334
ag1
(g5
S'\xbe$\x13<'
p6335
tp6336
Rp6337
ag1
(g5
S'2p\x15<'
p6338
tp6339
Rp6340
ag1
(g5
S's\x865<'
p6341
tp6342
Rp6343
ag1
(g5
S'\x07N*<'
p6344
tp6345
Rp6346
ag1
(g5
S'\xca7!<'
p6347
tp6348
Rp6349
ag1
(g5
S'.\xb6=<'
p6350
tp6351
Rp6352
ag1
(g5
S'\xdb)\x10<'
p6353
tp6354
Rp6355
ag1
(g5
S'\x8a\xb3&<'
p6356
tp6357
Rp6358
ag1
(g5
S']\xc2<<'
p6359
tp6360
Rp6361
ag1
(g5
S'\x10\xcc=<'
p6362
tp6363
Rp6364
ag1
(g5
S'>\xe95<'
p6365
tp6366
Rp6367
ag1
(g5
S'\x97p$<'
p6368
tp6369
Rp6370
ag1
(g5
S'y\xd9\x08<'
p6371
tp6372
Rp6373
ag1
(g5
S'\xd8\xbd#<'
p6374
tp6375
Rp6376
ag1
(g5
S'\xe0\xdf\x1e<'
p6377
tp6378
Rp6379
ag1
(g5
S"h\x8d'<"
p6380
tp6381
Rp6382
ag1
(g5
S'558<'
p6383
tp6384
Rp6385
ag1
(g5
S'\x18\xdf\x1f<'
p6386
tp6387
Rp6388
ag1
(g5
S'\xf7\x91\x1e<'
p6389
tp6390
Rp6391
ag1
(g5
S'\xbfL5<'
p6392
tp6393
Rp6394
ag1
(g5
S'@\x80.<'
p6395
tp6396
Rp6397
ag1
(g5
S'\xb2\x1a\x12<'
p6398
tp6399
Rp6400
ag1
(g5
S'\xaf\x08\x1e<'
p6401
tp6402
Rp6403
ag1
(g5
S'\xf3T\x1e<'
p6404
tp6405
Rp6406
ag1
(g5
S'\x98\n2<'
p6407
tp6408
Rp6409
ag1
(g5
S'\x1f\xa7\x18<'
p6410
tp6411
Rp6412
ag1
(g5
S'\xba\xc68<'
p6413
tp6414
Rp6415
ag1
(g5
S'\xa6\x87#<'
p6416
tp6417
Rp6418
ag1
(g5
S'\xe4\x15.<'
p6419
tp6420
Rp6421
ag1
(g5
S'\x9d\xf0#<'
p6422
tp6423
Rp6424
ag1
(g5
S'\xb8\x0b*<'
p6425
tp6426
Rp6427
ag1
(g5
S'\xcb\xa8\x1f<'
p6428
tp6429
Rp6430
ag1
(g5
S'x\xaa=<'
p6431
tp6432
Rp6433
ag1
(g5
S'$\x12/<'
p6434
tp6435
Rp6436
ag1
(g5
S'\x19\xb1#<'
p6437
tp6438
Rp6439
ag1
(g5
S'\x9eQ5<'
p6440
tp6441
Rp6442
ag1
(g5
S'\x9f\xdb\x16<'
p6443
tp6444
Rp6445
ag1
(g5
S'\xb9\xd8\x1f<'
p6446
tp6447
Rp6448
ag1
(g5
S'\xc9\xe1#<'
p6449
tp6450
Rp6451
ag1
(g5
S'\x07--<'
p6452
tp6453
Rp6454
ag1
(g5
S'/M\x15<'
p6455
tp6456
Rp6457
ag1
(g5
S'\x9dj+<'
p6458
tp6459
Rp6460
ag1
(g5
S'\x96H\x18<'
p6461
tp6462
Rp6463
ag1
(g5
S'\xf7\x08!<'
p6464
tp6465
Rp6466
ag1
(g5
S'\x08\xa4$<'
p6467
tp6468
Rp6469
ag1
(g5
S'\xff\xce\x1f<'
p6470
tp6471
Rp6472
ag1
(g5
S"\x1b\x92'<"
p6473
tp6474
Rp6475
ag1
(g5
S'\xcc>E<'
p6476
tp6477
Rp6478
ag1
(g5
S'Pj$<'
p6479
tp6480
Rp6481
ag1
(g5
S'c\x06%<'
p6482
tp6483
Rp6484
ag1
(g5
S"\x1c\x87'<"
p6485
tp6486
Rp6487
ag1
(g5
S'}\xf0\x1b<'
p6488
tp6489
Rp6490
ag1
(g5
S'p\xe2.<'
p6491
tp6492
Rp6493
ag1
(g5
S'D\x12\x1a<'
p6494
tp6495
Rp6496
ag1
(g5
S'\x0f\xed6<'
p6497
tp6498
Rp6499
ag1
(g5
S'\x1a\xcf$<'
p6500
tp6501
Rp6502
ag1
(g5
S'pz(<'
p6503
tp6504
Rp6505
ag1
(g5
S'\xa9\\\x17<'
p6506
tp6507
Rp6508
ag1
(g5
S'\x00\xb6=<'
p6509
tp6510
Rp6511
ag1
(g5
S'\xe3+\x12<'
p6512
tp6513
Rp6514
ag1
(g5
S'\xf8\xb6\x10<'
p6515
tp6516
Rp6517
ag1
(g5
S'\xc8\x99*<'
p6518
tp6519
Rp6520
ag1
(g5
S'um\x16<'
p6521
tp6522
Rp6523
ag1
(g5
S'\x97l8<'
p6524
tp6525
Rp6526
ag1
(g5
S'L\xbd\x1d<'
p6527
tp6528
Rp6529
ag1
(g5
S'\xc3&&<'
p6530
tp6531
Rp6532
ag1
(g5
S'\xb81*<'
p6533
tp6534
Rp6535
ag1
(g5
S'\xb6Z\x1c<'
p6536
tp6537
Rp6538
ag1
(g5
S'}\xda#<'
p6539
tp6540
Rp6541
ag1
(g5
S"\xed\x8c'<"
p6542
tp6543
Rp6544
ag1
(g5
S'\x10Z\x15<'
p6545
tp6546
Rp6547
ag1
(g5
S'A\xbc\t<'
p6548
tp6549
Rp6550
ag1
(g5
S'\xec\x11"<'
p6551
tp6552
Rp6553
ag1
(g5
S'\x15`+<'
p6554
tp6555
Rp6556
ag1
(g5
S'R\xb8#<'
p6557
tp6558
Rp6559
ag1
(g5
S'\xfb\xc1(<'
p6560
tp6561
Rp6562
ag1
(g5
S'\xdd\x8f\r<'
p6563
tp6564
Rp6565
ag1
(g5
S'\xa8e\x10<'
p6566
tp6567
Rp6568
ag1
(g5
S'L\xbe-<'
p6569
tp6570
Rp6571
ag1
(g5
S'\xd59"<'
p6572
tp6573
Rp6574
ag1
(g5
S'\xb8i5<'
p6575
tp6576
Rp6577
ag1
(g5
S'\xe0r\x1c<'
p6578
tp6579
Rp6580
ag1
(g5
S'\x04 \r<'
p6581
tp6582
Rp6583
ag1
(g5
S'\xf1\xee\x0b<'
p6584
tp6585
Rp6586
ag1
(g5
S'h\xbd0<'
p6587
tp6588
Rp6589
ag1
(g5
S'\x8f\x1d"<'
p6590
tp6591
Rp6592
ag1
(g5
S'\xc8\xea$<'
p6593
tp6594
Rp6595
ag1
(g5
S'\x99\x9f*<'
p6596
tp6597
Rp6598
ag1
(g5
S'\xe0\x19/<'
p6599
tp6600
Rp6601
ag1
(g5
S'\xdeY\x11<'
p6602
tp6603
Rp6604
ag1
(g5
S'3\x172<'
p6605
tp6606
Rp6607
ag1
(g5
S'\x04\x12\x1e<'
p6608
tp6609
Rp6610
ag1
(g5
S'%\xa1"<'
p6611
tp6612
Rp6613
ag1
(g5
S'\x83!\x0e<'
p6614
tp6615
Rp6616
ag1
(g5
S'x\xbe,<'
p6617
tp6618
Rp6619
ag1
(g5
S'71)<'
p6620
tp6621
Rp6622
ag1
(g5
S'\xe2\x9c9<'
p6623
tp6624
Rp6625
ag1
(g5
S'\xe2\x1e3<'
p6626
tp6627
Rp6628
ag1
(g5
S'q\x1c<<'
p6629
tp6630
Rp6631
ag1
(g5
S'\xfd& <'
p6632
tp6633
Rp6634
ag1
(g5
S'V\x16\x15<'
p6635
tp6636
Rp6637
ag1
(g5
S'+\x9d$<'
p6638
tp6639
Rp6640
ag1
(g5
S'*\x0e\x1c<'
p6641
tp6642
Rp6643
ag1
(g5
S'\x10\xa3J<'
p6644
tp6645
Rp6646
ag1
(g5
S'\x81\xfd\x18<'
p6647
tp6648
Rp6649
ag1
(g5
S'u\x82\x1a<'
p6650
tp6651
Rp6652
ag1
(g5
S'\x8c\xa3*<'
p6653
tp6654
Rp6655
ag1
(g5
S'\xea\xd15<'
p6656
tp6657
Rp6658
ag1
(g5
S'2\xe72<'
p6659
tp6660
Rp6661
ag1
(g5
S'\xe5l,<'
p6662
tp6663
Rp6664
ag1
(g5
S'\x0eM\x1f<'
p6665
tp6666
Rp6667
ag1
(g5
S'\xfba8<'
p6668
tp6669
Rp6670
ag1
(g5
S'2\x9e-<'
p6671
tp6672
Rp6673
ag1
(g5
S'\x10\x8e#<'
p6674
tp6675
Rp6676
ag1
(g5
S'\xfd\xb8\x1f<'
p6677
tp6678
Rp6679
ag1
(g5
S'8c5<'
p6680
tp6681
Rp6682
ag1
(g5
S'\x9e\xebC<'
p6683
tp6684
Rp6685
ag1
(g5
S'b\xbb\x18<'
p6686
tp6687
Rp6688
ag1
(g5
S'\x14+/<'
p6689
tp6690
Rp6691
ag1
(g5
S"\xdfX'<"
p6692
tp6693
Rp6694
ag1
(g5
S'\x18\x03$<'
p6695
tp6696
Rp6697
ag1
(g5
S'\xf6U!<'
p6698
tp6699
Rp6700
ag1
(g5
S'\xfc\x89:<'
p6701
tp6702
Rp6703
ag1
(g5
S'\xef+&<'
p6704
tp6705
Rp6706
ag1
(g5
S'\xa2M\x15<'
p6707
tp6708
Rp6709
ag1
(g5
S'\xec\xd4\x12<'
p6710
tp6711
Rp6712
ag1
(g5
S')\xc3\x12<'
p6713
tp6714
Rp6715
ag1
(g5
S'\xd7\x023<'
p6716
tp6717
Rp6718
ag1
(g5
S'\x9b\xfc(<'
p6719
tp6720
Rp6721
ag1
(g5
S'?. <'
p6722
tp6723
Rp6724
ag1
(g5
S'\xccs6<'
p6725
tp6726
Rp6727
ag1
(g5
S'?\x15\x11<'
p6728
tp6729
Rp6730
ag1
(g5
S't{(<'
p6731
tp6732
Rp6733
ag1
(g5
S'WZ?<'
p6734
tp6735
Rp6736
ag1
(g5
S';C<<'
p6737
tp6738
Rp6739
ag1
(g5
S'\x8d\x10.<'
p6740
tp6741
Rp6742
ag1
(g5
S'j\x9b <'
p6743
tp6744
Rp6745
ag1
(g5
S'\xe2;\x08<'
p6746
tp6747
Rp6748
ag1
(g5
S')\xb7!<'
p6749
tp6750
Rp6751
ag1
(g5
S'\xf7{ <'
p6752
tp6753
Rp6754
ag1
(g5
S'>b#<'
p6755
tp6756
Rp6757
ag1
(g5
S'IP7<'
p6758
tp6759
Rp6760
ag1
(g5
S'\xe6=\x1c<'
p6761
tp6762
Rp6763
ag1
(g5
S'\x1e}\x1c<'
p6764
tp6765
Rp6766
ag1
(g5
S'Z\x884<'
p6767
tp6768
Rp6769
ag1
(g5
S'\xda\xbc,<'
p6770
tp6771
Rp6772
ag1
(g5
S'\x81@\x12<'
p6773
tp6774
Rp6775
ag1
(g5
S'\xd2Q\x1d<'
p6776
tp6777
Rp6778
ag1
(g5
S'IE\x18<'
p6779
tp6780
Rp6781
ag1
(g5
S'\xef\xe8/<'
p6782
tp6783
Rp6784
ag1
(g5
S'\x93J\x16<'
p6785
tp6786
Rp6787
ag1
(g5
S'\xb0\x174<'
p6788
tp6789
Rp6790
ag1
(g5
S'\x93\n!<'
p6791
tp6792
Rp6793
ag1
(g5
S'QZ(<'
p6794
tp6795
Rp6796
ag1
(g5
S'4w"<'
p6797
tp6798
Rp6799
ag1
(g5
S':\x9e%<'
p6800
tp6801
Rp6802
ag1
(g5
S'\x9f\xac\x1e<'
p6803
tp6804
Rp6805
ag1
(g5
S"\xdb';<"
p6806
tp6807
Rp6808
ag1
(g5
S'#%+<'
p6809
tp6810
Rp6811
ag1
(g5
S'F\x08 <'
p6812
tp6813
Rp6814
ag1
(g5
S'\x94t/<'
p6815
tp6816
Rp6817
ag1
(g5
S'\xd1\xb9\x10<'
p6818
tp6819
Rp6820
ag1
(g5
S'\xb0\xfc\x1d<'
p6821
tp6822
Rp6823
ag1
(g5
S'\xc12!<'
p6824
tp6825
Rp6826
ag1
(g5
S'\xd8}(<'
p6827
tp6828
Rp6829
ag1
(g5
S'\xec\xbb\x15<'
p6830
tp6831
Rp6832
ag1
(g5
S'y\x94&<'
p6833
tp6834
Rp6835
ag1
(g5
S'>\xf4\x1a<'
p6836
tp6837
Rp6838
ag1
(g5
S'\x95\x96\x1e<'
p6839
tp6840
Rp6841
ag1
(g5
S'\x9f\xf5"<'
p6842
tp6843
Rp6844
ag1
(g5
S'\xee\xf7\x1d<'
p6845
tp6846
Rp6847
ag1
(g5
S';\xbb#<'
p6848
tp6849
Rp6850
ag1
(g5
S'\xf9\xe2=<'
p6851
tp6852
Rp6853
ag1
(g5
S'\xb89#<'
p6854
tp6855
Rp6856
ag1
(g5
S'h\x9d <'
p6857
tp6858
Rp6859
ag1
(g5
S'0\x82&<'
p6860
tp6861
Rp6862
ag1
(g5
S'@\xa0\x1a<'
p6863
tp6864
Rp6865
ag1
(g5
S'\xcc\x05(<'
p6866
tp6867
Rp6868
ag1
(g5
S'\x00\xd9\x19<'
p6869
tp6870
Rp6871
ag1
(g5
S'\x8c\x876<'
p6872
tp6873
Rp6874
ag1
(g5
S'T\n <'
p6875
tp6876
Rp6877
ag1
(g5
S"V%'<"
p6878
tp6879
Rp6880
ag1
(g5
S'\xbd\xa7\x17<'
p6881
tp6882
Rp6883
ag1
(g5
S'\xf4W:<'
p6884
tp6885
Rp6886
ag1
(g5
S't\x89\x10<'
p6887
tp6888
Rp6889
ag1
(g5
S'\x9b%\x11<'
p6890
tp6891
Rp6892
ag1
(g5
S'\x9eQ%<'
p6893
tp6894
Rp6895
ag1
(g5
S'\x93\xcd\x1a<'
p6896
tp6897
Rp6898
ag1
(g5
S'\x95\xa94<'
p6899
tp6900
Rp6901
ag1
(g5
S'D#\x1a<'
p6902
tp6903
Rp6904
ag1
(g5
S'\x88\xa3&<'
p6905
tp6906
Rp6907
ag1
(g5
S'#5)<'
p6908
tp6909
Rp6910
ag1
(g5
S'\x1ea\x17<'
p6911
tp6912
Rp6913
ag1
(g5
S"'z!<"
p6914
tp6915
Rp6916
ag1
(g5
S'}\xe5+<'
p6917
tp6918
Rp6919
ag1
(g5
S']\xbd\x14<'
p6920
tp6921
Rp6922
ag1
(g5
S'\xb0\x00\x08<'
p6923
tp6924
Rp6925
ag1
(g5
S'\xcbt"<'
p6926
tp6927
Rp6928
ag1
(g5
S'v\xcb+<'
p6929
tp6930
Rp6931
ag1
(g5
S'\x04\xe1"<'
p6932
tp6933
Rp6934
ag1
(g5
S'\xba8-<'
p6935
tp6936
Rp6937
ag1
(g5
S'\x97\x16\x0c<'
p6938
tp6939
Rp6940
ag1
(g5
S'\xbfG\x11<'
p6941
tp6942
Rp6943
ag1
(g5
S'\xaf\xe6,<'
p6944
tp6945
Rp6946
ag1
(g5
S'|Y!<'
p6947
tp6948
Rp6949
ag1
(g5
S'\x13\x196<'
p6950
tp6951
Rp6952
ag1
(g5
S'\xb6\x84\x18<'
p6953
tp6954
Rp6955
ag1
(g5
S'\x02H\x0c<'
p6956
tp6957
Rp6958
ag1
(g5
S'@\xb6\x0c<'
p6959
tp6960
Rp6961
ag1
(g5
S'v\x82.<'
p6962
tp6963
Rp6964
ag1
(g5
S'X~%<'
p6965
tp6966
Rp6967
ag1
(g5
S']\x8e#<'
p6968
tp6969
Rp6970
ag1
(g5
S"\xcd\xa2'<"
p6971
tp6972
Rp6973
ag1
(g5
S'\x15\x7f/<'
p6974
tp6975
Rp6976
ag1
(g5
S'\x12\x85\x15<'
p6977
tp6978
Rp6979
ag1
(g5
S'E\xfd2<'
p6980
tp6981
Rp6982
ag1
(g5
S'\x16z\x1c<'
p6983
tp6984
Rp6985
ag1
(g5
S'\x86\x95 <'
p6986
tp6987
Rp6988
ag1
(g5
S'\x89\xbb\t<'
p6989
tp6990
Rp6991
ag1
(g5
S'\xed\xfc,<'
p6992
tp6993
Rp6994
ag1
(g5
S'\x06\xe2&<'
p6995
tp6996
Rp6997
ag1
(g5
S'dO?<'
p6998
tp6999
Rp7000
ag1
(g5
S'\xdb\xae2<'
p7001
tp7002
Rp7003
ag1
(g5
S'\x06\xd46<'
p7004
tp7005
Rp7006
ag1
(g5
S'\xfdm\x1b<'
p7007
tp7008
Rp7009
ag1
(g5
S'E\xcb\x0f<'
p7010
tp7011
Rp7012
ag1
(g5
S'\x9e\xec <'
p7013
tp7014
Rp7015
ag1
(g5
S'\xf1\x93\x1a<'
p7016
tp7017
Rp7018
ag1
(g5
S'\xc8\x8dN<'
p7019
tp7020
Rp7021
ag1
(g5
S'y\x8c\x1c<'
p7022
tp7023
Rp7024
ag1
(g5
S'\x11\x8d\x1b<'
p7025
tp7026
Rp7027
ag1
(g5
S'\x03\x04(<'
p7028
tp7029
Rp7030
ag1
(g5
S'c\xda3<'
p7031
tp7032
Rp7033
ag1
(g5
S'\xd6h-<'
p7034
tp7035
Rp7036
ag1
(g5
S'$\xcc+<'
p7037
tp7038
Rp7039
ag1
(g5
S'H+\x1e<'
p7040
tp7041
Rp7042
ag1
(g5
S'o|2<'
p7043
tp7044
Rp7045
ag1
(g5
S'\xfc?+<'
p7046
tp7047
Rp7048
ag1
(g5
S'\xd2\xd7+<'
p7049
tp7050
Rp7051
ag1
(g5
S';\x1c\x1e<'
p7052
tp7053
Rp7054
ag1
(g5
S'~+4<'
p7055
tp7056
Rp7057
ag1
(g5
S'(\x13D<'
p7058
tp7059
Rp7060
ag1
(g5
S'\x8a\xe3\x16<'
p7061
tp7062
Rp7063
ag1
(g5
S'\xb0\x98.<'
p7064
tp7065
Rp7066
ag1
(g5
S'\xc8\xac*<'
p7067
tp7068
Rp7069
ag1
(g5
S'\xc3V <'
p7070
tp7071
Rp7072
ag1
(g5
S'\xad"!<'
p7073
tp7074
Rp7075
ag1
(g5
S'\xbd ;<'
p7076
tp7077
Rp7078
ag1
(g5
S'%\x8a#<'
p7079
tp7080
Rp7081
ag1
(g5
S'\x9e\xc0\x14<'
p7082
tp7083
Rp7084
ag1
(g5
S'Q.\x10<'
p7085
tp7086
Rp7087
ag1
(g5
S'bi\x13<'
p7088
tp7089
Rp7090
ag1
(g5
S'\x01\xdd1<'
p7091
tp7092
Rp7093
ag1
(g5
S'=\xdd&<'
p7094
tp7095
Rp7096
ag1
(g5
S'\xea\xe6#<'
p7097
tp7098
Rp7099
ag1
(g5
S'\x1f\x866<'
p7100
tp7101
Rp7102
ag1
(g5
S'+r\x10<'
p7103
tp7104
Rp7105
ag1
(g5
S'\xe2\xf9$<'
p7106
tp7107
Rp7108
ag1
(g5
S'}\x907<'
p7109
tp7110
Rp7111
ag1
(g5
S'1\x1d9<'
p7112
tp7113
Rp7114
ag1
(g5
S'\xdak1<'
p7115
tp7116
Rp7117
ag1
(g5
S'\xa4\xa4\x1f<'
p7118
tp7119
Rp7120
ag1
(g5
S'\xa7\xea\t<'
p7121
tp7122
Rp7123
ag1
(g5
S'+X\x1e<'
p7124
tp7125
Rp7126
ag1
(g5
S'\xd6\x95\x1a<'
p7127
tp7128
Rp7129
ag1
(g5
S'\xc0\xf7#<'
p7130
tp7131
Rp7132
ag1
(g5
S'\x1a\xfb1<'
p7133
tp7134
Rp7135
ag1
(g5
S'3\x1c\x1b<'
p7136
tp7137
Rp7138
ag1
(g5
S'|^\x1a<'
p7139
tp7140
Rp7141
ag1
(g5
S'\x7f\xfc-<'
p7142
tp7143
Rp7144
ag1
(g5
S'u%*<'
p7145
tp7146
Rp7147
ag1
(g5
S'&]\r<'
p7148
tp7149
Rp7150
ag1
(g5
S'\xeae\x1d<'
p7151
tp7152
Rp7153
ag1
(g5
S'\xd0R\x15<'
p7154
tp7155
Rp7156
ag1
(g5
S'\xfe\xe8.<'
p7157
tp7158
Rp7159
ag1
(g5
S'k\xfa\x13<'
p7160
tp7161
Rp7162
ag1
(g5
S'\xd4X4<'
p7163
tp7164
Rp7165
ag1
(g5
S'v\xa3\x1f<'
p7166
tp7167
Rp7168
ag1
(g5
S'\xc5\x05&<'
p7169
tp7170
Rp7171
ag1
(g5
S'\x9b\xd4\x1e<'
p7172
tp7173
Rp7174
ag1
(g5
S'\\\xc7"<'
p7175
tp7176
Rp7177
ag1
(g5
S'\x84\xa2!<'
p7178
tp7179
Rp7180
ag1
(g5
S'\x9b\x02=<'
p7181
tp7182
Rp7183
ag1
(g5
S'\x0c\xc7(<'
p7184
tp7185
Rp7186
ag1
(g5
S'b\x80\x1d<'
p7187
tp7188
Rp7189
ag1
(g5
S'.v.<'
p7190
tp7191
Rp7192
ag1
(g5
S'\x7f\x99\x11<'
p7193
tp7194
Rp7195
ag1
(g5
S'S^\x18<'
p7196
tp7197
Rp7198
ag1
(g5
S'-\x92 <'
p7199
tp7200
Rp7201
ag1
(g5
S'\xfco0<'
p7202
tp7203
Rp7204
ag1
(g5
S'[\x90\x13<'
p7205
tp7206
Rp7207
ag1
(g5
S'\xb1\x92$<'
p7208
tp7209
Rp7210
ag1
(g5
S'\x96\x04\x1a<'
p7211
tp7212
Rp7213
ag1
(g5
S'\xa5\x92\x1c<'
p7214
tp7215
Rp7216
ag1
(g5
S'\xc0\xbb\x1b<'
p7217
tp7218
Rp7219
ag1
(g5
S'\xc2\xbd\x1d<'
p7220
tp7221
Rp7222
ag1
(g5
S'~\xce#<'
p7223
tp7224
Rp7225
ag1
(g5
S'\xe6\xdb=<'
p7226
tp7227
Rp7228
ag1
(g5
S'/.$<'
p7229
tp7230
Rp7231
ag1
(g5
S'\x8b2\x1d<'
p7232
tp7233
Rp7234
ag1
(g5
S'\xeb=$<'
p7235
tp7236
Rp7237
ag1
(g5
S'\x14\xd2\x19<'
p7238
tp7239
Rp7240
ag1
(g5
S'\xd7\x8a&<'
p7241
tp7242
Rp7243
ag1
(g5
S')$\x18<'
p7244
tp7245
Rp7246
ag1
(g5
S'<\x930<'
p7247
tp7248
Rp7249
ag1
(g5
S">'\x1e<"
p7250
tp7251
Rp7252
ag1
(g5
S'\x1c\xb8$<'
p7253
tp7254
Rp7255
ag1
(g5
S'*\xc3\x15<'
p7256
tp7257
Rp7258
ag1
(g5
S'\x0f\xbb8<'
p7259
tp7260
Rp7261
ag1
(g5
S'?\x92\r<'
p7262
tp7263
Rp7264
ag1
(g5
S'%t\x0b<'
p7265
tp7266
Rp7267
ag1
(g5
S'Mr#<'
p7268
tp7269
Rp7270
ag1
(g5
S'\x80J\x1a<'
p7271
tp7272
Rp7273
ag1
(g5
S'\xb5h7<'
p7274
tp7275
Rp7276
ag1
(g5
S'\xbd!\x19<'
p7277
tp7278
Rp7279
ag1
(g5
S'\xe3M&<'
p7280
tp7281
Rp7282
ag1
(g5
S'g\x7f)<'
p7283
tp7284
Rp7285
ag1
(g5
S'D\xc7\x18<'
p7286
tp7287
Rp7288
ag1
(g5
S'\xcc\xb2&<'
p7289
tp7290
Rp7291
ag1
(g5
S'\xa0\xaa$<'
p7292
tp7293
Rp7294
ag1
(g5
S'J]\x13<'
p7295
tp7296
Rp7297
ag1
(g5
S'\xb5\xb1\x03<'
p7298
tp7299
Rp7300
ag1
(g5
S'\xd8x$<'
p7301
tp7302
Rp7303
ag1
(g5
S'\x96\x0c)<'
p7304
tp7305
Rp7306
ag1
(g5
S'$T\x1e<'
p7307
tp7308
Rp7309
ag1
(g5
S'k\x19&<'
p7310
tp7311
Rp7312
ag1
(g5
S'\xfd\x8b\t<'
p7313
tp7314
Rp7315
ag1
(g5
S'\xc2F\x0e<'
p7316
tp7317
Rp7318
ag1
(g5
S'~\xa9/<'
p7319
tp7320
Rp7321
ag1
(g5
S'\xdft!<'
p7322
tp7323
Rp7324
ag1
(g5
S'\xfe\xd04<'
p7325
tp7326
Rp7327
ag1
(g5
S'\xc4\x8b\x16<'
p7328
tp7329
Rp7330
ag1
(g5
S'o&\r<'
p7331
tp7332
Rp7333
ag1
(g5
S'\xb7\x96\x08<'
p7334
tp7335
Rp7336
ag1
(g5
S'q\x07.<'
p7337
tp7338
Rp7339
ag1
(g5
S'\x02\xd8#<'
p7340
tp7341
Rp7342
ag1
(g5
S'85#<'
p7343
tp7344
Rp7345
ag1
(g5
S'\xc0_(<'
p7346
tp7347
Rp7348
ag1
(g5
S'V\xdc/<'
p7349
tp7350
Rp7351
ag1
(g5
S'\xb7\xda\x10<'
p7352
tp7353
Rp7354
ag1
(g5
S'$r4<'
p7355
tp7356
Rp7357
ag1
(g5
S'\xf0\xa5\x1b<'
p7358
tp7359
Rp7360
ag1
(g5
S'\x02m <'
p7361
tp7362
Rp7363
ag1
(g5
S'p\x1a\x07<'
p7364
tp7365
Rp7366
ag1
(g5
S'\x90},<'
p7367
tp7368
Rp7369
ag1
(g5
S'\xa0\x0e%<'
p7370
tp7371
Rp7372
ag1
(g5
S'\xab\xc2><'
p7373
tp7374
Rp7375
ag1
(g5
S'\xabX2<'
p7376
tp7377
Rp7378
ag1
(g5
S'K63<'
p7379
tp7380
Rp7381
ag1
(g5
S'u$\x1a<'
p7382
tp7383
Rp7384
ag1
(g5
S'ei\r<'
p7385
tp7386
Rp7387
ag1
(g5
S'd= <'
p7388
tp7389
Rp7390
ag1
(g5
S'wP\x1d<'
p7391
tp7392
Rp7393
ag1
(g5
S'0+I<'
p7394
tp7395
Rp7396
ag1
(g5
S'\xca\xaa\x1a<'
p7397
tp7398
Rp7399
ag1
(g5
S'\xe7\xc6\x1c<'
p7400
tp7401
Rp7402
ag1
(g5
S'f\xb9#<'
p7403
tp7404
Rp7405
ag1
(g5
S'A\x992<'
p7406
tp7407
Rp7408
ag1
(g5
S'\x1ad-<'
p7409
tp7410
Rp7411
ag1
(g5
S'\x87],<'
p7412
tp7413
Rp7414
ag1
(g5
S'\x9a`\x19<'
p7415
tp7416
Rp7417
ag1
(g5
S'\xe6\xb90<'
p7418
tp7419
Rp7420
ag1
(g5
S"\x92\xbd'<"
p7421
tp7422
Rp7423
ag1
(g5
S'\x81L"<'
p7424
tp7425
Rp7426
ag1
(g5
S'|\xe8\x1b<'
p7427
tp7428
Rp7429
ag1
(g5
S'\xbe\xe54<'
p7430
tp7431
Rp7432
ag1
(g5
S'^\xb5B<'
p7433
tp7434
Rp7435
ag1
(g5
S'kW\x14<'
p7436
tp7437
Rp7438
ag1
(g5
S'e[*<'
p7439
tp7440
Rp7441
ag1
(g5
S'mQ&<'
p7442
tp7443
Rp7444
ag1
(g5
S'\x8e\xac <'
p7445
tp7446
Rp7447
ag1
(g5
S'@\xe6\x1f<'
p7448
tp7449
Rp7450
ag1
(g5
S';\xdd6<'
p7451
tp7452
Rp7453
ag1
(g5
S'T\xe1#<'
p7454
tp7455
Rp7456
ag1
(g5
S'\x94\x0b\x12<'
p7457
tp7458
Rp7459
ag1
(g5
S'\x11\xf0\r<'
p7460
tp7461
Rp7462
ag1
(g5
S'\\A\x12<'
p7463
tp7464
Rp7465
ag1
(g5
S'Y\xfd.<'
p7466
tp7467
Rp7468
ag1
(g5
S"\xbb\x8b'<"
p7469
tp7470
Rp7471
ag1
(g5
S'\x01%\x1e<'
p7472
tp7473
Rp7474
ag1
(g5
S'\x90A6<'
p7475
tp7476
Rp7477
ag1
(g5
S'\r\xd9\r<'
p7478
tp7479
Rp7480
ag1
(g5
S'p\xd7$<'
p7481
tp7482
Rp7483
ag1
(g5
S'N|6<'
p7484
tp7485
Rp7486
ag1
(g5
S'K\xce6<'
p7487
tp7488
Rp7489
ag1
(g5
S'\xe9\xa3+<'
p7490
tp7491
Rp7492
ag1
(g5
S'&\x01\x1c<'
p7493
tp7494
Rp7495
ag1
(g5
S'\xeb\xb4\x08<'
p7496
tp7497
Rp7498
ag1
(g5
S'\xfd\xe7\x1d<'
p7499
tp7500
Rp7501
ag1
(g5
S'\x9d\x80\x1a<'
p7502
tp7503
Rp7504
ag1
(g5
S'\xe4\xe3#<'
p7505
tp7506
Rp7507
a.