(lp0
cnumpy.core.multiarray
scalar
p1
(cnumpy
dtype
p2
(S'f4'
p3
I0
I1
tp4
Rp5
(I3
S'<'
p6
NNNI-1
I-1
I0
tp7
bS'`\xa9R='
p8
tp9
Rp10
ag1
(g5
S'\xe6\xc4C='
p11
tp12
Rp13
ag1
(g5
S'X\x948='
p14
tp15
Rp16
ag1
(g5
S'\x00\x9a\x1e='
p17
tp18
Rp19
ag1
(g5
S'i\x99\x17='
p20
tp21
Rp22
ag1
(g5
S'\xd4\xe6\x08='
p23
tp24
Rp25
ag1
(g5
S'\x8f\xed\x02='
p26
tp27
Rp28
ag1
(g5
S"'\x88\xf0<"
p29
tp30
Rp31
ag1
(g5
S'El\xeb<'
p32
tp33
Rp34
ag1
(g5
S'\x89#\xdc<'
p35
tp36
Rp37
ag1
(g5
S'\xb2\r\xca<'
p38
tp39
Rp40
ag1
(g5
S'\xde\xaf\xc9<'
p41
tp42
Rp43
ag1
(g5
S'\xef\xf9\xbd<'
p44
tp45
Rp46
ag1
(g5
S'\xa8v\xb8<'
p47
tp48
Rp49
ag1
(g5
S'\xbcB\xb6<'
p50
tp51
Rp52
ag1
(g5
S')\x9b\xbb<'
p53
tp54
Rp55
ag1
(g5
S'\x11\xed\xae<'
p56
tp57
Rp58
ag1
(g5
S'\x95\xae\xa8<'
p59
tp60
Rp61
ag1
(g5
S'\x8c\x1a\xa8<'
p62
tp63
Rp64
ag1
(g5
S'.\x00\xa8<'
p65
tp66
Rp67
ag1
(g5
S'\xee\x81\x9f<'
p68
tp69
Rp70
ag1
(g5
S'O \xa5<'
p71
tp72
Rp73
ag1
(g5
S'\x90\x02\x9a<'
p74
tp75
Rp76
ag1
(g5
S'\x86\xec\x9c<'
p77
tp78
Rp79
ag1
(g5
S'(>\x95<'
p80
tp81
Rp82
ag1
(g5
S'\xfc\xa3\x96<'
p83
tp84
Rp85
ag1
(g5
S'\xfcJ\x97<'
p86
tp87
Rp88
ag1
(g5
S'\x1ba\x88<'
p89
tp90
Rp91
ag1
(g5
S'\x12\x0f\x91<'
p92
tp93
Rp94
ag1
(g5
S'1\x88\x95<'
p95
tp96
Rp97
ag1
(g5
S'\x08\xe9\x84<'
p98
tp99
Rp100
ag1
(g5
S'\x1al\x92<'
p101
tp102
Rp103
ag1
(g5
S'v\x11\x90<'
p104
tp105
Rp106
ag1
(g5
S'UO\x82<'
p107
tp108
Rp109
ag1
(g5
S'\xee;\x8e<'
p110
tp111
Rp112
ag1
(g5
S'\xdc\xef\x8c<'
p113
tp114
Rp115
ag1
(g5
S'\xed\xb1\x89<'
p116
tp117
Rp118
ag1
(g5
S'\xb1\xee\x8d<'
p119
tp120
Rp121
ag1
(g5
S'\xc0\x19\x80<'
p122
tp123
Rp124
ag1
(g5
S'\xed\x9d\x8b<'
p125
tp126
Rp127
ag1
(g5
S'\xca\x87\x92<'
p128
tp129
Rp130
ag1
(g5
S'I\xef\x88<'
p131
tp132
Rp133
ag1
(g5
S'\x8b\xfb\x80<'
p134
tp135
Rp136
ag1
(g5
S'\x7f\xa5\x8d<'
p137
tp138
Rp139
ag1
(g5
S'\xa2\x03\x82<'
p140
tp141
Rp142
ag1
(g5
S'\xee\x0f\x8d<'
p143
tp144
Rp145
ag1
(g5
S'\xd9*\x88<'
p146
tp147
Rp148
ag1
(g5
S'\xa4\x90\x87<'
p149
tp150
Rp151
ag1
(g5
S'\x90\x14\x86<'
p152
tp153
Rp154
ag1
(g5
S'\xd6\x11\x87<'
p155
tp156
Rp157
ag1
(g5
S'\x19\x92\x87<'
p158
tp159
Rp160
ag1
(g5
S'O\xbb\x88<'
p161
tp162
Rp163
ag1
(g5
S'\xc5\x82y<'
p164
tp165
Rp166
ag1
(g5
S'z\xa1\x84<'
p167
tp168
Rp169
ag1
(g5
S']Qj<'
p170
tp171
Rp172
ag1
(g5
S'K\xc5\x80<'
p173
tp174
Rp175
ag1
(g5
S'\x12j\x7f<'
p176
tp177
Rp178
ag1
(g5
S'/\x18\x80<'
p179
tp180
Rp181
ag1
(g5
S'd\xe5\x85<'
p182
tp183
Rp184
ag1
(g5
S'\x95\xee\x87<'
p185
tp186
Rp187
ag1
(g5
S'\xea;q<'
p188
tp189
Rp190
ag1
(g5
S'\xcc\x0fv<'
p191
tp192
Rp193
ag1
(g5
S':\x15\x84<'
p194
tp195
Rp196
ag1
(g5
S'\xefL~<'
p197
tp198
Rp199
ag1
(g5
S'/\xf3~<'
p200
tp201
Rp202
ag1
(g5
S'w\xe9p<'
p203
tp204
Rp205
ag1
(g5
S'\xf8\x15|<'
p206
tp207
Rp208
ag1
(g5
S')\x8a~<'
p209
tp210
Rp211
ag1
(g5
S'\xd5e}<'
p212
tp213
Rp214
ag1
(g5
S'\xb4\xfbu<'
p215
tp216
Rp217
ag1
(g5
S'\x1c\x96\x83<'
p218
tp219
Rp220
ag1
(g5
S'\x9f\xb0\x81<'
p221
tp222
Rp223
ag1
(g5
S'dmj<'
p224
tp225
Rp226
ag1
(g5
S'\x0fqz<'
p227
tp228
Rp229
ag1
(g5
S'\x84@o<'
p230
tp231
Rp232
ag1
(g5
S'lHo<'
p233
tp234
Rp235
ag1
(g5
S'\x94,s<'
p236
tp237
Rp238
ag1
(g5
S'\xbb\x9e\x85<'
p239
tp240
Rp241
ag1
(g5
S'\x17\xe7t<'
p242
tp243
Rp244
ag1
(g5
S'\xb9\x18r<'
p245
tp246
Rp247
ag1
(g5
S'\xc6\x86v<'
p248
tp249
Rp250
ag1
(g5
S'\x13\xca}<'
p251
tp252
Rp253
ag1
(g5
S'\x1b\xc7o<'
p254
tp255
Rp256
ag1
(g5
S'\x9d?\x80<'
p257
tp258
Rp259
ag1
(g5
S'#\x19o<'
p260
tp261
Rp262
ag1
(g5
S'o:y<'
p263
tp264
Rp265
ag1
(g5
S'\xa66m<'
p266
tp267
Rp268
ag1
(g5
S'\xf3\xa2s<'
p269
tp270
Rp271
ag1
(g5
S'\xc6\x94w<'
p272
tp273
Rp274
ag1
(g5
S'\xc8\xdc[<'
p275
tp276
Rp277
ag1
(g5
S'<\xf9p<'
p278
tp279
Rp280
ag1
(g5
S'\xed\xf9z<'
p281
tp282
Rp283
ag1
(g5
S'M=\\<'
p284
tp285
Rp286
ag1
(g5
S'\x0f\xc2z<'
p287
tp288
Rp289
ag1
(g5
S'w-w<'
p290
tp291
Rp292
ag1
(g5
S'\xdb\x83\\<'
p293
tp294
Rp295
ag1
(g5
S'v\xa6w<'
p296
tp297
Rp298
ag1
(g5
S'\xa4\xf7u<'
p299
tp300
Rp301
ag1
(g5
S'\xdb$p<'
p302
tp303
Rp304
ag1
(g5
S'\x02!{<'
p305
tp306
Rp307
ag1
(g5
S'\xebQ`<'
p308
tp309
Rp310
ag1
(g5
S'\x8e\ty<'
p311
tp312
Rp313
ag1
(g5
S'\xb8:\x84<'
p314
tp315
Rp316
ag1
(g5
S'\xc2\xc0u<'
p317
tp318
Rp319
ag1
(g5
S'\xaauf<'
p320
tp321
Rp322
ag1
(g5
S'\x0ea\x80<'
p323
tp324
Rp325
ag1
(g5
S'F\xd7j<'
p326
tp327
Rp328
ag1
(g5
S'\xa0B\x80<'
p329
tp330
Rp331
ag1
(g5
S'\x18\xdfx<'
p332
tp333
Rp334
ag1
(g5
S'\xc5Qx<'
p335
tp336
Rp337
ag1
(g5
S'\xe4\xd7u<'
p338
tp339
Rp340
ag1
(g5
S'rBy<'
p341
tp342
Rp343
ag1
(g5
S'^\xdbz<'
p344
tp345
Rp346
ag1
(g5
S'\xcc\xb6}<'
p347
tp348
Rp349
ag1
(g5
S'\x02*f<'
p350
tp351
Rp352
ag1
(g5
S'\x1a;w<'
p353
tp354
Rp355
ag1
(g5
S'\xcbdX<'
p356
tp357
Rp358
ag1
(g5
S'\xf4Op<'
p359
tp360
Rp361
ag1
(g5
S'<\xe4n<'
p362
tp363
Rp364
ag1
(g5
S']fo<'
p365
tp366
Rp367
ag1
(g5
S'D\xed{<'
p368
tp369
Rp370
ag1
(g5
S'\x91]\x80<'
p371
tp372
Rp373
ag1
(g5
S':\xf4a<'
p374
tp375
Rp376
ag1
(g5
S'(\xc2g<'
p377
tp378
Rp379
ag1
(g5
S'\xa6\x84y<'
p380
tp381
Rp382
ag1
(g5
S'\x17\xa8p<'
p383
tp384
Rp385
ag1
(g5
S'\xa9\xbaq<'
p386
tp387
Rp388
ag1
(g5
S'\x9c\xd0c<'
p389
tp390
Rp391
ag1
(g5
S'\xec\x90o<'
p392
tp393
Rp394
ag1
(g5
S')\x90r<'
p395
tp396
Rp397
ag1
(g5
S'-\x90q<'
p398
tp399
Rp400
ag1
(g5
S'\x84\xf9j<'
p401
tp402
Rp403
ag1
(g5
S'S\x97|<'
p404
tp405
Rp406
ag1
(g5
S':\x02y<'
p407
tp408
Rp409
ag1
(g5
S'H\x1e`<'
p410
tp411
Rp412
ag1
(g5
S'0dp<'
p413
tp414
Rp415
ag1
(g5
S'Xme<'
p416
tp417
Rp418
ag1
(g5
S'?\xc0e<'
p419
tp420
Rp421
ag1
(g5
S'0\x08j<'
p422
tp423
Rp424
ag1
(g5
S'\xea3\x81<'
p425
tp426
Rp427
ag1
(g5
S'FPl<'
p428
tp429
Rp430
ag1
(g5
S'\x86\xa9i<'
p431
tp432
Rp433
ag1
(g5
S'\xa5un<'
p434
tp435
Rp436
ag1
(g5
S'k\xe5u<'
p437
tp438
Rp439
ag1
(g5
S'\xbc\xd8g<'
p440
tp441
Rp442
ag1
(g5
S'\x0e\xc0x<'
p443
tp444
Rp445
ag1
(g5
S'T\xdag<'
p446
tp447
Rp448
ag1
(g5
S'@Ur<'
p449
tp450
Rp451
ag1
(g5
S'[\xb0f<'
p452
tp453
Rp454
ag1
(g5
S'\xfa\x91l<'
p455
tp456
Rp457
ag1
(g5
S'9sq<'
p458
tp459
Rp460
ag1
(g5
S',8U<'
p461
tp462
Rp463
ag1
(g5
S'{\xdcj<'
p464
tp465
Rp466
ag1
(g5
S'\xe8\xb2t<'
p467
tp468
Rp469
ag1
(g5
S'\x82@V<'
p470
tp471
Rp472
ag1
(g5
S'\x1d4u<'
p473
tp474
Rp475
ag1
(g5
S'M^q<'
p476
tp477
Rp478
ag1
(g5
S'\x1eDW<'
p479
tp480
Rp481
ag1
(g5
S'\xb55r<'
p482
tp483
Rp484
ag1
(g5
S'\x03\xdcp<'
p485
tp486
Rp487
ag1
(g5
S'b\xe8j<'
p488
tp489
Rp490
ag1
(g5
S'\xbd8v<'
p491
tp492
Rp493
ag1
(g5
S'\xd3\x93[<'
p494
tp495
Rp496
ag1
(g5
S'\xb5\x97t<'
p497
tp498
Rp499
ag1
(g5
S'\xc3\x02\x82<'
p500
tp501
Rp502
ag1
(g5
S'\x18lq<'
p503
tp504
Rp505
ag1
(g5
S'\xed\x13b<'
p506
tp507
Rp508
ag1
(g5
S'\xf6P|<'
p509
tp510
Rp511
ag1
(g5
S'\xc0\x84f<'
p512
tp513
Rp514
ag1
(g5
S'c\x91|<'
p515
tp516
Rp517
ag1
(g5
S'\xdc\x06u<'
p518
tp519
Rp520
ag1
(g5
S'\x02}t<'
p521
tp522
Rp523
ag1
(g5
S'c\x12r<'
p524
tp525
Rp526
ag1
(g5
S'\x16\xd7u<'
p527
tp528
Rp529
ag1
(g5
S'\xb5(w<'
p530
tp531
Rp532
ag1
(g5
S'\xf1*z<'
p533
tp534
Rp535
ag1
(g5
S'\xae\xedb<'
p536
tp537
Rp538
ag1
(g5
S'\xe3\xe5s<'
p539
tp540
Rp541
ag1
(g5
S'\xfe*U<'
p542
tp543
Rp544
ag1
(g5
S'\xf6\x1cm<'
p545
tp546
Rp547
ag1
(g5
S'\x99\xd0k<'
p548
tp549
Rp550
ag1
(g5
S',0l<'
p551
tp552
Rp553
ag1
(g5
S'\x9e\x11y<'
p554
tp555
Rp556
ag1
(g5
S'\x90\xf8}<'
p557
tp558
Rp559
ag1
(g5
S'\xfc\x13_<'
p560
tp561
Rp562
ag1
(g5
S'\xba\xf3d<'
p563
tp564
Rp565
ag1
(g5
S'=\x8bv<'
p566
tp567
Rp568
ag1
(g5
S'\xa8\xcfm<'
p569
tp570
Rp571
ag1
(g5
S'\xa2\xcan<'
p572
tp573
Rp574
ag1
(g5
S'\xc4<a<'
p575
tp576
Rp577
ag1
(g5
S'W,m<'
p578
tp579
Rp580
ag1
(g5
S'\x1c*p<'
p581
tp582
Rp583
ag1
(g5
S'r\xden<'
p584
tp585
Rp586
ag1
(g5
S'\xe2\xech<'
p587
tp588
Rp589
ag1
(g5
S'\x03:z<'
p590
tp591
Rp592
ag1
(g5
S'\x7f\xc9v<'
p593
tp594
Rp595
ag1
(g5
S'\xab\xc9]<'
p596
tp597
Rp598
ag1
(g5
S'\xe3!n<'
p599
tp600
Rp601
ag1
(g5
S'\xf0\x86c<'
p602
tp603
Rp604
ag1
(g5
S'\x93\xddc<'
p605
tp606
Rp607
ag1
(g5
S'\\\xe9g<'
p608
tp609
Rp610
ag1
(g5
S'\xd10\x80<'
p611
tp612
Rp613
ag1
(g5
S'\x9fUj<'
p614
tp615
Rp616
ag1
(g5
S'5\xd6g<'
p617
tp618
Rp619
ag1
(g5
S'O\x9el<'
p620
tp621
Rp622
ag1
(g5
S'\x0f1t<'
p623
tp624
Rp625
ag1
(g5
S'\x89\xfae<'
p626
tp627
Rp628
ag1
(g5
S'\xf3\xd2v<'
p629
tp630
Rp631
ag1
(g5
S'\x02\x1df<'
p632
tp633
Rp634
ag1
(g5
S'\x14\xb7p<'
p635
tp636
Rp637
ag1
(g5
S'\xbc\x1ce<'
p638
tp639
Rp640
ag1
(g5
S'\xe0\xdej<'
p641
tp642
Rp643
ag1
(g5
S'4\x03p<'
p644
tp645
Rp646
ag1
(g5
S'\xa4\xa0S<'
p647
tp648
Rp649
ag1
(g5
S'\x92\x87i<'
p650
tp651
Rp652
ag1
(g5
S'c\xf5r<'
p653
tp654
Rp655
ag1
(g5
S'\xd4\x8fT<'
p656
tp657
Rp658
ag1
(g5
S'"\x84s<'
p659
tp660
Rp661
ag1
(g5
S'=\xd0o<'
p662
tp663
Rp664
ag1
(g5
S'\xd4\xd1U<'
p665
tp666
Rp667
ag1
(g5
S'\xda\tq<'
p668
tp669
Rp670
ag1
(g5
S'7\x93o<'
p671
tp672
Rp673
ag1
(g5
S'\xdb\x99i<'
p674
tp675
Rp676
ag1
(g5
S'8\x01u<'
p677
tp678
Rp679
ag1
(g5
S'1^Z<'
p680
tp681
Rp682
ag1
(g5
S'~8s<'
p683
tp684
Rp685
ag1
(g5
S'\x07J\x81<'
p686
tp687
Rp688
ag1
(g5
S'\xd2\x0ep<'
p689
tp690
Rp691
ag1
(g5
S'\xa4\xd2`<'
p692
tp693
Rp694
ag1
(g5
S'\x03\x1c{<'
p695
tp696
Rp697
ag1
(g5
S'\xf1we<'
p698
tp699
Rp700
ag1
(g5
S'\x9fM{<'
p701
tp702
Rp703
ag1
(g5
S'3\xcas<'
p704
tp705
Rp706
ag1
(g5
S'V^s<'
p707
tp708
Rp709
ag1
(g5
S'\xf2\xe9p<'
p710
tp711
Rp712
ag1
(g5
S'x\x9ft<'
p713
tp714
Rp715
ag1
(g5
S'\xc3\xeeu<'
p716
tp717
Rp718
ag1
(g5
S'\xae\x1ey<'
p719
tp720
Rp721
ag1
(g5
S'I\xc2a<'
p722
tp723
Rp724
ag1
(g5
S"'\xd6r<"
p725
tp726
Rp727
ag1
(g5
S'\xd5ET<'
p728
tp729
Rp730
ag1
(g5
S'\x18\x11l<'
p731
tp732
Rp733
ag1
(g5
S'\xc2\xbej<'
p734
tp735
Rp736
ag1
(g5
S'\xb9#k<'
p737
tp738
Rp739
ag1
(g5
S'\r\xffw<'
p740
tp741
Rp742
ag1
(g5
S'B\x0f}<'
p743
tp744
Rp745
ag1
(g5
S'Z\xf9]<'
p746
tp747
Rp748
ag1
(g5
S'\xe5\x06d<'
p749
tp750
Rp751
ag1
(g5
S'\\Ju<'
p752
tp753
Rp754
ag1
(g5
S'(\xe3l<'
p755
tp756
Rp757
ag1
(g5
S',\xd5m<'
p758
tp759
Rp760
ag1
(g5
S'\x9aB`<'
p761
tp762
Rp763
ag1
(g5
S'\xa50l<'
p764
tp765
Rp766
ag1
(g5
S'\xf3"o<'
p767
tp768
Rp769
ag1
(g5
S'\x19\xffm<'
p770
tp771
Rp772
ag1
(g5
S'\xab\xb9g<'
p773
tp774
Rp775
ag1
(g5
S'>Ey<'
p776
tp777
Rp778
ag1
(g5
S'\xe9\xc0u<'
p779
tp780
Rp781
ag1
(g5
S'\r\xe8\\<'
p782
tp783
Rp784
ag1
(g5
S'\xb8$m<'
p785
tp786
Rp787
ag1
(g5
S'\xb4\x96b<'
p788
tp789
Rp790
ag1
(g5
S';\xd7b<'
p791
tp792
Rp793
ag1
(g5
S'\x80$g<'
p794
tp795
Rp796
ag1
(g5
S'lb\x7f<'
p797
tp798
Rp799
ag1
(g5
S'\x83ki<'
p800
tp801
Rp802
ag1
(g5
S'\xac\rg<'
p803
tp804
Rp805
ag1
(g5
S'\x06\x98k<'
p806
tp807
Rp808
ag1
(g5
S'\xb2&s<'
p809
tp810
Rp811
ag1
(g5
S'T\x0ee<'
p812
tp813
Rp814
ag1
(g5
S'~\xd6u<'
p815
tp816
Rp817
ag1
(g5
S'#Se<'
p818
tp819
Rp820
ag1
(g5
S'\xd9so<'
p821
tp822
Rp823
ag1
(g5
S'@]d<'
p824
tp825
Rp826
ag1
(g5
S'\xd3\xc4i<'
p827
tp828
Rp829
ag1
(g5
S'dEo<'
p830
tp831
Rp832
ag1
(g5
S'1\xcaR<'
p833
tp834
Rp835
ag1
(g5
S'E\x87h<'
p836
tp837
Rp838
ag1
(g5
S'\xd9\x15r<'
p839
tp840
Rp841
ag1
(g5
S'\xfd\xcbS<'
p842
tp843
Rp844
ag1
(g5
S'\xd7\x9er<'
p845
tp846
Rp847
ag1
(g5
S'\xff\x1bo<'
p848
tp849
Rp850
ag1
(g5
S'j\xdfT<'
p851
tp852
Rp853
ag1
(g5
S'\xafHp<'
p854
tp855
Rp856
ag1
(g5
S'\xba\xafn<'
p857
tp858
Rp859
ag1
(g5
S'\x03\xfah<'
p860
tp861
Rp862
ag1
(g5
S'V\x0bt<'
p863
tp864
Rp865
ag1
(g5
S'\xf6\x93Y<'
p866
tp867
Rp868
ag1
(g5
S'\x11\x7fr<'
p869
tp870
Rp871
ag1
(g5
S'\x86\xf8\x80<'
p872
tp873
Rp874
ag1
(g5
S'\xfaUo<'
p875
tp876
Rp877
ag1
(g5
S'2\xfc_<'
p878
tp879
Rp880
ag1
(g5
S'\xeb+z<'
p881
tp882
Rp883
ag1
(g5
S'N\x90d<'
p884
tp885
Rp886
ag1
(g5
S'\xa3lz<'
p887
tp888
Rp889
ag1
(g5
S'$\x1fs<'
p890
tp891
Rp892
ag1
(g5
S'\xcc\xa0r<'
p893
tp894
Rp895
ag1
(g5
S'\x159p<'
p896
tp897
Rp898
ag1
(g5
S'\xd1\xf9s<'
p899
tp900
Rp901
ag1
(g5
S'\xff\x0eu<'
p902
tp903
Rp904
ag1
(g5
S'\xc1Jx<'
p905
tp906
Rp907
ag1
(g5
S'\x9f)a<'
p908
tp909
Rp910
ag1
(g5
S'\xebSr<'
p911
tp912
Rp913
ag1
(g5
S'\xc9_S<'
p914
tp915
Rp916
ag1
(g5
S'Rkk<'
p917
tp918
Rp919
ag1
(g5
S'\x1f\xfei<'
p920
tp921
Rp922
ag1
(g5
S'\x18oj<'
p923
tp924
Rp925
ag1
(g5
S'\xa0>w<'
p926
tp927
Rp928
ag1
(g5
S'{a|<'
p929
tp930
Rp931
ag1
(g5
S'\x95C]<'
p932
tp933
Rp934
ag1
(g5
S'\xc9Nc<'
p935
tp936
Rp937
ag1
(g5
S'\xf7\xa3t<'
p938
tp939
Rp940
ag1
(g5
S'):l<'
p941
tp942
Rp943
ag1
(g5
S'&&m<'
p944
tp945
Rp946
ag1
(g5
S'2\x8b_<'
p947
tp948
Rp949
ag1
(g5
S'\xbayk<'
p950
tp951
Rp952
ag1
(g5
S'\x02dn<'
p953
tp954
Rp955
ag1
(g5
S'\x9f1m<'
p956
tp957
Rp958
ag1
(g5
S'Q\xf2f<'
p959
tp960
Rp961
ag1
(g5
S'\x0f\x9dx<'
p962
tp963
Rp964
ag1
(g5
S'\x02\x03u<'
p965
tp966
Rp967
ag1
(g5
S'\x90\x02\\<'
p968
tp969
Rp970
ag1
(g5
S'\xb4\x9bl<'
p971
tp972
Rp973
ag1
(g5
S'S\xdba<'
p974
tp975
Rp976
ag1
(g5
S'\xbbcb<'
p977
tp978
Rp979
ag1
(g5
S'\x08cf<'
p980
tp981
Rp982
ag1
(g5
S'\xa5\x83~<'
p983
tp984
Rp985
ag1
(g5
S'0\xdch<'
p986
tp987
Rp988
ag1
(g5
S'Xef<'
p989
tp990
Rp991
ag1
(g5
S'\xfe\xedj<'
p992
tp993
Rp994
ag1
(g5
S'\xe6\x94r<'
p995
tp996
Rp997
ag1
(g5
S'bad<'
p998
tp999
Rp1000
ag1
(g5
S'-\xedt<'
p1001
tp1002
Rp1003
ag1
(g5
S')\x85d<'
p1004
tp1005
Rp1006
ag1
(g5
S'\r\x1do<'
p1007
tp1008
Rp1009
ag1
(g5
S'\x98|c<'
p1010
tp1011
Rp1012
ag1
(g5
S'\xad\x1ai<'
p1013
tp1014
Rp1015
ag1
(g5
S'\x13\x8cn<'
p1016
tp1017
Rp1018
ag1
(g5
S'\x1a\x07R<'
p1019
tp1020
Rp1021
ag1
(g5
S'W\xf2g<'
p1022
tp1023
Rp1024
ag1
(g5
S'\x11dq<'
p1025
tp1026
Rp1027
ag1
(g5
S'\x89,S<'
p1028
tp1029
Rp1030
ag1
(g5
S'*\xecq<'
p1031
tp1032
Rp1033
ag1
(g5
S'ynn<'
p1034
tp1035
Rp1036
ag1
(g5
S'\xd8YT<'
p1037
tp1038
Rp1039
ag1
(g5
S'\xf0\x89o<'
p1040
tp1041
Rp1042
ag1
(g5
S'\xcb\xf4m<'
p1043
tp1044
Rp1045
ag1
(g5
S'xdh<'
p1046
tp1047
Rp1048
ag1
(g5
S'\x95Js<'
p1049
tp1050
Rp1051
ag1
(g5
S'%\xdeX<'
p1052
tp1053
Rp1054
ag1
(g5
S'\xfc\xb6q<'
p1055
tp1056
Rp1057
ag1
(g5
S'd\x8d\x80<'
p1058
tp1059
Rp1060
ag1
(g5
S'\xd6\x95n<'
p1061
tp1062
Rp1063
ag1
(g5
S'Xf_<'
p1064
tp1065
Rp1066
ag1
(g5
S'\xc1\x85y<'
p1067
tp1068
Rp1069
ag1
(g5
S'\x0b\x03d<'
p1070
tp1071
Rp1072
ag1
(g5
S'd\xa5y<'
p1073
tp1074
Rp1075
ag1
(g5
S'\x9fYr<'
p1076
tp1077
Rp1078
ag1
(g5
S'\xec\xdeq<'
p1079
tp1080
Rp1081
ag1
(g5
S'*\x84o<'
p1082
tp1083
Rp1084
ag1
(g5
S"D's<"
p1085
tp1086
Rp1087
ag1
(g5
S'\xd8Qt<'
p1088
tp1089
Rp1090
ag1
(g5
S'\x00\x82w<'
p1091
tp1092
Rp1093
ag1
(g5
S'=n`<'
p1094
tp1095
Rp1096
ag1
(g5
S'\xa3~q<'
p1097
tp1098
Rp1099
ag1
(g5
S'\x94\xbbR<'
p1100
tp1101
Rp1102
ag1
(g5
S'\n\x89j<'
p1103
tp1104
Rp1105
ag1
(g5
S'\x18\xedh<'
p1106
tp1107
Rp1108
ag1
(g5
S'\xc5\xafi<'
p1109
tp1110
Rp1111
ag1
(g5
S'\xbdTv<'
p1112
tp1113
Rp1114
ag1
(g5
S'5\x9d{<'
p1115
tp1116
Rp1117
ag1
(g5
S'\xd0r\\<'
p1118
tp1119
Rp1120
ag1
(g5
S'\x03\x98b<'
p1121
tp1122
Rp1123
ag1
(g5
S'!\xbfs<'
p1124
tp1125
Rp1126
ag1
(g5
S'\x03sk<'
p1127
tp1128
Rp1129
ag1
(g5
S'1Bl<'
p1130
tp1131
Rp1132
ag1
(g5
S')\xac^<'
p1133
tp1134
Rp1135
ag1
(g5
S'[\x9bj<'
p1136
tp1137
Rp1138
ag1
(g5
S'RVm<'
p1139
tp1140
Rp1141
ag1
(g5
S'\xd6Zl<'
p1142
tp1143
Rp1144
ag1
(g5
S'\xea\x0ef<'
p1145
tp1146
Rp1147
ag1
(g5
S'\xb1\xbdw<'
p1148
tp1149
Rp1150
ag1
(g5
S'\xb7\x11t<'
p1151
tp1152
Rp1153
ag1
(g5
S'\x12k[<'
p1154
tp1155
Rp1156
ag1
(g5
S'\x8d\xb4k<'
p1157
tp1158
Rp1159
ag1
(g5
S'=\x14a<'
p1160
tp1161
Rp1162
ag1
(g5
S'j{a<'
p1163
tp1164
Rp1165
ag1
(g5
S'\x8f\x85e<'
p1166
tp1167
Rp1168
ag1
(g5
S'a\xb6}<'
p1169
tp1170
Rp1171
ag1
(g5
S'S h<'
p1172
tp1173
Rp1174
ag1
(g5
S'\xd0_e<'
p1175
tp1176
Rp1177
ag1
(g5
S'DFj<'
p1178
tp1179
Rp1180
ag1
(g5
S'\xc5\xc2q<'
p1181
tp1182
Rp1183
ag1
(g5
S'\xc5\x8bc<'
p1184
tp1185
Rp1186
ag1
(g5
S'\xf2\xfas<'
p1187
tp1188
Rp1189
ag1
(g5
S'n\xb2c<'
p1190
tp1191
Rp1192
ag1
(g5
S'\xd3\x12n<'
p1193
tp1194
Rp1195
ag1
(g5
S'\xba\xdab<'
p1196
tp1197
Rp1198
ag1
(g5
S'\xed#h<'
p1199
tp1200
Rp1201
ag1
(g5
S'f\xc2m<'
p1202
tp1203
Rp1204
ag1
(g5
S'\xac\x0cQ<'
p1205
tp1206
Rp1207
ag1
(g5
S'o;g<'
p1208
tp1209
Rp1210
ag1
(g5
S'\x01kp<'
p1211
tp1212
Rp1213
ag1
(g5
S'8;R<'
p1214
tp1215
Rp1216
ag1
(g5
S'\xdb\x1eq<'
p1217
tp1218
Rp1219
ag1
(g5
S'\xca\x9am<'
p1220
tp1221
Rp1222
ag1
(g5
S']\x85S<'
p1223
tp1224
Rp1225
ag1
(g5
S'\xa4\xa0n<'
p1226
tp1227
Rp1228
ag1
(g5
S'\xc7\xe9l<'
p1229
tp1230
Rp1231
ag1
(g5
S'\xb1\x99g<'
p1232
tp1233
Rp1234
ag1
(g5
S'\xd2*r<'
p1235
tp1236
Rp1237
ag1
(g5
S'\xef)X<'
p1238
tp1239
Rp1240
ag1
(g5
S'3\xaap<'
p1241
tp1242
Rp1243
ag1
(g5
S'\x00+\x80<'
p1244
tp1245
Rp1246
ag1
(g5
S'B\xbam<'
p1247
tp1248
Rp1249
ag1
(g5
S'!m^<'
p1250
tp1251
Rp1252
ag1
(g5
S'.\x94x<'
p1253
tp1254
Rp1255
ag1
(g5
S'q\xf6b<'
p1256
tp1257
Rp1258
ag1
(g5
S'@\xbex<'
p1259
tp1260
Rp1261
ag1
(g5
S'Euq<'
p1262
tp1263
Rp1264
ag1
(g5
S'[\x07q<'
p1265
tp1266
Rp1267
ag1
(g5
S'b\xbdn<'
p1268
tp1269
Rp1270
ag1
(g5
S'vTr<'
p1271
tp1272
Rp1273
ag1
(g5
S'@Es<'
p1274
tp1275
Rp1276
ag1
(g5
S'\x04uv<'
p1277
tp1278
Rp1279
ag1
(g5
S'\x1a\x95_<'
p1280
tp1281
Rp1282
ag1
(g5
S'\x08\xaap<'
p1283
tp1284
Rp1285
ag1
(g5
S'2\xe5Q<'
p1286
tp1287
Rp1288
ag1
(g5
S'\x0b\x92i<'
p1289
tp1290
Rp1291
ag1
(g5
S'\x01\x0bh<'
p1292
tp1293
Rp1294
ag1
(g5
S'\x00\xa1h<'
p1295
tp1296
Rp1297
ag1
(g5
S'r}u<'
p1298
tp1299
Rp1300
ag1
(g5
S'!\xafz<'
p1301
tp1302
Rp1303
ag1
(g5
S'!l[<'
p1304
tp1305
Rp1306
ag1
(g5
S'\xe5\xa7a<'
p1307
tp1308
Rp1309
ag1
(g5
S'`\xb5r<'
p1310
tp1311
Rp1312
ag1
(g5
S'\x87\x89j<'
p1313
tp1314
Rp1315
ag1
(g5
S'@\\k<'
p1316
tp1317
Rp1318
ag1
(g5
S'\x82\x9e]<'
p1319
tp1320
Rp1321
ag1
(g5
S'\xce\x9ci<'
p1322
tp1323
Rp1324
ag1
(g5
S'\xf1el<'
p1325
tp1326
Rp1327
ag1
(g5
S'xtk<'
p1328
tp1329
Rp1330
ag1
(g5
S'\xf0\xe3d<'
p1331
tp1332
Rp1333
ag1
(g5
S'8\xacv<'
p1334
tp1335
Rp1336
ag1
(g5
S'\x05*s<'
p1337
tp1338
Rp1339
ag1
(g5
S'`fZ<'
p1340
tp1341
Rp1342
ag1
(g5
S'\xdf\xc0j<'
p1343
tp1344
Rp1345
ag1
(g5
S'X<`<'
p1346
tp1347
Rp1348
ag1
(g5
S',\xaf`<'
p1349
tp1350
Rp1351
ag1
(g5
S'lxd<'
p1352
tp1353
Rp1354
ag1
(g5
S'\xf3\xac|<'
p1355
tp1356
Rp1357
ag1
(g5
S'\xf8\x1fg<'
p1358
tp1359
Rp1360
ag1
(g5
S'\xe1\x8ad<'
p1361
tp1362
Rp1363
ag1
(g5
S'\xbbXi<'
p1364
tp1365
Rp1366
ag1
(g5
S'\x1f\xeap<'
p1367
tp1368
Rp1369
ag1
(g5
S'U\xa0b<'
p1370
tp1371
Rp1372
ag1
(g5
S'u\xf5r<'
p1373
tp1374
Rp1375
ag1
(g5
S'O\xc6b<'
p1376
tp1377
Rp1378
ag1
(g5
S'm\xddl<'
p1379
tp1380
Rp1381
ag1
(g5
S'\x0e\xd3a<'
p1382
tp1383
Rp1384
ag1
(g5
S'@\xd4f<'
p1385
tp1386
Rp1387
ag1
(g5
S'+\xb1l<'
p1388
tp1389
Rp1390
ag1
(g5
S'^\x1bP<'
p1391
tp1392
Rp1393
ag1
(g5
S'\xdc@f<'
p1394
tp1395
Rp1396
ag1
(g5
S'q>o<'
p1397
tp1398
Rp1399
ag1
(g5
S'UJQ<'
p1400
tp1401
Rp1402
ag1
(g5
S'\xd6\xd9o<'
p1403
tp1404
Rp1405
ag1
(g5
S'\xe4\xa5l<'
p1406
tp1407
Rp1408
ag1
(g5
S'x\x8aR<'
p1409
tp1410
Rp1411
ag1
(g5
S'C\x9bm<'
p1412
tp1413
Rp1414
ag1
(g5
S'\xab\xe1k<'
p1415
tp1416
Rp1417
ag1
(g5
S'\xb0\xc3f<'
p1418
tp1419
Rp1420
ag1
(g5
S'\x07\x0bq<'
p1421
tp1422
Rp1423
ag1
(g5
S'\x19@W<'
p1424
tp1425
Rp1426
ag1
(g5
S'\nno<'
p1427
tp1428
Rp1429
ag1
(g5
S'\xc9\x12\x7f<'
p1430
tp1431
Rp1432
ag1
(g5
S'_\xd3l<'
p1433
tp1434
Rp1435
ag1
(g5
S'Ig]<'
p1436
tp1437
Rp1438
ag1
(g5
S'\xa7[w<'
p1439
tp1440
Rp1441
ag1
(g5
S'=\xf5a<'
p1442
tp1443
Rp1444
ag1
(g5
S'\x93\x9cw<'
p1445
tp1446
Rp1447
ag1
(g5
S'WIp<'
p1448
tp1449
Rp1450
ag1
(g5
S'T\xd7o<'
p1451
tp1452
Rp1453
ag1
(g5
S'9\x81m<'
p1454
tp1455
Rp1456
ag1
(g5
S'\x1e/q<'
p1457
tp1458
Rp1459
ag1
(g5
S'\xceMr<'
p1460
tp1461
Rp1462
ag1
(g5
S'\x89nu<'
p1463
tp1464
Rp1465
ag1
(g5
S'\x18\x9a^<'
p1466
tp1467
Rp1468
ag1
(g5
S'\x15\x96o<'
p1469
tp1470
Rp1471
ag1
(g5
S'c\x19Q<'
p1472
tp1473
Rp1474
ag1
(g5
S'~\x84h<'
p1475
tp1476
Rp1477
ag1
(g5
S'^\xd3f<'
p1478
tp1479
Rp1480
ag1
(g5
S'\x8b\x92g<'
p1481
tp1482
Rp1483
ag1
(g5
S'\xa85t<'
p1484
tp1485
Rp1486
ag1
(g5
S'\x8b}y<'
p1487
tp1488
Rp1489
ag1
(g5
S'\xa0wZ<'
p1490
tp1491
Rp1492
ag1
(g5
S'\x8f\xa6`<'
p1493
tp1494
Rp1495
ag1
(g5
S'xyq<'
p1496
tp1497
Rp1498
ag1
(g5
S'\xc8\x8di<'
p1499
tp1500
Rp1501
ag1
(g5
S'\xe0\x1fj<'
p1502
tp1503
Rp1504
ag1
(g5
S'\xc0j\\<'
p1505
tp1506
Rp1507
ag1
(g5
S'Zph<'
p1508
tp1509
Rp1510
ag1
(g5
S'\xe0\xf7j<'
p1511
tp1512
Rp1513
ag1
(g5
S'\xed3j<'
p1514
tp1515
Rp1516
ag1
(g5
S'\x0b\xb5c<'
p1517
tp1518
Rp1519
ag1
(g5
S'\xb1hu<'
p1520
tp1521
Rp1522
ag1
(g5
S'\xac\xa7q<'
p1523
tp1524
Rp1525
ag1
(g5
S'n=Y<'
p1526
tp1527
Rp1528
ag1
(g5
S'm\x8ci<'
p1529
tp1530
Rp1531
ag1
(g5
S'\xa0\x1b_<'
p1532
tp1533
Rp1534
ag1
(g5
S'\x05\x93_<'
p1535
tp1536
Rp1537
ag1
(g5
S'\\\x1fc<'
p1538
tp1539
Rp1540
ag1
(g5
S'{S{<'
p1541
tp1542
Rp1543
ag1
(g5
S'm\xeee<'
p1544
tp1545
Rp1546
ag1
(g5
S'r(c<'
p1547
tp1548
Rp1549
ag1
(g5
S'\xca\x1eh<'
p1550
tp1551
Rp1552
ag1
(g5
S'0\xb9o<'
p1553
tp1554
Rp1555
ag1
(g5
S'\x01\x8da<'
p1556
tp1557
Rp1558
ag1
(g5
S'\xea\x92q<'
p1559
tp1560
Rp1561
ag1
(g5
S'\x8f\x9da<'
p1562
tp1563
Rp1564
ag1
(g5
S'\xc7\x9dk<'
p1565
tp1566
Rp1567
ag1
(g5
S'\xe4\xe6`<'
p1568
tp1569
Rp1570
ag1
(g5
S'\rVe<'
p1571
tp1572
Rp1573
ag1
(g5
S'\xf6hk<'
p1574
tp1575
Rp1576
ag1
(g5
S'\xcb\xd3N<'
p1577
tp1578
Rp1579
ag1
(g5
S'\xa6\xecd<'
p1580
tp1581
Rp1582
ag1
(g5
S'\xce\xddm<'
p1583
tp1584
Rp1585
ag1
(g5
S'\xa7\xffO<'
p1586
tp1587
Rp1588
ag1
(g5
S'U\x9cn<'
p1589
tp1590
Rp1591
ag1
(g5
S'e\x82k<'
p1592
tp1593
Rp1594
ag1
(g5
S'\xe13Q<'
p1595
tp1596
Rp1597
ag1
(g5
S'6^l<'
p1598
tp1599
Rp1600
ag1
(g5
S'\x95tj<'
p1601
tp1602
Rp1603
ag1
(g5
S'\xc1\xace<'
p1604
tp1605
Rp1606
ag1
(g5
S'\x8b\x7fo<'
p1607
tp1608
Rp1609
ag1
(g5
S'\x85\xe1U<'
p1610
tp1611
Rp1612
ag1
(g5
S'\xf2"n<'
p1613
tp1614
Rp1615
ag1
(g5
S'\xf3\xb9}<'
p1616
tp1617
Rp1618
ag1
(g5
S'\xfd\x94k<'
p1619
tp1620
Rp1621
ag1
(g5
S'\x08\x14\\<'
p1622
tp1623
Rp1624
ag1
(g5
S'*\xf9u<'
p1625
tp1626
Rp1627
ag1
(g5
S'T\x86`<'
p1628
tp1629
Rp1630
ag1
(g5
S'nCv<'
p1631
tp1632
Rp1633
ag1
(g5
S'\x98\xc9n<'
p1634
tp1635
Rp1636
ag1
(g5
S'a\xcdn<'
p1637
tp1638
Rp1639
ag1
(g5
S'r:l<'
p1640
tp1641
Rp1642
ag1
(g5
S'4\x07p<'
p1643
tp1644
Rp1645
ag1
(g5
S'g8q<'
p1646
tp1647
Rp1648
ag1
(g5
S'\x9c\x02t<'
p1649
tp1650
Rp1651
ag1
(g5
S'\xfeq]<'
p1652
tp1653
Rp1654
ag1
(g5
S',vn<'
p1655
tp1656
Rp1657
ag1
(g5
S'\xb9\xcfO<'
p1658
tp1659
Rp1660
ag1
(g5
S',-g<'
p1661
tp1662
Rp1663
ag1
(g5
S'Cve<'
p1664
tp1665
Rp1666
ag1
(g5
S'\xd2Tf<'
p1667
tp1668
Rp1669
ag1
(g5
S'\x8d\xc4r<'
p1670
tp1671
Rp1672
ag1
(g5
S'\x9e5x<'
p1673
tp1674
Rp1675
ag1
(g5
S'\xbb\x0bY<'
p1676
tp1677
Rp1678
ag1
(g5
S'X\x9b_<'
p1679
tp1680
Rp1681
ag1
(g5
S'~2p<'
p1682
tp1683
Rp1684
ag1
(g5
S'G=h<'
p1685
tp1686
Rp1687
ag1
(g5
S'\xb8\xa8h<'
p1688
tp1689
Rp1690
ag1
(g5
S'3\xd1Z<'
p1691
tp1692
Rp1693
ag1
(g5
S'\x9c\xfdf<'
p1694
tp1695
Rp1696
ag1
(g5
S'\x9a\x88i<'
p1697
tp1698
Rp1699
ag1
(g5
S'\x81\x00i<'
p1700
tp1701
Rp1702
ag1
(g5
S'\xa0Ib<'
p1703
tp1704
Rp1705
ag1
(g5
S'c\xafs<'
p1706
tp1707
Rp1708
ag1
(g5
S'\xf2\x12p<'
p1709
tp1710
Rp1711
ag1
(g5
S'\x8d\xefW<'
p1712
tp1713
Rp1714
ag1
(g5
S'\x1b\xe5g<'
p1715
tp1716
Rp1717
ag1
(g5
S'\xdb\xb5]<'
p1718
tp1719
Rp1720
ag1
(g5
S')c^<'
p1721
tp1722
Rp1723
ag1
(g5
S'\xbd\xa6a<'
p1724
tp1725
Rp1726
ag1
(g5
S'\xbe\x07z<'
p1727
tp1728
Rp1729
ag1
(g5
S'\x11\xa7d<'
p1730
tp1731
Rp1732
ag1
(g5
S'1\xc7a<'
p1733
tp1734
Rp1735
ag1
(g5
S'\xd8\xc1f<'
p1736
tp1737
Rp1738
ag1
(g5
S'!Wn<'
p1739
tp1740
Rp1741
ag1
(g5
S'\xd9/`<'
p1742
tp1743
Rp1744
ag1
(g5
S'\xbc\xcco<'
p1745
tp1746
Rp1747
ag1
(g5
S'p\x1e`<'
p1748
tp1749
Rp1750
ag1
(g5
S'G\x17j<'
p1751
tp1752
Rp1753
ag1
(g5
S'v\x81_<'
p1754
tp1755
Rp1756
ag1
(g5
S'\xb0\x89c<'
p1757
tp1758
Rp1759
ag1
(g5
S'\xe0\xc7i<'
p1760
tp1761
Rp1762
ag1
(g5
S'\x06$M<'
p1763
tp1764
Rp1765
ag1
(g5
S'\x04\x97c<'
p1766
tp1767
Rp1768
ag1
(g5
S'\x96\xfak<'
p1769
tp1770
Rp1771
ag1
(g5
S'\xb2;N<'
p1772
tp1773
Rp1774
ag1
(g5
S'\x02\xf9l<'
p1775
tp1776
Rp1777
ag1
(g5
S'\xca.j<'
p1778
tp1779
Rp1780
ag1
(g5
S'\x19\xf9O<'
p1781
tp1782
Rp1783
ag1
(g5
S'\x98\xc1j<'
p1784
tp1785
Rp1786
ag1
(g5
S'\xea\xd8h<'
p1787
tp1788
Rp1789
ag1
(g5
S'\xa9>d<'
p1790
tp1791
Rp1792
ag1
(g5
S'5\xdam<'
p1793
tp1794
Rp1795
ag1
(g5
S'\x9b\x8cT<'
p1796
tp1797
Rp1798
ag1
(g5
S'\x85il<'
p1799
tp1800
Rp1801
ag1
(g5
S'\xb4\x03|<'
p1802
tp1803
Rp1804
ag1
(g5
S'Q\xf0i<'
p1805
tp1806
Rp1807
ag1
(g5
S'TyZ<'
p1808
tp1809
Rp1810
ag1
(g5
S'P;t<'
p1811
tp1812
Rp1813
ag1
(g5
S'\xed\xdf^<'
p1814
tp1815
Rp1816
ag1
(g5
S'\xef\xcet<'
p1817
tp1818
Rp1819
ag1
(g5
S'\xaeQm<'
p1820
tp1821
Rp1822
ag1
(g5
S'\x06\x1am<'
p1823
tp1824
Rp1825
ag1
(g5
S'\xab\x99j<'
p1826
tp1827
Rp1828
ag1
(g5
S'\x08\x7fn<'
p1829
tp1830
Rp1831
ag1
(g5
S'\x0e\xb0o<'
p1832
tp1833
Rp1834
ag1
(g5
S'\xf8ir<'
p1835
tp1836
Rp1837
ag1
(g5
S'\xf3(\\<'
p1838
tp1839
Rp1840
ag1
(g5
S'S\xf5l<'
p1841
tp1842
Rp1843
ag1
(g5
S'^aN<'
p1844
tp1845
Rp1846
ag1
(g5
S'\x8cke<'
p1847
tp1848
Rp1849
ag1
(g5
S'F\xb0c<'
p1850
tp1851
Rp1852
ag1
(g5
S'\x1d\xdbd<'
p1853
tp1854
Rp1855
ag1
(g5
S'* q<'
p1856
tp1857
Rp1858
ag1
(g5
S'\xba\xb1v<'
p1859
tp1860
Rp1861
ag1
(g5
S'\x19]W<'
p1862
tp1863
Rp1864
ag1
(g5
S'\xc7\xeb]<'
p1865
tp1866
Rp1867
ag1
(g5
S'\x8d\x7fn<'
p1868
tp1869
Rp1870
ag1
(g5
S'\x8c\x95f<'
p1871
tp1872
Rp1873
ag1
(g5
S'R\xe1f<'
p1874
tp1875
Rp1876
ag1
(g5
S':\xc2X<'
p1877
tp1878
Rp1879
ag1
(g5
S'{Se<'
p1880
tp1881
Rp1882
ag1
(g5
S'\xa6\x8bg<'
p1883
tp1884
Rp1885
ag1
(g5
S'\xc5Lg<'
p1886
tp1887
Rp1888
ag1
(g5
S' b`<'
p1889
tp1890
Rp1891
ag1
(g5
S'\xf6\x00r<'
p1892
tp1893
Rp1894
ag1
(g5
S'\x9c\x0bn<'
p1895
tp1896
Rp1897
ag1
(g5
S'{+V<'
p1898
tp1899
Rp1900
ag1
(g5
S'\xe6\nf<'
p1901
tp1902
Rp1903
ag1
(g5
S']\n\\<'
p1904
tp1905
Rp1906
ag1
(g5
S'z\xc5\\<'
p1907
tp1908
Rp1909
ag1
(g5
S'\xb0\x13`<'
p1910
tp1911
Rp1912
ag1
(g5
S'?Ax<'
p1913
tp1914
Rp1915
ag1
(g5
S'\xb9\xfcb<'
p1916
tp1917
Rp1918
ag1
(g5
S'\xa4:`<'
p1919
tp1920
Rp1921
ag1
(g5
S'\x17\xc2d<'
p1922
tp1923
Rp1924
ag1
(g5
S'\x1d\x99l<'
p1925
tp1926
Rp1927
ag1
(g5
S'X`^<'
p1928
tp1929
Rp1930
ag1
(g5
S'\t\x1fn<'
p1931
tp1932
Rp1933
ag1
(g5
S'W\x9b^<'
p1934
tp1935
Rp1936
ag1
(g5
S'\\Nh<'
p1937
tp1938
Rp1939
ag1
(g5
S'\x93*^<'
p1940
tp1941
Rp1942
ag1
(g5
S'\xe8\x92a<'
p1943
tp1944
Rp1945
ag1
(g5
S'\xd83h<'
p1946
tp1947
Rp1948
ag1
(g5
S'\xbfeK<'
p1949
tp1950
Rp1951
ag1
(g5
S'\x12\x05b<'
p1952
tp1953
Rp1954
ag1
(g5
S'\xfeFj<'
p1955
tp1956
Rp1957
ag1
(g5
S'\xd8\x89L<'
p1958
tp1959
Rp1960
ag1
(g5
S'04k<'
p1961
tp1962
Rp1963
ag1
(g5
S'\x86\x89h<'
p1964
tp1965
Rp1966
ag1
(g5
S'lkN<'
p1967
tp1968
Rp1969
ag1
(g5
S'A!i<'
p1970
tp1971
Rp1972
ag1
(g5
S'P4g<'
p1973
tp1974
Rp1975
ag1
(g5
S'\xebsb<'
p1976
tp1977
Rp1978
ag1
(g5
S'W\x0bl<'
p1979
tp1980
Rp1981
ag1
(g5
S'#\xf3R<'
p1982
tp1983
Rp1984
ag1
(g5
S'\x1f\xa8j<'
p1985
tp1986
Rp1987
ag1
(g5
S'\x1diz<'
p1988
tp1989
Rp1990
ag1
(g5
S'1Qh<'
p1991
tp1992
Rp1993
ag1
(g5
S'\xb8\xbbX<'
p1994
tp1995
Rp1996
ag1
(g5
S'\x1bir<'
p1997
tp1998
Rp1999
ag1
(g5
S'0\t]<'
p2000
tp2001
Rp2002
ag1
(g5
S'\xc9\x0cs<'
p2003
tp2004
Rp2005
ag1
(g5
S'\x99\x88k<'
p2006
tp2007
Rp2008
ag1
(g5
S'\x80Bk<'
p2009
tp2010
Rp2011
ag1
(g5
S'\xf8\xa5h<'
p2012
tp2013
Rp2014
ag1
(g5
S'o\xfal<'
p2015
tp2016
Rp2017
ag1
(g5
S'\x0c\xfbm<'
p2018
tp2019
Rp2020
ag1
(g5
S'a\xb7p<'
p2021
tp2022
Rp2023
ag1
(g5
S'\xfe\xc9Z<'
p2024
tp2025
Rp2026
ag1
(g5
S'x6k<'
p2027
tp2028
Rp2029
ag1
(g5
S'w\xe6L<'
p2030
tp2031
Rp2032
ag1
(g5
S'g\xdac<'
p2033
tp2034
Rp2035
ag1
(g5
S'\x9a\xfea<'
p2036
tp2037
Rp2038
ag1
(g5
S'\xa2?c<'
p2039
tp2040
Rp2041
ag1
(g5
S'\x1cao<'
p2042
tp2043
Rp2044
ag1
(g5
S'H\xf8t<'
p2045
tp2046
Rp2047
ag1
(g5
S'\x00\x9dU<'
p2048
tp2049
Rp2050
ag1
(g5
S'\x94o\\<'
p2051
tp2052
Rp2053
ag1
(g5
S'H\xc6l<'
p2054
tp2055
Rp2056
ag1
(g5
S'\xfd\x11e<'
p2057
tp2058
Rp2059
ag1
(g5
S'*\xf4d<'
p2060
tp2061
Rp2062
ag1
(g5
S'\xa1\xd5V<'
p2063
tp2064
Rp2065
ag1
(g5
S'Ytc<'
p2066
tp2067
Rp2068
ag1
(g5
S';\x9be<'
p2069
tp2070
Rp2071
ag1
(g5
S'\xeede<'
p2072
tp2073
Rp2074
ag1
(g5
S'\xb5\xd4^<'
p2075
tp2076
Rp2077
ag1
(g5
S'\xd3Hp<'
p2078
tp2079
Rp2080
ag1
(g5
S'\xcb l<'
p2081
tp2082
Rp2083
ag1
(g5
S'\x87\xaaT<'
p2084
tp2085
Rp2086
ag1
(g5
S')*d<'
p2087
tp2088
Rp2089
ag1
(g5
S'\x8dGZ<'
p2090
tp2091
Rp2092
ag1
(g5
S'\xc9&[<'
p2093
tp2094
Rp2095
ag1
(g5
S'\xdf<^<'
p2096
tp2097
Rp2098
ag1
(g5
S'k\xa0v<'
p2099
tp2100
Rp2101
ag1
(g5
S'rba<'
p2102
tp2103
Rp2104
ag1
(g5
S'8G^<'
p2105
tp2106
Rp2107
ag1
(g5
S'\xf7\x12c<'
p2108
tp2109
Rp2110
ag1
(g5
S'\xda\xdfj<'
p2111
tp2112
Rp2113
ag1
(g5
S')\x97\\<'
p2114
tp2115
Rp2116
ag1
(g5
S'S\x1bl<'
p2117
tp2118
Rp2119
ag1
(g5
S'\xf1\xc6\\<'
p2120
tp2121
Rp2122
ag1
(g5
S'\x94\xbaf<'
p2123
tp2124
Rp2125
ag1
(g5
S'\xccw\\<'
p2126
tp2127
Rp2128
ag1
(g5
S'~H_<'
p2129
tp2130
Rp2131
ag1
(g5
S'\xabif<'
p2132
tp2133
Rp2134
ag1
(g5
S'\x01aI<'
p2135
tp2136
Rp2137
ag1
(g5
S'\x98o`<'
p2138
tp2139
Rp2140
ag1
(g5
S'[Ch<'
p2141
tp2142
Rp2143
ag1
(g5
S'#[J<'
p2144
tp2145
Rp2146
ag1
(g5
S'M\x83i<'
p2147
tp2148
Rp2149
ag1
(g5
S'\xff\xe8f<'
p2150
tp2151
Rp2152
ag1
(g5
S'\x93\xafL<'
p2153
tp2154
Rp2155
ag1
(g5
S'\xd1\rg<'
p2156
tp2157
Rp2158
ag1
(g5
S'2de<'
p2159
tp2160
Rp2161
ag1
(g5
S'\xd2\xf2`<'
p2162
tp2163
Rp2164
ag1
(g5
S')8j<'
p2165
tp2166
Rp2167
ag1
(g5
S'!VQ<'
p2168
tp2169
Rp2170
ag1
(g5
S'\xba\xa6h<'
p2171
tp2172
Rp2173
ag1
(g5
S'\x14\x8ax<'
p2174
tp2175
Rp2176
ag1
(g5
S'%bf<'
p2177
tp2178
Rp2179
ag1
(g5
S'\xd0$W<'
p2180
tp2181
Rp2182
ag1
(g5
S'\tlp<'
p2183
tp2184
Rp2185
ag1
(g5
S'&7[<'
p2186
tp2187
Rp2188
ag1
(g5
S'\xa9\xe7p<'
p2189
tp2190
Rp2191
ag1
(g5
S'\x7fwi<'
p2192
tp2193
Rp2194
ag1
(g5
S'\xccqi<'
p2195
tp2196
Rp2197
ag1
(g5
S'\x1b\xc1f<'
p2198
tp2199
Rp2200
ag1
(g5
S'\xe0wk<'
p2201
tp2202
Rp2203
ag1
(g5
S"'\xfek<"
p2204
tp2205
Rp2206
ag1
(g5
S'8\xcfn<'
p2207
tp2208
Rp2209
ag1
(g5
S"'IY<"
p2210
tp2211
Rp2212
ag1
(g5
S'S\x99i<'
p2213
tp2214
Rp2215
ag1
(g5
S'u2K<'
p2216
tp2217
Rp2218
ag1
(g5
S'\xea\x04b<'
p2219
tp2220
Rp2221
ag1
(g5
S'-\x14`<'
p2222
tp2223
Rp2224
ag1
(g5
S'\x8d|a<'
p2225
tp2226
Rp2227
ag1
(g5
S'\x84\x8dm<'
p2228
tp2229
Rp2230
ag1
(g5
S'bSs<'
p2231
tp2232
Rp2233
ag1
(g5
S'\x12\xcfS<'
p2234
tp2235
Rp2236
ag1
(g5
S'%\xb1Z<'
p2237
tp2238
Rp2239
ag1
(g5
S'\xb0\xf1j<'
p2240
tp2241
Rp2242
ag1
(g5
S'\x14\x93c<'
p2243
tp2244
Rp2245
ag1
(g5
S'\xf0\xdcb<'
p2246
tp2247
Rp2248
ag1
(g5
S'\x9c\x99T<'
p2249
tp2250
Rp2251
ag1
(g5
S'0\x81a<'
p2252
tp2253
Rp2254
ag1
(g5
S'\xc9\x9bc<'
p2255
tp2256
Rp2257
ag1
(g5
S'E\xfac<'
p2258
tp2259
Rp2260
ag1
(g5
S'\xd9\xd4\\<'
p2261
tp2262
Rp2263
ag1
(g5
S'\x86^n<'
p2264
tp2265
Rp2266
ag1
(g5
S'UVj<'
p2267
tp2268
Rp2269
ag1
(g5
S'\xc8\xddR<'
p2270
tp2271
Rp2272
ag1
(g5
S'VZb<'
p2273
tp2274
Rp2275
ag1
(g5
S'\xcd\x80X<'
p2276
tp2277
Rp2278
ag1
(g5
S'[KY<'
p2279
tp2280
Rp2281
ag1
(g5
S'YE\\<'
p2282
tp2283
Rp2284
ag1
(g5
S'\x84\xaat<'
p2285
tp2286
Rp2287
ag1
(g5
S'\xbdq_<'
p2288
tp2289
Rp2290
ag1
(g5
S'\xc8m\\<'
p2291
tp2292
Rp2293
ag1
(g5
S'L\xf4`<'
p2294
tp2295
Rp2296
ag1
(g5
S' \xbeh<'
p2297
tp2298
Rp2299
ag1
(g5
S'\x9c\x8fZ<'
p2300
tp2301
Rp2302
ag1
(g5
S'h&j<'
p2303
tp2304
Rp2305
ag1
(g5
S'#\xe2Z<'
p2306
tp2307
Rp2308
ag1
(g5
S'e\x99d<'
p2309
tp2310
Rp2311
ag1
(g5
S'R\xd1Z<'
p2312
tp2313
Rp2314
ag1
(g5
S"\x81']<"
p2315
tp2316
Rp2317
ag1
(g5
S'\x1e\x95d<'
p2318
tp2319
Rp2320
ag1
(g5
S'$RG<'
p2321
tp2322
Rp2323
ag1
(g5
S'}D^<'
p2324
tp2325
Rp2326
ag1
(g5
S'\xe04f<'
p2327
tp2328
Rp2329
ag1
(g5
S'UVH<'
p2330
tp2331
Rp2332
ag1
(g5
S'f\xc9g<'
p2333
tp2334
Rp2335
ag1
(g5
S'D\xfad<'
p2336
tp2337
Rp2338
ag1
(g5
S'D\xbeJ<'
p2339
tp2340
Rp2341
ag1
(g5
S'\x9a2e<'
p2342
tp2343
Rp2344
ag1
(g5
S'+fc<'
p2345
tp2346
Rp2347
ag1
(g5
S'|\xf3^<'
p2348
tp2349
Rp2350
ag1
(g5
S'"\x1bh<'
p2351
tp2352
Rp2353
ag1
(g5
S'\x04\xa4O<'
p2354
tp2355
Rp2356
ag1
(g5
S'\x03\xb0f<'
p2357
tp2358
Rp2359
ag1
(g5
S'\xcf\xefv<'
p2360
tp2361
Rp2362
ag1
(g5
S'EQd<'
p2363
tp2364
Rp2365
ag1
(g5
S'\x84EU<'
p2366
tp2367
Rp2368
ag1
(g5
S'\x1e\xa7n<'
p2369
tp2370
Rp2371
ag1
(g5
S'E#Y<'
p2372
tp2373
Rp2374
ag1
(g5
S'\xa1\x10o<'
p2375
tp2376
Rp2377
ag1
(g5
S'\xc2~g<'
p2378
tp2379
Rp2380
ag1
(g5
S'\xe5\x91g<'
p2381
tp2382
Rp2383
ag1
(g5
S'\xa4\xb5d<'
p2384
tp2385
Rp2386
ag1
(g5
S'}gi<'
p2387
tp2388
Rp2389
ag1
(g5
S'\x11Bj<'
p2390
tp2391
Rp2392
ag1
(g5
S'\xf7\xe8l<'
p2393
tp2394
Rp2395
ag1
(g5
S'\xdf\x85W<'
p2396
tp2397
Rp2398
ag1
(g5
S'\xaf\x8dg<'
p2399
tp2400
Rp2401
ag1
(g5
S'\xb9GI<'
p2402
tp2403
Rp2404
ag1
(g5
S'$2`<'
p2405
tp2406
Rp2407
ag1
(g5
S'F\xc5]<'
p2408
tp2409
Rp2410
ag1
(g5
S'\rq_<'
p2411
tp2412
Rp2413
ag1
(g5
S'\xb5]k<'
p2414
tp2415
Rp2416
ag1
(g5
S'\x0e|q<'
p2417
tp2418
Rp2419
ag1
(g5
S'\x06\xc5Q<'
p2420
tp2421
Rp2422
ag1
(g5
S'\x06\xb9X<'
p2423
tp2424
Rp2425
ag1
(g5
S'\xbd4i<'
p2426
tp2427
Rp2428
ag1
(g5
S'l\xd1a<'
p2429
tp2430
Rp2431
ag1
(g5
S'\x17\xa6`<'
p2432
tp2433
Rp2434
ag1
(g5
S'IIR<'
p2435
tp2436
Rp2437
ag1
(g5
S'Vz_<'
p2438
tp2439
Rp2440
ag1
(g5
S'\xc1\x84a<'
p2441
tp2442
Rp2443
ag1
(g5
S'[\xc5a<'
p2444
tp2445
Rp2446
ag1
(g5
S'\x8a\xd9Z<'
p2447
tp2448
Rp2449
ag1
(g5
S'\x11\xabl<'
p2450
tp2451
Rp2452
ag1
(g5
S'),h<'
p2453
tp2454
Rp2455
ag1
(g5
S'$\xe5P<'
p2456
tp2457
Rp2458
ag1
(g5
S'\xe4U`<'
p2459
tp2460
Rp2461
ag1
(g5
S')YV<'
p2462
tp2463
Rp2464
ag1
(g5
S'\xe5EW<'
p2465
tp2466
Rp2467
ag1
(g5
S'\x93\x07Z<'
p2468
tp2469
Rp2470
ag1
(g5
S'K[r<'
p2471
tp2472
Rp2473
ag1
(g5
S'X#]<'
p2474
tp2475
Rp2476
ag1
(g5
S',\x02Z<'
p2477
tp2478
Rp2479
ag1
(g5
S'\x1d\xe7^<'
p2480
tp2481
Rp2482
ag1
(g5
S'h\xb7f<'
p2483
tp2484
Rp2485
ag1
(g5
S'NVX<'
p2486
tp2487
Rp2488
ag1
(g5
S'\x12\xaeg<'
p2489
tp2490
Rp2491
ag1
(g5
S'\xc5vX<'
p2492
tp2493
Rp2494
ag1
(g5
S'\xa1zb<'
p2495
tp2496
Rp2497
ag1
(g5
S'\r\xd1X<'
p2498
tp2499
Rp2500
ag1
(g5
S'\xbc\x14[<'
p2501
tp2502
Rp2503
ag1
(g5
S'\xb9\x7fb<'
p2504
tp2505
Rp2506
ag1
(g5
S'.\xf2D<'
p2507
tp2508
Rp2509
ag1
(g5
S'@C\\<'
p2510
tp2511
Rp2512
ag1
(g5
S'\x9f\xefc<'
p2513
tp2514
Rp2515
ag1
(g5
S'{\xb5E<'
p2516
tp2517
Rp2518
ag1
(g5
S'T\x0ff<'
p2519
tp2520
Rp2521
ag1
(g5
S'\x10\xc3b<'
p2522
tp2523
Rp2524
ag1
(g5
S'\xa4sH<'
p2525
tp2526
Rp2527
ag1
(g5
S'Y\xf7b<'
p2528
tp2529
Rp2530
ag1
(g5
S'<\x08a<'
p2531
tp2532
Rp2533
ag1
(g5
S'\xc9\x94\\<'
p2534
tp2535
Rp2536
ag1
(g5
S'\xad\xade<'
p2537
tp2538
Rp2539
ag1
(g5
S'V\x98M<'
p2540
tp2541
Rp2542
ag1
(g5
S'\x94\nd<'
p2543
tp2544
Rp2545
ag1
(g5
S'\xc3tt<'
p2546
tp2547
Rp2548
ag1
(g5
S'c\rb<'
p2549
tp2550
Rp2551
ag1
(g5
S'\x8e.S<'
p2552
tp2553
Rp2554
ag1
(g5
S'\xe4ul<'
p2555
tp2556
Rp2557
ag1
(g5
S'\x1b\x92V<'
p2558
tp2559
Rp2560
ag1
(g5
S'\xb2\xa0l<'
p2561
tp2562
Rp2563
ag1
(g5
S'\xba&e<'
p2564
tp2565
Rp2566
ag1
(g5
S'h\x1de<'
p2567
tp2568
Rp2569
ag1
(g5
S'Y\x1eb<'
p2570
tp2571
Rp2572
ag1
(g5
S'\xd17g<'
p2573
tp2574
Rp2575
ag1
(g5
S'\x97\xc6g<'
p2576
tp2577
Rp2578
ag1
(g5
S'EUj<'
p2579
tp2580
Rp2581
ag1
(g5
S'\x16HU<'
p2582
tp2583
Rp2584
ag1
(g5
S'\xeefe<'
p2585
tp2586
Rp2587
ag1
(g5
S'H\xc1G<'
p2588
tp2589
Rp2590
ag1
(g5
S'\xec\xe1]<'
p2591
tp2592
Rp2593
ag1
(g5
S'D\xaf[<'
p2594
tp2595
Rp2596
ag1
(g5
S'\x12q]<'
p2597
tp2598
Rp2599
ag1
(g5
S'h\xe0h<'
p2600
tp2601
Rp2602
ag1
(g5
S'\xbe\xe5n<'
p2603
tp2604
Rp2605
ag1
(g5
S'\x04uO<'
p2606
tp2607
Rp2608
ag1
(g5
S'\xd1aV<'
p2609
tp2610
Rp2611
ag1
(g5
S'\x07\x87f<'
p2612
tp2613
Rp2614
ag1
(g5
S'\x8b\x89_<'
p2615
tp2616
Rp2617
ag1
(g5
S's\x1b^<'
p2618
tp2619
Rp2620
ag1
(g5
S'\x15\xa7O<'
p2621
tp2622
Rp2623
ag1
(g5
S'{\xae\\<'
p2624
tp2625
Rp2626
ag1
(g5
S'\x06\x01_<'
p2627
tp2628
Rp2629
ag1
(g5
S'\x18\x94_<'
p2630
tp2631
Rp2632
ag1
(g5
S'~hX<'
p2633
tp2634
Rp2635
ag1
(g5
S'\xb5~j<'
p2636
tp2637
Rp2638
ag1
(g5
S'2\x8ae<'
p2639
tp2640
Rp2641
ag1
(g5
S'\x9c\xa1N<'
p2642
tp2643
Rp2644
ag1
(g5
S'e\xc3]<'
p2645
tp2646
Rp2647
ag1
(g5
S'\x8e\x9aS<'
p2648
tp2649
Rp2650
ag1
(g5
S'\x8daT<'
p2651
tp2652
Rp2653
ag1
(g5
S'{PW<'
p2654
tp2655
Rp2656
ag1
(g5
S'M\x05p<'
p2657
tp2658
Rp2659
ag1
(g5
S'qzZ<'
p2660
tp2661
Rp2662
ag1
(g5
S'\xde:W<'
p2663
tp2664
Rp2665
ag1
(g5
S'p\x17\\<'
p2666
tp2667
Rp2668
ag1
(g5
S'\xc5%d<'
p2669
tp2670
Rp2671
ag1
(g5
S'@VU<'
p2672
tp2673
Rp2674
ag1
(g5
S'\xb6\xe5d<'
p2675
tp2676
Rp2677
ag1
(g5
S'\x87QU<'
p2678
tp2679
Rp2680
ag1
(g5
S'\xa0\x82_<'
p2681
tp2682
Rp2683
ag1
(g5
S'hpV<'
p2684
tp2685
Rp2686
ag1
(g5
S'wBX<'
p2687
tp2688
Rp2689
ag1
(g5
S'\xd6u_<'
p2690
tp2691
Rp2692
ag1
(g5
S'}\xc4A<'
p2693
tp2694
Rp2695
ag1
(g5
S'\x96;Y<'
p2696
tp2697
Rp2698
ag1
(g5
S'\x16\xc1`<'
p2699
tp2700
Rp2701
ag1
(g5
S'\x88DB<'
p2702
tp2703
Rp2704
ag1
(g5
S'\x18\x1bc<'
p2705
tp2706
Rp2707
ag1
(g5
S'\xf0V`<'
p2708
tp2709
Rp2710
ag1
(g5
S'\r\x99E<'
p2711
tp2712
Rp2713
ag1
(g5
S'\xc0\x15`<'
p2714
tp2715
Rp2716
ag1
(g5
S'\xf0\x92^<'
p2717
tp2718
Rp2719
ag1
(g5
S'$\xa3Y<'
p2720
tp2721
Rp2722
ag1
(g5
S'\xc8\x83b<'
p2723
tp2724
Rp2725
ag1
(g5
S'\xa8\xf9J<'
p2726
tp2727
Rp2728
ag1
(g5
S'\xcb\x8a`<'
p2729
tp2730
Rp2731
ag1
(g5
S'\xb4\x93q<'
p2732
tp2733
Rp2734
ag1
(g5
S'\xf1%_<'
p2735
tp2736
Rp2737
ag1
(g5
S'?rP<'
p2738
tp2739
Rp2740
ag1
(g5
S'^xi<'
p2741
tp2742
Rp2743
ag1
(g5
S'\xed-S<'
p2744
tp2745
Rp2746
ag1
(g5
S'^\xa9i<'
p2747
tp2748
Rp2749
ag1
(g5
S'\x83\xf6a<'
p2750
tp2751
Rp2752
ag1
(g5
S'\x014b<'
p2753
tp2754
Rp2755
ag1
(g5
S'&\x83^<'
p2756
tp2757
Rp2758
ag1
(g5
S'\xa3\xe0c<'
p2759
tp2760
Rp2761
ag1
(g5
S'\xd1\xaad<'
p2762
tp2763
Rp2764
ag1
(g5
S'\x87\xd7f<'
p2765
tp2766
Rp2767
ag1
(g5
S'\xf9KR<'
p2768
tp2769
Rp2770
ag1
(g5
S' \xaeb<'
p2771
tp2772
Rp2773
ag1
(g5
S'\n\xbeD<'
p2774
tp2775
Rp2776
ag1
(g5
S'\x18\xe7Z<'
p2777
tp2778
Rp2779
ag1
(g5
S'B~X<'
p2780
tp2781
Rp2782
ag1
(g5
S'\x950Z<'
p2783
tp2784
Rp2785
ag1
(g5
S'\x1b6e<'
p2786
tp2787
Rp2788
ag1
(g5
S'\x81\xack<'
p2789
tp2790
Rp2791
ag1
(g5
S'\xdc:L<'
p2792
tp2793
Rp2794
ag1
(g5
S'Y\xd5R<'
p2795
tp2796
Rp2797
ag1
(g5
S'T\xb0c<'
p2798
tp2799
Rp2800
ag1
(g5
S'\x9d\xf7\\<'
p2801
tp2802
Rp2803
ag1
(g5
S'\x0fzZ<'
p2804
tp2805
Rp2806
ag1
(g5
S'\x84\xe8K<'
p2807
tp2808
Rp2809
ag1
(g5
S'\xfe\x04Y<'
p2810
tp2811
Rp2812
ag1
(g5
S'!\x98[<'
p2813
tp2814
Rp2815
ag1
(g5
S'``\\<'
p2816
tp2817
Rp2818
ag1
(g5
S'YUU<'
p2819
tp2820
Rp2821
ag1
(g5
S'HUg<'
p2822
tp2823
Rp2824
ag1
(g5
S'\xd6\xfaa<'
p2825
tp2826
Rp2827
ag1
(g5
S'4aK<'
p2828
tp2829
Rp2830
ag1
(g5
S'\xae6Z<'
p2831
tp2832
Rp2833
ag1
(g5
S'\xf0\x9bP<'
p2834
tp2835
Rp2836
ag1
(g5
S'Q\xf4P<'
p2837
tp2838
Rp2839
ag1
(g5
S'9\xf6S<'
p2840
tp2841
Rp2842
ag1
(g5
S'\xe4\xf9k<'
p2843
tp2844
Rp2845
ag1
(g5
S'\xec\xcfV<'
p2846
tp2847
Rp2848
ag1
(g5
S',\xabS<'
p2849
tp2850
Rp2851
ag1
(g5
S'\xebzX<'
p2852
tp2853
Rp2854
ag1
(g5
S'";`<'
p2855
tp2856
Rp2857
ag1
(g5
S'\xac\x8fQ<'
p2858
tp2859
Rp2860
ag1
(g5
S'\xa2\xb2`<'
p2861
tp2862
Rp2863
ag1
(g5
S'\xe9MQ<'
p2864
tp2865
Rp2866
ag1
(g5
S'\x93\xa9[<'
p2867
tp2868
Rp2869
ag1
(g5
S'\x8e#S<'
p2870
tp2871
Rp2872
ag1
(g5
S'\x98\xc1T<'
p2873
tp2874
Rp2875
ag1
(g5
S'\x1af\\<'
p2876
tp2877
Rp2878
ag1
(g5
S'\x85\x8d<<'
p2879
tp2880
Rp2881
ag1
(g5
S'!\x1fU<'
p2882
tp2883
Rp2884
ag1
(g5
S'\xec\x96\\<'
p2885
tp2886
Rp2887
ag1
(g5
S'\x8f\xdb=<'
p2888
tp2889
Rp2890
ag1
(g5
S'\n\x8e_<'
p2891
tp2892
Rp2893
ag1
(g5
S'2^\\<'
p2894
tp2895
Rp2896
ag1
(g5
S'\x03\xa5A<'
p2897
tp2898
Rp2899
ag1
(g5
S'\xd9-\\<'
p2900
tp2901
Rp2902
ag1
(g5
S'\xaa\xbcZ<'
p2903
tp2904
Rp2905
ag1
(g5
S'TmV<'
p2906
tp2907
Rp2908
ag1
(g5
S'T\xac]<'
p2909
tp2910
Rp2911
ag1
(g5
S'\xa9jG<'
p2912
tp2913
Rp2914
ag1
(g5
S'rl[<'
p2915
tp2916
Rp2917
ag1
(g5
S'\x85 m<'
p2918
tp2919
Rp2920
ag1
(g5
S'\x89\xc7Z<'
p2921
tp2922
Rp2923
ag1
(g5
S'EqL<'
p2924
tp2925
Rp2926
ag1
(g5
S't\x84e<'
p2927
tp2928
Rp2929
ag1
(g5
S'L~O<'
p2930
tp2931
Rp2932
ag1
(g5
S'\x18\xf3e<'
p2933
tp2934
Rp2935
ag1
(g5
S'~U^<'
p2936
tp2937
Rp2938
ag1
(g5
S'U\xf5]<'
p2939
tp2940
Rp2941
ag1
(g5
S'\xe6KZ<'
p2942
tp2943
Rp2944
ag1
(g5
S'\x0f\xa8_<'
p2945
tp2946
Rp2947
ag1
(g5
S'\xb7\x8b`<'
p2948
tp2949
Rp2950
ag1
(g5
S'\x16[b<'
p2951
tp2952
Rp2953
ag1
(g5
S'\xbf\xa9N<'
p2954
tp2955
Rp2956
ag1
(g5
S'\xcaZ^<'
p2957
tp2958
Rp2959
ag1
(g5
S'w\xa0A<'
p2960
tp2961
Rp2962
ag1
(g5
S'r\x0cW<'
p2963
tp2964
Rp2965
ag1
(g5
S'\xb5\x11U<'
p2966
tp2967
Rp2968
ag1
(g5
S'DSV<'
p2969
tp2970
Rp2971
ag1
(g5
S'\xe1\x82a<'
p2972
tp2973
Rp2974
ag1
(g5
S'\x96\xf0f<'
p2975
tp2976
Rp2977
ag1
(g5
S'z\xa2H<'
p2978
tp2979
Rp2980
ag1
(g5
S'\x11\x96N<'
p2981
tp2982
Rp2983
ag1
(g5
S'Q.`<'
p2984
tp2985
Rp2986
ag1
(g5
S'M\xebX<'
p2987
tp2988
Rp2989
ag1
(g5
S'4{U<'
p2990
tp2991
Rp2992
ag1
(g5
S'6\x01G<'
p2993
tp2994
Rp2995
ag1
(g5
S'e\rU<'
p2996
tp2997
Rp2998
ag1
(g5
S'\x80AW<'
p2999
tp3000
Rp3001
ag1
(g5
S'kOX<'
p3002
tp3003
Rp3004
ag1
(g5
S'\xf9\xccP<'
p3005
tp3006
Rp3007
ag1
(g5
S'Puc<'
p3008
tp3009
Rp3010
ag1
(g5
S'ng]<'
p3011
tp3012
Rp3013
ag1
(g5
S'\xd7PG<'
p3014
tp3015
Rp3016
ag1
(g5
S'\xe4\x08V<'
p3017
tp3018
Rp3019
ag1
(g5
S'p\x91L<'
p3020
tp3021
Rp3022
ag1
(g5
S'\x90\xf1K<'
p3023
tp3024
Rp3025
ag1
(g5
S'\xc2bO<'
p3026
tp3027
Rp3028
ag1
(g5
S'\x00\xc8f<'
p3029
tp3030
Rp3031
ag1
(g5
S'\xa5\xf8R<'
p3032
tp3033
Rp3034
ag1
(g5
S'\xe59P<'
p3035
tp3036
Rp3037
ag1
(g5
S'+\xceT<'
p3038
tp3039
Rp3040
ag1
(g5
S'\xe9\x9e\\<'
p3041
tp3042
Rp3043
ag1
(g5
S'\xd4\xd5L<'
p3044
tp3045
Rp3046
ag1
(g5
S'\xa9\xce\\<'
p3047
tp3048
Rp3049
ag1
(g5
S'\xb0\xccL<'
p3050
tp3051
Rp3052
ag1
(g5
S'\xa2OW<'
p3053
tp3054
Rp3055
ag1
(g5
S'6aO<'
p3056
tp3057
Rp3058
ag1
(g5
S'\xc9\xa5P<'
p3059
tp3060
Rp3061
ag1
(g5
S'$\xf1X<'
p3062
tp3063
Rp3064
ag1
(g5
S'T\xf27<'
p3065
tp3066
Rp3067
ag1
(g5
S'\xd2\xeeP<'
p3068
tp3069
Rp3070
ag1
(g5
S' AX<'
p3071
tp3072
Rp3073
ag1
(g5
S'\x02\x048<'
p3074
tp3075
Rp3076
ag1
(g5
S'\xe0J[<'
p3077
tp3078
Rp3079
ag1
(g5
S'Z\x85X<'
p3080
tp3081
Rp3082
ag1
(g5
S'\x0c\r=<'
p3083
tp3084
Rp3085
ag1
(g5
S'(\x0eX<'
p3086
tp3087
Rp3088
ag1
(g5
S"'\xe3V<"
p3089
tp3090
Rp3091
ag1
(g5
S'q\x9fQ<'
p3092
tp3093
Rp3094
ag1
(g5
S'\xa1pY<'
p3095
tp3096
Rp3097
ag1
(g5
S'$~C<'
p3098
tp3099
Rp3100
ag1
(g5
S'\x1f\x89V<'
p3101
tp3102
Rp3103
ag1
(g5
S'\xc6+i<'
p3104
tp3105
Rp3106
ag1
(g5
S'\xe4DW<'
p3107
tp3108
Rp3109
ag1
(g5
S'\xd9\xe7G<'
p3110
tp3111
Rp3112
ag1
(g5
S'e\xdd`<'
p3113
tp3114
Rp3115
ag1
(g5
S'\x18\x10L<'
p3116
tp3117
Rp3118
ag1
(g5
S'b<a<'
p3119
tp3120
Rp3121
ag1
(g5
S'\xba\x8eZ<'
p3122
tp3123
Rp3124
ag1
(g5
S'\x12\xa4Y<'
p3125
tp3126
Rp3127
ag1
(g5
S'\xe3\xd4T<'
p3128
tp3129
Rp3130
ag1
(g5
S'V\xb1Z<'
p3131
tp3132
Rp3133
ag1
(g5
S'\x90\xd0[<'
p3134
tp3135
Rp3136
ag1
(g5
S'\xfep]<'
p3137
tp3138
Rp3139
ag1
(g5
S'm\x1fK<'
p3140
tp3141
Rp3142
ag1
(g5
S'f+Y<'
p3143
tp3144
Rp3145
ag1
(g5
S'\xdb\x16=<'
p3146
tp3147
Rp3148
ag1
(g5
S'\x1f\xbdR<'
p3149
tp3150
Rp3151
ag1
(g5
S'\xa0\x82P<'
p3152
tp3153
Rp3154
ag1
(g5
S'\xb2\x8bQ<'
p3155
tp3156
Rp3157
ag1
(g5
S'\xbf\x04]<'
p3158
tp3159
Rp3160
ag1
(g5
S'iQc<'
p3161
tp3162
Rp3163
ag1
(g5
S'\xb8\x8eD<'
p3164
tp3165
Rp3166
ag1
(g5
S'K]J<'
p3167
tp3168
Rp3169
ag1
(g5
S'\xf0\xbaZ<'
p3170
tp3171
Rp3172
ag1
(g5
S'\x075T<'
p3173
tp3174
Rp3175
ag1
(g5
S'$\xa6P<'
p3176
tp3177
Rp3178
ag1
(g5
S'\xce\x1fB<'
p3179
tp3180
Rp3181
ag1
(g5
S'\x00\xcdO<'
p3182
tp3183
Rp3184
ag1
(g5
S'\xb9iR<'
p3185
tp3186
Rp3187
ag1
(g5
S'\xdf\x81T<'
p3188
tp3189
Rp3190
ag1
(g5
S'\x16\xd0L<'
p3191
tp3192
Rp3193
ag1
(g5
S'p\x12_<'
p3194
tp3195
Rp3196
ag1
(g5
S'}\xb7W<'
p3197
tp3198
Rp3199
ag1
(g5
S'0\xd4A<'
p3200
tp3201
Rp3202
ag1
(g5
S'\x9cQR<'
p3203
tp3204
Rp3205
ag1
(g5
S'1FG<'
p3206
tp3207
Rp3208
ag1
(g5
S'\xd2\xd1H<'
p3209
tp3210
Rp3211
ag1
(g5
S'\x0eNK<'
p3212
tp3213
Rp3214
ag1
(g5
S'\x16\xb9`<'
p3215
tp3216
Rp3217
ag1
(g5
S'ACO<'
p3218
tp3219
Rp3220
ag1
(g5
S'\x03\xcfJ<'
p3221
tp3222
Rp3223
ag1
(g5
S'\xc2\x1aP<'
p3224
tp3225
Rp3226
ag1
(g5
S'\xd2\xd6W<'
p3227
tp3228
Rp3229
ag1
(g5
S'z\x88G<'
p3230
tp3231
Rp3232
ag1
(g5
S'\xb6\x99W<'
p3233
tp3234
Rp3235
ag1
(g5
S'\xdaMG<'
p3236
tp3237
Rp3238
ag1
(g5
S'\xfc\x02R<'
p3239
tp3240
Rp3241
ag1
(g5
S'o\xacK<'
p3242
tp3243
Rp3244
ag1
(g5
S"u'L<"
p3245
tp3246
Rp3247
ag1
(g5
S')\xc8T<'
p3248
tp3249
Rp3250
ag1
(g5
S']+2<'
p3251
tp3252
Rp3253
ag1
(g5
S'\x16\x84L<'
p3254
tp3255
Rp3256
ag1
(g5
S'\xf6\xa8Q<'
p3257
tp3258
Rp3259
ag1
(g5
S'\x8fe3<'
p3260
tp3261
Rp3262
ag1
(g5
S'|LW<'
p3263
tp3264
Rp3265
ag1
(g5
S'w\xb5S<'
p3266
tp3267
Rp3268
ag1
(g5
S'\xe2\x1c8<'
p3269
tp3270
Rp3271
ag1
(g5
S'k\x08S<'
p3272
tp3273
Rp3274
ag1
(g5
S'K[Q<'
p3275
tp3276
Rp3277
ag1
(g5
S',.M<'
p3278
tp3279
Rp3280
ag1
(g5
S'\xe3\xb1S<'
p3281
tp3282
Rp3283
ag1
(g5
S'\xb3j?<'
p3284
tp3285
Rp3286
ag1
(g5
S'B$Q<'
p3287
tp3288
Rp3289
ag1
(g5
S'\xe7wd<'
p3290
tp3291
Rp3292
ag1
(g5
S'N9Q<'
p3293
tp3294
Rp3295
ag1
(g5
S'\x08\xcfD<'
p3296
tp3297
Rp3298
ag1
(g5
S'p\x0e\\<'
p3299
tp3300
Rp3301
ag1
(g5
S'\xa6\xa6G<'
p3302
tp3303
Rp3304
ag1
(g5
S'\x93s\\<'
p3305
tp3306
Rp3307
ag1
(g5
S'\xf2?T<'
p3308
tp3309
Rp3310
ag1
(g5
S'\xab\x1dU<'
p3311
tp3312
Rp3313
ag1
(g5
S'Q\x7fO<'
p3314
tp3315
Rp3316
ag1
(g5
S'\x9c\x10U<'
p3317
tp3318
Rp3319
ag1
(g5
S'v\xfcW<'
p3320
tp3321
Rp3322
ag1
(g5
S'\xd3\x02X<'
p3323
tp3324
Rp3325
ag1
(g5
S'$@G<'
p3326
tp3327
Rp3328
ag1
(g5
S'\xe1\xefT<'
p3329
tp3330
Rp3331
ag1
(g5
S'&\xaf9<'
p3332
tp3333
Rp3334
ag1
(g5
S'\xdf\xdfM<'
p3335
tp3336
Rp3337
ag1
(g5
S'\x07+M<'
p3338
tp3339
Rp3340
ag1
(g5
S'\xd0\xd3M<'
p3341
tp3342
Rp3343
ag1
(g5
S'\xe6rY<'
p3344
tp3345
Rp3346
ag1
(g5
S'9\x1e]<'
p3347
tp3348
Rp3349
ag1
(g5
S'S\xa5@<'
p3350
tp3351
Rp3352
ag1
(g5
S'\x99\x89E<'
p3353
tp3354
Rp3355
ag1
(g5
S'\xa4\x92V<'
p3356
tp3357
Rp3358
ag1
(g5
S'\xa1pO<'
p3359
tp3360
Rp3361
ag1
(g5
S'\\\xf5I<'
p3362
tp3363
Rp3364
ag1
(g5
S'\xfc\x9b<<'
p3365
tp3366
Rp3367
ag1
(g5
S'\x91\x00K<'
p3368
tp3369
Rp3370
ag1
(g5
S'\xf0(N<'
p3371
tp3372
Rp3373
ag1
(g5
S'#\xb0N<'
p3374
tp3375
Rp3376
ag1
(g5
S'\x93rI<'
p3377
tp3378
Rp3379
ag1
(g5
S'\xfc|[<'
p3380
tp3381
Rp3382
ag1
(g5
S'x\xeaS<'
p3383
tp3384
Rp3385
ag1
(g5
S'#\x82<<'
p3386
tp3387
Rp3388
ag1
(g5
S'\xde\x84L<'
p3389
tp3390
Rp3391
ag1
(g5
S'K\x9aB<'
p3392
tp3393
Rp3394
ag1
(g5
S'\xdb\xeaB<'
p3395
tp3396
Rp3397
ag1
(g5
S'\xb8\xc7F<'
p3398
tp3399
Rp3400
ag1
(g5
S'\x81\xabZ<'
p3401
tp3402
Rp3403
ag1
(g5
S'~\xb2I<'
p3404
tp3405
Rp3406
ag1
(g5
S'6\xc7F<'
p3407
tp3408
Rp3409
ag1
(g5
S'>\xdfL<'
p3410
tp3411
Rp3412
ag1
(g5
S'\x1b\xfeQ<'
p3413
tp3414
Rp3415
ag1
(g5
S'\xa1wC<'
p3416
tp3417
Rp3418
ag1
(g5
S'\x9b\x9eQ<'
p3419
tp3420
Rp3421
ag1
(g5
S'\xa9\xfaA<'
p3422
tp3423
Rp3424
ag1
(g5
S'\xffDM<'
p3425
tp3426
Rp3427
ag1
(g5
S'(\x12H<'
p3428
tp3429
Rp3430
ag1
(g5
S'\xc8\xcbF<'
p3431
tp3432
Rp3433
ag1
(g5
S'\x87\xb8O<'
p3434
tp3435
Rp3436
ag1
(g5
S'\x84t-<'
p3437
tp3438
Rp3439
ag1
(g5
S'9\xceH<'
p3440
tp3441
Rp3442
ag1
(g5
S'\xdcRM<'
p3443
tp3444
Rp3445
ag1
(g5
S'\x99\xc9-<'
p3446
tp3447
Rp3448
ag1
(g5
S'Q\xc7R<'
p3449
tp3450
Rp3451
ag1
(g5
S'\x87HO<'
p3452
tp3453
Rp3454
ag1
(g5
S'\xcb\xae4<'
p3455
tp3456
Rp3457
ag1
(g5
S'\x181O<'
p3458
tp3459
Rp3460
ag1
(g5
S'\x14YN<'
p3461
tp3462
Rp3463
ag1
(g5
S'\x8ekI<'
p3464
tp3465
Rp3466
ag1
(g5
S'\xe9(O<'
p3467
tp3468
Rp3469
ag1
(g5
S'\xebr:<'
p3470
tp3471
Rp3472
ag1
(g5
S'cFK<'
p3473
tp3474
Rp3475
ag1
(g5
S'\xb0\xdd^<'
p3476
tp3477
Rp3478
ag1
(g5
S'I M<'
p3479
tp3480
Rp3481
ag1
(g5
S'\x04(B<'
p3482
tp3483
Rp3484
ag1
(g5
S'2\xa0V<'
p3485
tp3486
Rp3487
ag1
(g5
S'\xb8:A<'
p3488
tp3489
Rp3490
ag1
(g5
S'\xe6\xc7W<'
p3491
tp3492
Rp3493
ag1
(g5
S'\xa4\x8eQ<'
p3494
tp3495
Rp3496
ag1
(g5
S'\xce\xb1Q<'
p3497
tp3498
Rp3499
ag1
(g5
S'\x04\x95J<'
p3500
tp3501
Rp3502
ag1
(g5
S'\x9fjP<'
p3503
tp3504
Rp3505
ag1
(g5
S'\x15\x01R<'
p3506
tp3507
Rp3508
ag1
(g5
S'\xf4wS<'
p3509
tp3510
Rp3511
ag1
(g5
S'\xb9\xeeA<'
p3512
tp3513
Rp3514
ag1
(g5
S'\x0ciP<'
p3515
tp3516
Rp3517
ag1
(g5
S'\xbb\xe25<'
p3518
tp3519
Rp3520
ag1
(g5
S'\xfe\x96I<'
p3521
tp3522
Rp3523
ag1
(g5
S'\xc9\x06H<'
p3524
tp3525
Rp3526
ag1
(g5
S'\xc5\xafH<'
p3527
tp3528
Rp3529
ag1
(g5
S'r\xedS<'
p3530
tp3531
Rp3532
ag1
(g5
S'\x88CY<'
p3533
tp3534
Rp3535
ag1
(g5
S'\xedC;<'
p3536
tp3537
Rp3538
ag1
(g5
S'4 @<'
p3539
tp3540
Rp3541
ag1
(g5
S'PUQ<'
p3542
tp3543
Rp3544
ag1
(g5
S'\x83bJ<'
p3545
tp3546
Rp3547
ag1
(g5
S'\xf3\xa7E<'
p3548
tp3549
Rp3550
ag1
(g5
S'\x04\x057<'
p3551
tp3552
Rp3553
ag1
(g5
S'\xfd\xf8E<'
p3554
tp3555
Rp3556
ag1
(g5
S'!\xaeG<'
p3557
tp3558
Rp3559
ag1
(g5
S'(JI<'
p3560
tp3561
Rp3562
ag1
(g5
S'\xeb&D<'
p3563
tp3564
Rp3565
ag1
(g5
S'`\x90W<'
p3566
tp3567
Rp3568
ag1
(g5
S'\x82HM<'
p3569
tp3570
Rp3571
ag1
(g5
S'U\xf98<'
p3572
tp3573
Rp3574
ag1
(g5
S'\xba\xf2G<'
p3575
tp3576
Rp3577
ag1
(g5
S'\xa3\xb6=<'
p3578
tp3579
Rp3580
ag1
(g5
S'J8><'
p3581
tp3582
Rp3583
ag1
(g5
S'\x1c\xbeA<'
p3584
tp3585
Rp3586
ag1
(g5
S'\xbeBV<'
p3587
tp3588
Rp3589
ag1
(g5
S'\x00\x82D<'
p3590
tp3591
Rp3592
ag1
(g5
S'\x90\xc5@<'
p3593
tp3594
Rp3595
ag1
(g5
S'H\x8eF<'
p3596
tp3597
Rp3598
ag1
(g5
S' 9M<'
p3599
tp3600
Rp3601
ag1
(g5
S'\xaaD><'
p3602
tp3603
Rp3604
ag1
(g5
S'\xcb\x96K<'
p3605
tp3606
Rp3607
ag1
(g5
S'\x19Q=<'
p3608
tp3609
Rp3610
ag1
(g5
S'\x98bG<'
p3611
tp3612
Rp3613
ag1
(g5
S'+"C<'
p3614
tp3615
Rp3616
ag1
(g5
S'd\xc5A<'
p3617
tp3618
Rp3619
ag1
(g5
S'\xcf\x0eK<'
p3620
tp3621
Rp3622
ag1
(g5
S'4\xe7(<'
p3623
tp3624
Rp3625
ag1
(g5
S'\xd6+B<'
p3626
tp3627
Rp3628
ag1
(g5
S'\xb0\x9fF<'
p3629
tp3630
Rp3631
ag1
(g5
S'U\xad(<'
p3632
tp3633
Rp3634
ag1
(g5
S'L!N<'
p3635
tp3636
Rp3637
ag1
(g5
S'\x16rH<'
p3638
tp3639
Rp3640
ag1
(g5
S'n\xc0-<'
p3641
tp3642
Rp3643
ag1
(g5
S'\xe90I<'
p3644
tp3645
Rp3646
ag1
(g5
S'\x84|I<'
p3647
tp3648
Rp3649
ag1
(g5
S'\xc5\xabC<'
p3650
tp3651
Rp3652
ag1
(g5
S'"NH<'
p3653
tp3654
Rp3655
ag1
(g5
S'\xef\xc34<'
p3656
tp3657
Rp3658
ag1
(g5
S'\x1b\x06F<'
p3659
tp3660
Rp3661
ag1
(g5
S'\xe8\xf0Y<'
p3662
tp3663
Rp3664
ag1
(g5
S'\xe5\x96G<'
p3665
tp3666
Rp3667
ag1
(g5
S';V<<'
p3668
tp3669
Rp3670
ag1
(g5
S'\x00\xc7P<'
p3671
tp3672
Rp3673
ag1
(g5
S'e\xd49<'
p3674
tp3675
Rp3676
ag1
(g5
S'\x9d\xceP<'
p3677
tp3678
Rp3679
ag1
(g5
S'\xf9\xa1L<'
p3680
tp3681
Rp3682
ag1
(g5
S' \xc4J<'
p3683
tp3684
Rp3685
ag1
(g5
S'[\x1bE<'
p3686
tp3687
Rp3688
ag1
(g5
S'\x16TJ<'
p3689
tp3690
Rp3691
ag1
(g5
S'\x90hL<'
p3692
tp3693
Rp3694
ag1
(g5
S'\xdc:O<'
p3695
tp3696
Rp3697
ag1
(g5
S'O9<<'
p3698
tp3699
Rp3700
ag1
(g5
S'\x11FK<'
p3701
tp3702
Rp3703
ag1
(g5
S'@\xe1/<'
p3704
tp3705
Rp3706
ag1
(g5
S'4QD<'
p3707
tp3708
Rp3709
ag1
(g5
S'\xf4HC<'
p3710
tp3711
Rp3712
ag1
(g5
S'\xe7<E<'
p3713
tp3714
Rp3715
ag1
(g5
S'\x0f\xd7N<'
p3716
tp3717
Rp3718
ag1
(g5
S'C\x97R<'
p3719
tp3720
Rp3721
ag1
(g5
S'\xdb\x8c4<'
p3722
tp3723
Rp3724
ag1
(g5
S'zo<<'
p3725
tp3726
Rp3727
ag1
(g5
S'\x97\xdfK<'
p3728
tp3729
Rp3730
ag1
(g5
S'\xf6\xadD<'
p3731
tp3732
Rp3733
ag1
(g5
S'\xfe\x9e@<'
p3734
tp3735
Rp3736
ag1
(g5
S'\xa3\xa42<'
p3737
tp3738
Rp3739
ag1
(g5
S'\x19C@<'
p3740
tp3741
Rp3742
ag1
(g5
S'\xe1\xecB<'
p3743
tp3744
Rp3745
ag1
(g5
S'\xb8\x0bE<'
p3746
tp3747
Rp3748
ag1
(g5
S'\xe6\xaa><'
p3749
tp3750
Rp3751
ag1
(g5
S'\xc5RR<'
p3752
tp3753
Rp3754
ag1
(g5
S'\xe3\x95G<'
p3755
tp3756
Rp3757
ag1
(g5
S'\x9b-3<'
p3758
tp3759
Rp3760
ag1
(g5
S'\xc4\xa3B<'
p3761
tp3762
Rp3763
ag1
(g5
S'\xe1\xdf7<'
p3764
tp3765
Rp3766
ag1
(g5
S'S8:<'
p3767
tp3768
Rp3769
ag1
(g5
S'\x14\xcd<<'
p3770
tp3771
Rp3772
ag1
(g5
S'<\xadO<'
p3773
tp3774
Rp3775
ag1
(g5
S'0\xd9@<'
p3776
tp3777
Rp3778
ag1
(g5
S'lI<<'
p3779
tp3780
Rp3781
ag1
(g5
S'\x1f\x9fB<'
p3782
tp3783
Rp3784
ag1
(g5
S'\xbc\xe9H<'
p3785
tp3786
Rp3787
ag1
(g5
S'\xae2;<'
p3788
tp3789
Rp3790
ag1
(g5
S'\xc8\xe1C<'
p3791
tp3792
Rp3793
ag1
(g5
S'\xe1\xfc7<'
p3794
tp3795
Rp3796
ag1
(g5
S'\xdd\nA<'
p3797
tp3798
Rp3799
ag1
(g5
S'X0=<'
p3800
tp3801
Rp3802
ag1
(g5
S'\xe4\x85<<'
p3803
tp3804
Rp3805
ag1
(g5
S'\xa4\x1bF<'
p3806
tp3807
Rp3808
ag1
(g5
S'mj$<'
p3809
tp3810
Rp3811
ag1
(g5
S'\x0c\xc0=<'
p3812
tp3813
Rp3814
ag1
(g5
S'\xb01B<'
p3815
tp3816
Rp3817
ag1
(g5
S'\ty#<'
p3818
tp3819
Rp3820
ag1
(g5
S'\x1a\x04K<'
p3821
tp3822
Rp3823
ag1
(g5
S'\xc07E<'
p3824
tp3825
Rp3826
ag1
(g5
S'3\x97*<'
p3827
tp3828
Rp3829
ag1
(g5
S'G\x02E<'
p3830
tp3831
Rp3832
ag1
(g5
S'\\\xf6E<'
p3833
tp3834
Rp3835
ag1
(g5
S'\x81\xd5><'
p3836
tp3837
Rp3838
ag1
(g5
S'\xf8\xddC<'
p3839
tp3840
Rp3841
ag1
(g5
S'\x84\xed0<'
p3842
tp3843
Rp3844
ag1
(g5
S'.1B<'
p3845
tp3846
Rp3847
ag1
(g5
S'>NV<'
p3848
tp3849
Rp3850
ag1
(g5
S'tJB<'
p3851
tp3852
Rp3853
ag1
(g5
S'\xcb.7<'
p3854
tp3855
Rp3856
ag1
(g5
S'\xd5JM<'
p3857
tp3858
Rp3859
ag1
(g5
S'\xa8\xc44<'
p3860
tp3861
Rp3862
ag1
(g5
S'\xd1\x19L<'
p3863
tp3864
Rp3865
ag1
(g5
S'\xf8\x8fE<'
p3866
tp3867
Rp3868
ag1
(g5
S'\xc2\xccD<'
p3869
tp3870
Rp3871
ag1
(g5
S'\xa3[?<'
p3872
tp3873
Rp3874
ag1
(g5
S'S}E<'
p3875
tp3876
Rp3877
ag1
(g5
S'\xe0@G<'
p3878
tp3879
Rp3880
ag1
(g5
S'"\xdcI<'
p3881
tp3882
Rp3883
ag1
(g5
S'\xf6\x9d9<'
p3884
tp3885
Rp3886
ag1
(g5
S'/\xd8E<'
p3887
tp3888
Rp3889
ag1
(g5
S'\xcc\xc0+<'
p3890
tp3891
Rp3892
ag1
(g5
S'5w?<'
p3893
tp3894
Rp3895
ag1
(g5
S'\xdd2><'
p3896
tp3897
Rp3898
ag1
(g5
S'x\xba?<'
p3899
tp3900
Rp3901
ag1
(g5
S'RhJ<'
p3902
tp3903
Rp3904
ag1
(g5
S'\xd3\x8fN<'
p3905
tp3906
Rp3907
ag1
(g5
S'\xa3\xc6/<'
p3908
tp3909
Rp3910
ag1
(g5
S'\xed\xd46<'
p3911
tp3912
Rp3913
ag1
(g5
S':\xb9F<'
p3914
tp3915
Rp3916
ag1
(g5
S'x\x00@<'
p3917
tp3918
Rp3919
ag1
(g5
S'S\xc2:<'
p3920
tp3921
Rp3922
ag1
(g5
S'\x03\xaf-<'
p3923
tp3924
Rp3925
ag1
(g5
S'\x9c\xb1<<'
p3926
tp3927
Rp3928
ag1
(g5
S'\xfd\x9d><'
p3929
tp3930
Rp3931
ag1
(g5
S'\r\t@<'
p3932
tp3933
Rp3934
ag1
(g5
S'\xc2\xdd:<'
p3935
tp3936
Rp3937
ag1
(g5
S'\x9b\x94N<'
p3938
tp3939
Rp3940
ag1
(g5
S'\x86\xbcB<'
p3941
tp3942
Rp3943
ag1
(g5
S'\x8a\x19/<'
p3944
tp3945
Rp3946
ag1
(g5
S'\x8c\xf4><'
p3947
tp3948
Rp3949
ag1
(g5
S'\xae\xc93<'
p3950
tp3951
Rp3952
ag1
(g5
S'\xd8\xf24<'
p3953
tp3954
Rp3955
ag1
(g5
S'*\xbc:<'
p3956
tp3957
Rp3958
ag1
(g5
S'\x8a\x0cM<'
p3959
tp3960
Rp3961
ag1
(g5
S'R1<<'
p3962
tp3963
Rp3964
ag1
(g5
S'r|8<'
p3965
tp3966
Rp3967
ag1
(g5
S'\\\xc9?<'
p3968
tp3969
Rp3970
ag1
(g5
S'\xedbD<'
p3971
tp3972
Rp3973
ag1
(g5
S'<c6<'
p3974
tp3975
Rp3976
ag1
(g5
S'\xce\xb6@<'
p3977
tp3978
Rp3979
ag1
(g5
S'[\x863<'
p3980
tp3981
Rp3982
ag1
(g5
S'L\x92=<'
p3983
tp3984
Rp3985
ag1
(g5
S'\xc0]9<'
p3986
tp3987
Rp3988
ag1
(g5
S'\x08\xc59<'
p3989
tp3990
Rp3991
ag1
(g5
S'D}A<'
p3992
tp3993
Rp3994
ag1
(g5
S'\xd8\x8a\x1e<'
p3995
tp3996
Rp3997
ag1
(g5
S'`\x05:<'
p3998
tp3999
Rp4000
ag1
(g5
S'@\x11=<'
p4001
tp4002
Rp4003
ag1
(g5
S'\xda5\x1f<'
p4004
tp4005
Rp4006
ag1
(g5
S'\x103D<'
p4007
tp4008
Rp4009
ag1
(g5
S'\xb6\xb0@<'
p4010
tp4011
Rp4012
ag1
(g5
S"e\x07'<"
p4013
tp4014
Rp4015
ag1
(g5
S'\xbf\x14A<'
p4016
tp4017
Rp4018
ag1
(g5
S'\xdd\xce@<'
p4019
tp4020
Rp4021
ag1
(g5
S'\xa1\xb39<'
p4022
tp4023
Rp4024
ag1
(g5
S'&\xf1@<'
p4025
tp4026
Rp4027
ag1
(g5
S'\x82\x1d-<'
p4028
tp4029
Rp4030
ag1
(g5
S'K\x9f=<'
p4031
tp4032
Rp4033
ag1
(g5
S'\x9f(P<'
p4034
tp4035
Rp4036
ag1
(g5
S'.\x07><'
p4037
tp4038
Rp4039
ag1
(g5
S'\x10;3<'
p4040
tp4041
Rp4042
ag1
(g5
S'%wH<'
p4043
tp4044
Rp4045
ag1
(g5
S'\r&1<'
p4046
tp4047
Rp4048
ag1
(g5
S'\xdd\xdbH<'
p4049
tp4050
Rp4051
ag1
(g5
S'\xe0\xd0B<'
p4052
tp4053
Rp4054
ag1
(g5
S'\xdf\xd6A<'
p4055
tp4056
Rp4057
ag1
(g5
S'\xfe\xcb<<'
p4058
tp4059
Rp4060
ag1
(g5
S'\xa2}B<'
p4061
tp4062
Rp4063
ag1
(g5
S'%SD<'
p4064
tp4065
Rp4066
ag1
(g5
S'&\x03F<'
p4067
tp4068
Rp4069
ag1
(g5
S'\x01G5<'
p4070
tp4071
Rp4072
ag1
(g5
S'\xcd;B<'
p4073
tp4074
Rp4075
ag1
(g5
S'\xca\xa7(<'
p4076
tp4077
Rp4078
ag1
(g5
S'B\x9c:<'
p4079
tp4080
Rp4081
ag1
(g5
S'\xf4\x9b:<'
p4082
tp4083
Rp4084
ag1
(g5
S'\xce\xdf;<'
p4085
tp4086
Rp4087
ag1
(g5
S'\x9e*F<'
p4088
tp4089
Rp4090
ag1
(g5
S'\xfb\x16J<'
p4091
tp4092
Rp4093
ag1
(g5
S'7X+<'
p4094
tp4095
Rp4096
ag1
(g5
S'\xc8\xfa1<'
p4097
tp4098
Rp4099
ag1
(g5
S'*\x87B<'
p4100
tp4101
Rp4102
ag1
(g5
S'\x1c\xe9;<'
p4103
tp4104
Rp4105
ag1
(g5
S'\xb807<'
p4106
tp4107
Rp4108
ag1
(g5
S'\x87\xa1)<'
p4109
tp4110
Rp4111
ag1
(g5
S'\xa2f:<'
p4112
tp4113
Rp4114
ag1
(g5
S'\x95\x00:<'
p4115
tp4116
Rp4117
ag1
(g5
S'\x1ae<<'
p4118
tp4119
Rp4120
ag1
(g5
S'\x95i5<'
p4121
tp4122
Rp4123
ag1
(g5
S'.\xd8I<'
p4124
tp4125
Rp4126
ag1
(g5
S'%\x9d@<'
p4127
tp4128
Rp4129
ag1
(g5
S'\xfa\xeb+<'
p4130
tp4131
Rp4132
ag1
(g5
S':\xbd:<'
p4133
tp4134
Rp4135
ag1
(g5
S'\x99o/<'
p4136
tp4137
Rp4138
ag1
(g5
S'\xbe\xe81<'
p4139
tp4140
Rp4141
ag1
(g5
S'\xcb\x147<'
p4142
tp4143
Rp4144
ag1
(g5
S'\xd4<G<'
p4145
tp4146
Rp4147
ag1
(g5
S'\xed\x948<'
p4148
tp4149
Rp4150
ag1
(g5
S'N\xa24<'
p4151
tp4152
Rp4153
ag1
(g5
S'G\x15:<'
p4154
tp4155
Rp4156
ag1
(g5
S'*\xf6?<'
p4157
tp4158
Rp4159
ag1
(g5
S't\xa81<'
p4160
tp4161
Rp4162
ag1
(g5
S'B~<<'
p4163
tp4164
Rp4165
ag1
(g5
S'D\x130<'
p4166
tp4167
Rp4168
ag1
(g5
S'\xf6m9<'
p4169
tp4170
Rp4171
ag1
(g5
S'\xe3W4<'
p4172
tp4173
Rp4174
ag1
(g5
S'&_4<'
p4175
tp4176
Rp4177
ag1
(g5
S'f{<<'
p4178
tp4179
Rp4180
ag1
(g5
S'\x9fm\x1b<'
p4181
tp4182
Rp4183
ag1
(g5
S'\xfb\xd16<'
p4184
tp4185
Rp4186
ag1
(g5
S').8<'
p4187
tp4188
Rp4189
ag1
(g5
S'\xa8\xc7\x1b<'
p4190
tp4191
Rp4192
ag1
(g5
S'\xe7\xce?<'
p4193
tp4194
Rp4195
ag1
(g5
S'\x9c\xaa;<'
p4196
tp4197
Rp4198
ag1
(g5
S'p\xfd#<'
p4199
tp4200
Rp4201
ag1
(g5
S'\xda\xa9<<'
p4202
tp4203
Rp4204
ag1
(g5
S'j.=<'
p4205
tp4206
Rp4207
ag1
(g5
S'\xe4\xd76<'
p4208
tp4209
Rp4210
ag1
(g5
S'\x8d.=<'
p4211
tp4212
Rp4213
ag1
(g5
S'.N)<'
p4214
tp4215
Rp4216
ag1
(g5
S'V\x00;<'
p4217
tp4218
Rp4219
ag1
(g5
S'\xf0\xffL<'
p4220
tp4221
Rp4222
ag1
(g5
S"'\xb39<"
p4223
tp4224
Rp4225
ag1
(g5
S'\x8fq0<'
p4226
tp4227
Rp4228
ag1
(g5
S'\xb1\xc5E<'
p4229
tp4230
Rp4231
ag1
(g5
S'\xf7&.<'
p4232
tp4233
Rp4234
ag1
(g5
S'\xca\xb1D<'
p4235
tp4236
Rp4237
ag1
(g5
S'H\x08><'
p4238
tp4239
Rp4240
ag1
(g5
S'M\x80=<'
p4241
tp4242
Rp4243
ag1
(g5
S'-\xbb8<'
p4244
tp4245
Rp4246
ag1
(g5
S'U\x8e><'
p4247
tp4248
Rp4249
ag1
(g5
S'\xe7\xcf?<'
p4250
tp4251
Rp4252
ag1
(g5
S'%\x1aB<'
p4253
tp4254
Rp4255
ag1
(g5
S'\xa5^1<'
p4256
tp4257
Rp4258
ag1
(g5
S'\x7f&@<'
p4259
tp4260
Rp4261
ag1
(g5
S'R*%<'
p4262
tp4263
Rp4264
ag1
(g5
S'$f8<'
p4265
tp4266
Rp4267
ag1
(g5
S'\xc0b7<'
p4268
tp4269
Rp4270
ag1
(g5
S'\x8f\x9f8<'
p4271
tp4272
Rp4273
ag1
(g5
S'l\x8cB<'
p4274
tp4275
Rp4276
ag1
(g5
S'\xb5%G<'
p4277
tp4278
Rp4279
ag1
(g5
S"Yf'<"
p4280
tp4281
Rp4282
ag1
(g5
S'X\xfe/<'
p4283
tp4284
Rp4285
ag1
(g5
S'P\xb0?<'
p4286
tp4287
Rp4288
ag1
(g5
S'\xf2\xac8<'
p4289
tp4290
Rp4291
ag1
(g5
S'h\xa64<'
p4292
tp4293
Rp4294
ag1
(g5
S"\xd5I'<"
p4295
tp4296
Rp4297
ag1
(g5
S'\x87u5<'
p4298
tp4299
Rp4300
ag1
(g5
S'\x93\xae8<'
p4301
tp4302
Rp4303
ag1
(g5
S'\x95\x9a8<'
p4304
tp4305
Rp4306
ag1
(g5
S'A\x033<'
p4307
tp4308
Rp4309
ag1
(g5
S'nFG<'
p4310
tp4311
Rp4312
ag1
(g5
S'\xd3\xb9;<'
p4313
tp4314
Rp4315
ag1
(g5
S'\xc2a(<'
p4316
tp4317
Rp4318
ag1
(g5
S'\xa4c8<'
p4319
tp4320
Rp4321
ag1
(g5
S'bC-<'
p4322
tp4323
Rp4324
ag1
(g5
S'\xa4\x13.<'
p4325
tp4326
Rp4327
ag1
(g5
S'\\\x972<'
p4328
tp4329
Rp4330
ag1
(g5
S'5)D<'
p4331
tp4332
Rp4333
ag1
(g5
S'\x12\x9a4<'
p4334
tp4335
Rp4336
ag1
(g5
S'\xd9\x7f1<'
p4337
tp4338
Rp4339
ag1
(g5
S'|\xa57<'
p4340
tp4341
Rp4342
ag1
(g5
S'\x08\x05=<'
p4343
tp4344
Rp4345
ag1
(g5
S'9\\/<'
p4346
tp4347
Rp4348
ag1
(g5
S'\x8dg8<'
p4349
tp4350
Rp4351
ag1
(g5
S'p\x90-<'
p4352
tp4353
Rp4354
ag1
(g5
S'\x0b\x905<'
p4355
tp4356
Rp4357
ag1
(g5
S'r\xa32<'
p4358
tp4359
Rp4360
ag1
(g5
S'\xa0\xea0<'
p4361
tp4362
Rp4363
ag1
(g5
S'\xce\x7f8<'
p4364
tp4365
Rp4366
ag1
(g5
S'\x86L\x18<'
p4367
tp4368
Rp4369
ag1
(g5
S'\xa0]2<'
p4370
tp4371
Rp4372
ag1
(g5
S'\xece3<'
p4373
tp4374
Rp4375
ag1
(g5
S'\x9f\xbc\x18<'
p4376
tp4377
Rp4378
ag1
(g5
S']\xa0<<'
p4379
tp4380
Rp4381
ag1
(g5
S'Z\x8d9<'
p4382
tp4383
Rp4384
ag1
(g5
S'\xf4\x11 <'
p4385
tp4386
Rp4387
ag1
(g5
S'\xe9\t:<'
p4388
tp4389
Rp4390
ag1
(g5
S'\xdb\xf78<'
p4391
tp4392
Rp4393
ag1
(g5
S'^J2<'
p4394
tp4395
Rp4396
ag1
(g5
S'\xfb<9<'
p4397
tp4398
Rp4399
ag1
(g5
S"\xd95'<"
p4400
tp4401
Rp4402
ag1
(g5
S'\xa4S8<'
p4403
tp4404
Rp4405
ag1
(g5
S'fHI<'
p4406
tp4407
Rp4408
ag1
(g5
S'V\xbb6<'
p4409
tp4410
Rp4411
ag1
(g5
S'A\x03-<'
p4412
tp4413
Rp4414
ag1
(g5
S'Z\x1bC<'
p4415
tp4416
Rp4417
ag1
(g5
S'\xadP+<'
p4418
tp4419
Rp4420
ag1
(g5
S'<\xde@<'
p4421
tp4422
Rp4423
ag1
(g5
S'\x1c\xa8;<'
p4424
tp4425
Rp4426
ag1
(g5
S'\xa2a9<'
p4427
tp4428
Rp4429
ag1
(g5
S'\x9f\xea5<'
p4430
tp4431
Rp4432
ag1
(g5
S'dB;<'
p4433
tp4434
Rp4435
ag1
(g5
S'Xg=<'
p4436
tp4437
Rp4438
ag1
(g5
S' \xf2?<'
p4439
tp4440
Rp4441
ag1
(g5
S'W].<'
p4442
tp4443
Rp4444
ag1
(g5
S'\x92\xf7<<'
p4445
tp4446
Rp4447
ag1
(g5
S'\xa0\x07!<'
p4448
tp4449
Rp4450
ag1
(g5
S'O\x955<'
p4451
tp4452
Rp4453
ag1
(g5
S'g\x814<'
p4454
tp4455
Rp4456
ag1
(g5
S'\x17^5<'
p4457
tp4458
Rp4459
ag1
(g5
S'V>?<'
p4460
tp4461
Rp4462
ag1
(g5
S'\t\x94C<'
p4463
tp4464
Rp4465
ag1
(g5
S'\xf8\x97%<'
p4466
tp4467
Rp4468
ag1
(g5
S')\xd1,<'
p4469
tp4470
Rp4471
ag1
(g5
S'\x95\x8d<<'
p4472
tp4473
Rp4474
ag1
(g5
S'\xe0\xd66<'
p4475
tp4476
Rp4477
ag1
(g5
S'\xee\x072<'
p4478
tp4479
Rp4480
ag1
(g5
S'\xe1\xc8#<'
p4481
tp4482
Rp4483
ag1
(g5
S'\t\xe52<'
p4484
tp4485
Rp4486
ag1
(g5
S'g=4<'
p4487
tp4488
Rp4489
ag1
(g5
S'\xc7\x177<'
p4490
tp4491
Rp4492
ag1
(g5
S'dF0<'
p4493
tp4494
Rp4495
ag1
(g5
S'\xc9\xf3D<'
p4496
tp4497
Rp4498
ag1
(g5
S'\x13\xda9<'
p4499
tp4500
Rp4501
ag1
(g5
S'\xc5\xeb%<'
p4502
tp4503
Rp4504
ag1
(g5
S'#\r4<'
p4505
tp4506
Rp4507
ag1
(g5
S'\x1b*)<'
p4508
tp4509
Rp4510
ag1
(g5
S'C=+<'
p4511
tp4512
Rp4513
ag1
(g5
S'~\x9f/<'
p4514
tp4515
Rp4516
ag1
(g5
S'\xfc\x9aA<'
p4517
tp4518
Rp4519
ag1
(g5
S'\xf5\xd12<'
p4520
tp4521
Rp4522
ag1
(g5
S'\xfb\x08/<'
p4523
tp4524
Rp4525
ag1
(g5
S'u\x9b4<'
p4526
tp4527
Rp4528
ag1
(g5
S'\x9d\x919<'
p4529
tp4530
Rp4531
ag1
(g5
S'\xa9\x0c,<'
p4532
tp4533
Rp4534
ag1
(g5
S'B\xa86<'
p4535
tp4536
Rp4537
ag1
(g5
S'\xfb9+<'
p4538
tp4539
Rp4540
ag1
(g5
S'\x86O2<'
p4541
tp4542
Rp4543
ag1
(g5
S'M\xec/<'
p4544
tp4545
Rp4546
ag1
(g5
S'\xc2\x08.<'
p4547
tp4548
Rp4549
ag1
(g5
S'\xe1E6<'
p4550
tp4551
Rp4552
ag1
(g5
S'\x9cF\x16<'
p4553
tp4554
Rp4555
ag1
(g5
S'\xfe\xb10<'
p4556
tp4557
Rp4558
ag1
(g5
S'\xb4\xc71<'
p4559
tp4560
Rp4561
ag1
(g5
S'\xc7\xe3\x15<'
p4562
tp4563
Rp4564
ag1
(g5
S'PP8<'
p4565
tp4566
Rp4567
ag1
(g5
S'v\xea5<'
p4568
tp4569
Rp4570
ag1
(g5
S'\x88\x8d\x1d<'
p4571
tp4572
Rp4573
ag1
(g5
S'c\xe86<'
p4574
tp4575
Rp4576
ag1
(g5
S'\r\xfb7<'
p4577
tp4578
Rp4579
ag1
(g5
S'N\x911<'
p4580
tp4581
Rp4582
ag1
(g5
S'F\x9d6<'
p4583
tp4584
Rp4585
ag1
(g5
S'\x1d\xfc$<'
p4586
tp4587
Rp4588
ag1
(g5
S'>\x9c4<'
p4589
tp4590
Rp4591
ag1
(g5
S'\xaa\xcaF<'
p4592
tp4593
Rp4594
ag1
(g5
S'\xd6\xa93<'
p4595
tp4596
Rp4597
ag1
(g5
S'\x8aJ)<'
p4598
tp4599
Rp4600
ag1
(g5
S'\xe2\x94?<'
p4601
tp4602
Rp4603
ag1
(g5
S'\x0f\xdb(<'
p4604
tp4605
Rp4606
ag1
(g5
S"'\xf8><"
p4607
tp4608
Rp4609
ag1
(g5
S'?\x938<'
p4610
tp4611
Rp4612
ag1
(g5
S'\xae?7<'
p4613
tp4614
Rp4615
ag1
(g5
S'Zi4<'
p4616
tp4617
Rp4618
ag1
(g5
S'~I9<'
p4619
tp4620
Rp4621
ag1
(g5
S'\x8b;;<'
p4622
tp4623
Rp4624
ag1
(g5
S'\x93\x96=<'
p4625
tp4626
Rp4627
ag1
(g5
S'\x172-<'
p4628
tp4629
Rp4630
ag1
(g5
S'\x1d\xad:<'
p4631
tp4632
Rp4633
ag1
(g5
S'\xc0\xca\x1e<'
p4634
tp4635
Rp4636
ag1
(g5
S'\xf5\xf60<'
p4637
tp4638
Rp4639
ag1
(g5
S'/\xcc2<'
p4640
tp4641
Rp4642
ag1
(g5
S'}\xf71<'
p4643
tp4644
Rp4645
ag1
(g5
S'yf<<'
p4646
tp4647
Rp4648
ag1
(g5
S'\xc1\x02B<'
p4649
tp4650
Rp4651
ag1
(g5
S'\xf9\x84"<'
p4652
tp4653
Rp4654
ag1
(g5
S'\xf5s*<'
p4655
tp4656
Rp4657
ag1
(g5
S'\x81\xe09<'
p4658
tp4659
Rp4660
ag1
(g5
S'c\xd94<'
p4661
tp4662
Rp4663
ag1
(g5
S'\x9f\x17/<'
p4664
tp4665
Rp4666
ag1
(g5
S'\xc1\x1f"<'
p4667
tp4668
Rp4669
ag1
(g5
S'\xe5\x7f1<'
p4670
tp4671
Rp4672
ag1
(g5
S'\xe6@1<'
p4673
tp4674
Rp4675
ag1
(g5
S'G\xfd2<'
p4676
tp4677
Rp4678
ag1
(g5
S't\xd5-<'
p4679
tp4680
Rp4681
ag1
(g5
S'zRB<'
p4682
tp4683
Rp4684
ag1
(g5
S'_\x127<'
p4685
tp4686
Rp4687
ag1
(g5
S'`\x15$<'
p4688
tp4689
Rp4690
ag1
(g5
S'h~2<'
p4691
tp4692
Rp4693
ag1
(g5
S"\xcda'<"
p4694
tp4695
Rp4696
ag1
(g5
S'\x8d\xd8(<'
p4697
tp4698
Rp4699
ag1
(g5
S'\xe71-<'
p4700
tp4701
Rp4702
ag1
(g5
S'\x94\xcb?<'
p4703
tp4704
Rp4705
ag1
(g5
S'\x87\xcd0<'
p4706
tp4707
Rp4708
ag1
(g5
S'\x95\xd7*<'
p4709
tp4710
Rp4711
ag1
(g5
S'\xb0#1<'
p4712
tp4713
Rp4714
ag1
(g5
S'\xf6\x9e6<'
p4715
tp4716
Rp4717
ag1
(g5
S'8\xc2*<'
p4718
tp4719
Rp4720
ag1
(g5
S'\xdc\xf92<'
p4721
tp4722
Rp4723
ag1
(g5
S'\xd2U(<'
p4724
tp4725
Rp4726
ag1
(g5
S'\xd3:/<'
p4727
tp4728
Rp4729
ag1
(g5
S'\x99c,<'
p4730
tp4731
Rp4732
ag1
(g5
S'\xcf\x16+<'
p4733
tp4734
Rp4735
ag1
(g5
S'\xaf\xbb3<'
p4736
tp4737
Rp4738
ag1
(g5
S'\xca\x85\x13<'
p4739
tp4740
Rp4741
ag1
(g5
S'\xbe\xe0-<'
p4742
tp4743
Rp4744
ag1
(g5
S'\x84f/<'
p4745
tp4746
Rp4747
ag1
(g5
S'Y$\x13<'
p4748
tp4749
Rp4750
ag1
(g5
S't\x0b8<'
p4751
tp4752
Rp4753
ag1
(g5
S'\xe2L3<'
p4754
tp4755
Rp4756
ag1
(g5
S'\xda\x99\x1b<'
p4757
tp4758
Rp4759
ag1
(g5
S'\xee\xa14<'
p4760
tp4761
Rp4762
ag1
(g5
S'\x9a\xa43<'
p4763
tp4764
Rp4765
ag1
(g5
S'\xbe\x83-<'
p4766
tp4767
Rp4768
ag1
(g5
S'>\xbe3<'
p4769
tp4770
Rp4771
ag1
(g5
S'H\x18"<'
p4772
tp4773
Rp4774
ag1
(g5
S'k\xa33<'
p4775
tp4776
Rp4777
ag1
(g5
S'\xec1E<'
p4778
tp4779
Rp4780
ag1
(g5
S'\x03F3<'
p4781
tp4782
Rp4783
ag1
(g5
S"\xa2\xfa'<"
p4784
tp4785
Rp4786
ag1
(g5
S't<=<'
p4787
tp4788
Rp4789
ag1
(g5
S'\xe3\xf4%<'
p4790
tp4791
Rp4792
ag1
(g5
S'\n\x13;<'
p4793
tp4794
Rp4795
ag1
(g5
S'\x0b\x886<'
p4796
tp4797
Rp4798
ag1
(g5
S'\xce\xb65<'
p4799
tp4800
Rp4801
ag1
(g5
S'm=2<'
p4802
tp4803
Rp4804
ag1
(g5
S'\xfd[7<'
p4805
tp4806
Rp4807
ag1
(g5
S'\x1a\xe3:<'
p4808
tp4809
Rp4810
ag1
(g5
S'*\xe3;<'
p4811
tp4812
Rp4813
ag1
(g5
S'>.,<'
p4814
tp4815
Rp4816
ag1
(g5
S'\xaeH9<'
p4817
tp4818
Rp4819
ag1
(g5
S'\xfbw\x1c<'
p4820
tp4821
Rp4822
ag1
(g5
S'\xce\x9b/<'
p4823
tp4824
Rp4825
ag1
(g5
S'\x8d\xb6/<'
p4826
tp4827
Rp4828
ag1
(g5
S'af0<'
p4829
tp4830
Rp4831
ag1
(g5
S'\x11\x8a:<'
p4832
tp4833
Rp4834
ag1
(g5
S'\xab0?<'
p4835
tp4836
Rp4837
ag1
(g5
S'\n\x17!<'
p4838
tp4839
Rp4840
ag1
(g5
S'\x02\xc9(<'
p4841
tp4842
Rp4843
ag1
(g5
S'\xb1O7<'
p4844
tp4845
Rp4846
ag1
(g5
S'?\x172<'
p4847
tp4848
Rp4849
ag1
(g5
S'\x98\x12,<'
p4850
tp4851
Rp4852
ag1
(g5
S'\xc5E <'
p4853
tp4854
Rp4855
ag1
(g5
S'\xcb\xb6-<'
p4856
tp4857
Rp4858
ag1
(g5
S'\x9fs.<'
p4859
tp4860
Rp4861
ag1
(g5
S'\x7f\x8e0<'
p4862
tp4863
Rp4864
ag1
(g5
S'\xa8s*<'
p4865
tp4866
Rp4867
ag1
(g5
S'(u=<'
p4868
tp4869
Rp4870
ag1
(g5
S'\xa0G4<'
p4871
tp4872
Rp4873
ag1
(g5
S'U\xc1!<'
p4874
tp4875
Rp4876
ag1
(g5
S'\xe7\xe30<'
p4877
tp4878
Rp4879
ag1
(g5
S'\x83\xc0$<'
p4880
tp4881
Rp4882
ag1
(g5
S'\xd0\xb1&<'
p4883
tp4884
Rp4885
ag1
(g5
S'H),<'
p4886
tp4887
Rp4888
ag1
(g5
S'\xe5\xe1<<'
p4889
tp4890
Rp4891
ag1
(g5
S'[R.<'
p4892
tp4893
Rp4894
ag1
(g5
S'\xee\x0f*<'
p4895
tp4896
Rp4897
ag1
(g5
S'\xf2{/<'
p4898
tp4899
Rp4900
ag1
(g5
S'\xde|5<'
p4901
tp4902
Rp4903
ag1
(g5
S'\xfcf(<'
p4904
tp4905
Rp4906
ag1
(g5
S'Q\x801<'
p4907
tp4908
Rp4909
ag1
(g5
S'"\xdc&<'
p4910
tp4911
Rp4912
ag1
(g5
S'\xf3\xa5-<'
p4913
tp4914
Rp4915
ag1
(g5
S'\xd9\x19+<'
p4916
tp4917
Rp4918
ag1
(g5
S'~f)<'
p4919
tp4920
Rp4921
ag1
(g5
S'\x1dX2<'
p4922
tp4923
Rp4924
ag1
(g5
S'\xe9s\x11<'
p4925
tp4926
Rp4927
ag1
(g5
S'\x94\xb9,<'
p4928
tp4929
Rp4930
ag1
(g5
S'\xb4\x15-<'
p4931
tp4932
Rp4933
ag1
(g5
S'\x0b\xac\x11<'
p4934
tp4935
Rp4936
ag1
(g5
S'\xb4\x125<'
p4937
tp4938
Rp4939
ag1
(g5
S'\xe9\x991<'
p4940
tp4941
Rp4942
ag1
(g5
S'\xbc\x8c\x19<'
p4943
tp4944
Rp4945
ag1
(g5
S'\xd2r3<'
p4946
tp4947
Rp4948
ag1
(g5
S'\xfa01<'
p4949
tp4950
Rp4951
ag1
(g5
S'\xee\x15,<'
p4952
tp4953
Rp4954
ag1
(g5
S'\xb4\x002<'
p4955
tp4956
Rp4957
ag1
(g5
S'\x08p <'
p4958
tp4959
Rp4960
ag1
(g5
S'\x08\xee/<'
p4961
tp4962
Rp4963
ag1
(g5
S'\xf1\xdcB<'
p4964
tp4965
Rp4966
ag1
(g5
S'\xcbz.<'
p4967
tp4968
Rp4969
ag1
(g5
S'\xa7\xee%<'
p4970
tp4971
Rp4972
ag1
(g5
S'r^<<'
p4973
tp4974
Rp4975
ag1
(g5
S'\x9d\x1f$<'
p4976
tp4977
Rp4978
ag1
(g5
S'i\xc29<'
p4979
tp4980
Rp4981
ag1
(g5
S'\xf7$4<'
p4982
tp4983
Rp4984
ag1
(g5
S'h\xef3<'
p4985
tp4986
Rp4987
ag1
(g5
S'\n\xf90<'
p4988
tp4989
Rp4990
ag1
(g5
S'\\44<'
p4991
tp4992
Rp4993
ag1
(g5
S'`\xbf6<'
p4994
tp4995
Rp4996
ag1
(g5
S'\xfaN8<'
p4997
tp4998
Rp4999
ag1
(g5
S'\x04\x15)<'
p5000
tp5001
Rp5002
ag1
(g5
S'L\x068<'
p5003
tp5004
Rp5005
ag1
(g5
S'|\xe7\x1b<'
p5006
tp5007
Rp5008
ag1
(g5
S'\xf5<.<'
p5009
tp5010
Rp5011
ag1
(g5
S'\xcd2/<'
p5012
tp5013
Rp5014
ag1
(g5
S'\xe5\xc1/<'
p5015
tp5016
Rp5017
ag1
(g5
S'\xdc\xa09<'
p5018
tp5019
Rp5020
ag1
(g5
S'\xa9+=<'
p5021
tp5022
Rp5023
ag1
(g5
S'\n\x8b\x1d<'
p5024
tp5025
Rp5026
ag1
(g5
S'\xb4\xfe%<'
p5027
tp5028
Rp5029
ag1
(g5
S'v\xf53<'
p5030
tp5031
Rp5032
ag1
(g5
S'\xdf$0<'
p5033
tp5034
Rp5035
ag1
(g5
S'\x0f\x8f*<'
p5036
tp5037
Rp5038
ag1
(g5
S'\xae\xc1\x1e<'
p5039
tp5040
Rp5041
ag1
(g5
S'\xa3\xc3,<'
p5042
tp5043
Rp5044
ag1
(g5
S'\xcbc.<'
p5045
tp5046
Rp5047
ag1
(g5
S'\xb6\x800<'
p5048
tp5049
Rp5050
ag1
(g5
S';\xb5)<'
p5051
tp5052
Rp5053
ag1
(g5
S'\xf3\x96<<'
p5054
tp5055
Rp5056
ag1
(g5
S'\x99\x972<'
p5057
tp5058
Rp5059
ag1
(g5
S'B\xc2\x1e<'
p5060
tp5061
Rp5062
ag1
(g5
S'\xf1c.<'
p5063
tp5064
Rp5065
ag1
(g5
S'\\\n"<'
p5066
tp5067
Rp5068
ag1
(g5
S'\x8fK$<'
p5069
tp5070
Rp5071
ag1
(g5
S'\xd8\xec)<'
p5072
tp5073
Rp5074
ag1
(g5
S'\xd4\x8f9<'
p5075
tp5076
Rp5077
ag1
(g5
S'G9.<'
p5078
tp5079
Rp5080
ag1
(g5
S"z\xc9'<"
p5081
tp5082
Rp5083
ag1
(g5
S'\xbaO.<'
p5084
tp5085
Rp5086
ag1
(g5
S'Ms4<'
p5087
tp5088
Rp5089
ag1
(g5
S'e\xa5&<'
p5090
tp5091
Rp5092
ag1
(g5
S'\xd1J/<'
p5093
tp5094
Rp5095
ag1
(g5
S'\xae\xe9$<'
p5096
tp5097
Rp5098
ag1
(g5
S'\xa4P,<'
p5099
tp5100
Rp5101
ag1
(g5
S'\xc2\x98)<'
p5102
tp5103
Rp5104
ag1
(g5
S'\xc2\xd9(<'
p5105
tp5106
Rp5107
ag1
(g5
S'b\xf9/<'
p5108
tp5109
Rp5110
ag1
(g5
S'\x19\xf2\x10<'
p5111
tp5112
Rp5113
ag1
(g5
S'2\x0f+<'
p5114
tp5115
Rp5116
ag1
(g5
S'\xc7\xac+<'
p5117
tp5118
Rp5119
ag1
(g5
S'\xd7\xf2\x10<'
p5120
tp5121
Rp5122
ag1
(g5
S'\x90>3<'
p5123
tp5124
Rp5125
ag1
(g5
S'Q\xc7/<'
p5126
tp5127
Rp5128
ag1
(g5
S'\n\xc0\x17<'
p5129
tp5130
Rp5131
ag1
(g5
S'J\xcc1<'
p5132
tp5133
Rp5134
ag1
(g5
S'\xce01<'
p5135
tp5136
Rp5137
ag1
(g5
S'\xcf\xb0,<'
p5138
tp5139
Rp5140
ag1
(g5
S'\xc5\x921<'
p5141
tp5142
Rp5143
ag1
(g5
S'\xac\x83\x1f<'
p5144
tp5145
Rp5146
ag1
(g5
S'\x83\xe7/<'
p5147
tp5148
Rp5149
ag1
(g5
S'~~@<'
p5150
tp5151
Rp5152
ag1
(g5
S'0B,<'
p5153
tp5154
Rp5155
ag1
(g5
S'\x0f\x83#<'
p5156
tp5157
Rp5158
ag1
(g5
S'^\xdd:<'
p5159
tp5160
Rp5161
ag1
(g5
S'\x1a\x11$<'
p5162
tp5163
Rp5164
ag1
(g5
S'P\x159<'
p5165
tp5166
Rp5167
ag1
(g5
S'l\xd62<'
p5168
tp5169
Rp5170
ag1
(g5
S'\xc7\xa83<'
p5171
tp5172
Rp5173
ag1
(g5
S'\x90P.<'
p5174
tp5175
Rp5176
ag1
(g5
S'E\x8e2<'
p5177
tp5178
Rp5179
ag1
(g5
S'\xb6\xed3<'
p5180
tp5181
Rp5182
ag1
(g5
S'\xf1\x1f8<'
p5183
tp5184
Rp5185
ag1
(g5
S"A\x0b'<"
p5186
tp5187
Rp5188
ag1
(g5
S'\x94\xae4<'
p5189
tp5190
Rp5191
ag1
(g5
S'\x85c\x19<'
p5192
tp5193
Rp5194
ag1
(g5
S'J\x90+<'
p5195
tp5196
Rp5197
ag1
(g5
S'G\xbe-<'
p5198
tp5199
Rp5200
ag1
(g5
S'r\x8f.<'
p5201
tp5202
Rp5203
ag1
(g5
S'o\xaa9<'
p5204
tp5205
Rp5206
ag1
(g5
S'\x145=<'
p5207
tp5208
Rp5209
ag1
(g5
S'\xbc\x7f\x1d<'
p5210
tp5211
Rp5212
ag1
(g5
S'\xed\xb9&<'
p5213
tp5214
Rp5215
ag1
(g5
S'f(3<'
p5216
tp5217
Rp5218
ag1
(g5
S'\x05\xb1.<'
p5219
tp5220
Rp5221
ag1
(g5
S'.\xe4(<'
p5222
tp5223
Rp5224
ag1
(g5
S'\xc8\xe0\x1c<'
p5225
tp5226
Rp5227
ag1
(g5
S'\x08\xb0)<'
p5228
tp5229
Rp5230
ag1
(g5
S'.\xf0+<'
p5231
tp5232
Rp5233
ag1
(g5
S'@\x8a.<'
p5234
tp5235
Rp5236
ag1
(g5
S'\xf5>*<'
p5237
tp5238
Rp5239
ag1
(g5
S'M\xb1:<'
p5240
tp5241
Rp5242
ag1
(g5
S'\\\xaa2<'
p5243
tp5244
Rp5245
ag1
(g5
S'\xf9\xd4\x1e<'
p5246
tp5247
Rp5248
ag1
(g5
S'\x94@-<'
p5249
tp5250
Rp5251
ag1
(g5
S'\x98\xb7 <'
p5252
tp5253
Rp5254
ag1
(g5
S'\xde\xfd!<'
p5255
tp5256
Rp5257
ag1
(g5
S"\xe6\x88'<"
p5258
tp5259
Rp5260
ag1
(g5
S'\x08\xa98<'
p5261
tp5262
Rp5263
ag1
(g5
S'm\xcb+<'
p5264
tp5265
Rp5266
ag1
(g5
S"\n\xeb'<"
p5267
tp5268
Rp5269
ag1
(g5
S'\xc5\xf0-<'
p5270
tp5271
Rp5272
ag1
(g5
S'\xf2\x0f3<'
p5273
tp5274
Rp5275
ag1
(g5
S'\xa6/&<'
p5276
tp5277
Rp5278
ag1
(g5
S'\xc6\xaa.<'
p5279
tp5280
Rp5281
ag1
(g5
S'\xfa\x08#<'
p5282
tp5283
Rp5284
ag1
(g5
S'\xd2\xf7*<'
p5285
tp5286
Rp5287
ag1
(g5
S'\xd7\xb0&<'
p5288
tp5289
Rp5290
ag1
(g5
S"o'%<"
p5291
tp5292
Rp5293
ag1
(g5
S'\xe8\x00.<'
p5294
tp5295
Rp5296
ag1
(g5
S'\x13\xba\x0f<'
p5297
tp5298
Rp5299
ag1
(g5
S'\x02\xb4+<'
p5300
tp5301
Rp5302
ag1
(g5
S'\x86[*<'
p5303
tp5304
Rp5305
ag1
(g5
S'\x81\xcb\x0f<'
p5306
tp5307
Rp5308
ag1
(g5
S'j\x0f3<'
p5309
tp5310
Rp5311
ag1
(g5
S'/\x1d/<'
p5312
tp5313
Rp5314
ag1
(g5
S'Qq\x16<'
p5315
tp5316
Rp5317
ag1
(g5
S'\x06\xc40<'
p5318
tp5319
Rp5320
ag1
(g5
S'\x00\xd6.<'
p5321
tp5322
Rp5323
ag1
(g5
S'\xce\x11*<'
p5324
tp5325
Rp5326
ag1
(g5
S'\xbdn.<'
p5327
tp5328
Rp5329
ag1
(g5
S'\x16%\x1d<'
p5330
tp5331
Rp5332
ag1
(g5
S'Nl.<'
p5333
tp5334
Rp5335
ag1
(g5
S'{\x92A<'
p5336
tp5337
Rp5338
ag1
(g5
S'\x8a\xff,<'
p5339
tp5340
Rp5341
ag1
(g5
S'uW#<'
p5342
tp5343
Rp5344
ag1
(g5
S'\x86\xc88<'
p5345
tp5346
Rp5347
ag1
(g5
S'\xd9\x9e!<'
p5348
tp5349
Rp5350
ag1
(g5
S'Y\xa86<'
p5351
tp5352
Rp5353
ag1
(g5
S'\xac\xe10<'
p5354
tp5355
Rp5356
ag1
(g5
S'\x10\xb70<'
p5357
tp5358
Rp5359
ag1
(g5
S'\x83o-<'
p5360
tp5361
Rp5362
ag1
(g5
S'\x8f\x902<'
p5363
tp5364
Rp5365
ag1
(g5
S'*\\4<'
p5366
tp5367
Rp5368
ag1
(g5
S'Et7<'
p5369
tp5370
Rp5371
ag1
(g5
S'\xa7\x1e&<'
p5372
tp5373
Rp5374
ag1
(g5
S'rJ3<'
p5375
tp5376
Rp5377
ag1
(g5
S'\xba\xfc\x17<'
p5378
tp5379
Rp5380
ag1
(g5
S'\x98\xd8*<'
p5381
tp5382
Rp5383
ag1
(g5
S'\x00G*<'
p5384
tp5385
Rp5386
ag1
(g5
S'_\xd3+<'
p5387
tp5388
Rp5389
ag1
(g5
S'\xce(6<'
p5390
tp5391
Rp5392
ag1
(g5
S'\xb7\x82;<'
p5393
tp5394
Rp5395
ag1
(g5
S'O\x12\x1d<'
p5396
tp5397
Rp5398
ag1
(g5
S'\x96\x93$<'
p5399
tp5400
Rp5401
ag1
(g5
S'\xfc\x981<'
p5402
tp5403
Rp5404
ag1
(g5
S'\x00\xfc,<'
p5405
tp5406
Rp5407
ag1
(g5
S"=\xb2'<"
p5408
tp5409
Rp5410
ag1
(g5
S'\xe8\x89\x1a<'
p5411
tp5412
Rp5413
ag1
(g5
S'\x0c\x0c(<'
p5414
tp5415
Rp5416
ag1
(g5
S'\x8b\xa0*<'
p5417
tp5418
Rp5419
ag1
(g5
S'\x9f,,<'
p5420
tp5421
Rp5422
ag1
(g5
S"%\x10'<"
p5423
tp5424
Rp5425
ag1
(g5
S'<\x9b9<'
p5426
tp5427
Rp5428
ag1
(g5
S'\xa6v0<'
p5429
tp5430
Rp5431
ag1
(g5
S'\xc4\xf4\x1e<'
p5432
tp5433
Rp5434
ag1
(g5
S'_\xce-<'
p5435
tp5436
Rp5437
ag1
(g5
S'\x95\x96\x1f<'
p5438
tp5439
Rp5440
ag1
(g5
S'\xb9/"<'
p5441
tp5442
Rp5443
ag1
(g5
S'3\x1b&<'
p5444
tp5445
Rp5446
ag1
(g5
S'\xb6\xce5<'
p5447
tp5448
Rp5449
ag1
(g5
S'\xcen)<'
p5450
tp5451
Rp5452
ag1
(g5
S'W\xa8#<'
p5453
tp5454
Rp5455
ag1
(g5
S'\xfc\x86*<'
p5456
tp5457
Rp5458
ag1
(g5
S'z\x9e2<'
p5459
tp5460
Rp5461
ag1
(g5
S'\xae`%<'
p5462
tp5463
Rp5464
ag1
(g5
S'\xb6K-<'
p5465
tp5466
Rp5467
ag1
(g5
S'\x9ch"<'
p5468
tp5469
Rp5470
ag1
(g5
S'\xa2\x13*<'
p5471
tp5472
Rp5473
ag1
(g5
S'\xaa\x0c&<'
p5474
tp5475
Rp5476
ag1
(g5
S'0I$<'
p5477
tp5478
Rp5479
ag1
(g5
S'\xb7b,<'
p5480
tp5481
Rp5482
ag1
(g5
S'\x01Q\r<'
p5483
tp5484
Rp5485
ag1
(g5
S"\xbbb'<"
p5486
tp5487
Rp5488
ag1
(g5
S"\xb6\xc1'<"
p5489
tp5490
Rp5491
ag1
(g5
S'\xff*\r<'
p5492
tp5493
Rp5494
ag1
(g5
S'\x8c\xbe1<'
p5495
tp5496
Rp5497
ag1
(g5
S'@},<'
p5498
tp5499
Rp5500
ag1
(g5
S'\xb9\x81\x15<'
p5501
tp5502
Rp5503
ag1
(g5
S'Q\xe70<'
p5504
tp5505
Rp5506
ag1
(g5
S')w,<'
p5507
tp5508
Rp5509
ag1
(g5
S'\xf5\xeb(<'
p5510
tp5511
Rp5512
ag1
(g5
S'\xbd\xa6-<'
p5513
tp5514
Rp5515
ag1
(g5
S's[\x1b<'
p5516
tp5517
Rp5518
ag1
(g5
S'e\xcf,<'
p5519
tp5520
Rp5521
ag1
(g5
S'xK=<'
p5522
tp5523
Rp5524
ag1
(g5
S'\xb2\xeb*<'
p5525
tp5526
Rp5527
ag1
(g5
S'\xf8Z <'
p5528
tp5529
Rp5530
ag1
(g5
S'\x94\xf96<'
p5531
tp5532
Rp5533
ag1
(g5
S'\xf4Q <'
p5534
tp5535
Rp5536
ag1
(g5
S'\x03+5<'
p5537
tp5538
Rp5539
ag1
(g5
S'\x84:/<'
p5540
tp5541
Rp5542
ag1
(g5
S'\xef\xa7-<'
p5543
tp5544
Rp5545
ag1
(g5
S'S\x0c+<'
p5546
tp5547
Rp5548
ag1
(g5
S'\xd5,/<'
p5549
tp5550
Rp5551
ag1
(g5
S'\xfe50<'
p5552
tp5553
Rp5554
ag1
(g5
S'\xf1t3<'
p5555
tp5556
Rp5557
ag1
(g5
S'+e$<'
p5558
tp5559
Rp5560
ag1
(g5
S'\x04j0<'
p5561
tp5562
Rp5563
ag1
(g5
S'\x86)\x16<'
p5564
tp5565
Rp5566
ag1
(g5
S"\x984'<"
p5567
tp5568
Rp5569
ag1
(g5
S'\xaa\xc1(<'
p5570
tp5571
Rp5572
ag1
(g5
S'/\xb3)<'
p5573
tp5574
Rp5575
ag1
(g5
S'\x01`3<'
p5576
tp5577
Rp5578
ag1
(g5
S'\x8b\xca7<'
p5579
tp5580
Rp5581
ag1
(g5
S'\xb7}\x19<'
p5582
tp5583
Rp5584
ag1
(g5
S'\x0b\xdd!<'
p5585
tp5586
Rp5587
ag1
(g5
S'\xf1F0<'
p5588
tp5589
Rp5590
ag1
(g5
S'*\xa6+<'
p5591
tp5592
Rp5593
ag1
(g5
S'\xb1\xd8%<'
p5594
tp5595
Rp5596
ag1
(g5
S'\x85\xa3\x19<'
p5597
tp5598
Rp5599
ag1
(g5
S"~\x18'<"
p5600
tp5601
Rp5602
ag1
(g5
S"\x89\xc4'<"
p5603
tp5604
Rp5605
ag1
(g5
S'Z )<'
p5606
tp5607
Rp5608
ag1
(g5
S'(.$<'
p5609
tp5610
Rp5611
ag1
(g5
S'\xd1m7<'
p5612
tp5613
Rp5614
ag1
(g5
S'\xb2\xeb-<'
p5615
tp5616
Rp5617
ag1
(g5
S'\x10\x95\x1b<'
p5618
tp5619
Rp5620
ag1
(g5
S'\x1c\x1a*<'
p5621
tp5622
Rp5623
ag1
(g5
S'\x01q\x1e<'
p5624
tp5625
Rp5626
ag1
(g5
S'\xfd{\x1f<'
p5627
tp5628
Rp5629
ag1
(g5
S'\xadD&<'
p5630
tp5631
Rp5632
ag1
(g5
S'#\x985<'
p5633
tp5634
Rp5635
ag1
(g5
S"\\\xf9'<"
p5636
tp5637
Rp5638
ag1
(g5
S'\xc5s"<'
p5639
tp5640
Rp5641
ag1
(g5
S'=\xcb(<'
p5642
tp5643
Rp5644
ag1
(g5
S'z\xf7-<'
p5645
tp5646
Rp5647
ag1
(g5
S'\x16\x04"<'
p5648
tp5649
Rp5650
ag1
(g5
S'i\xc1)<'
p5651
tp5652
Rp5653
ag1
(g5
S'Be!<'
p5654
tp5655
Rp5656
ag1
(g5
S'\xaf\xd8&<'
p5657
tp5658
Rp5659
ag1
(g5
S'\x18\xcb$<'
p5660
tp5661
Rp5662
ag1
(g5
S'\xbd\xec#<'
p5663
tp5664
Rp5665
ag1
(g5
S'\xd1]+<'
p5666
tp5667
Rp5668
ag1
(g5
S'}\x8c\x0c<'
p5669
tp5670
Rp5671
ag1
(g5
S'\x9c/%<'
p5672
tp5673
Rp5674
ag1
(g5
S'\x92\xad%<'
p5675
tp5676
Rp5677
ag1
(g5
S'h\xf6\t<'
p5678
tp5679
Rp5680
ag1
(g5
S'\xb7c-<'
p5681
tp5682
Rp5683
ag1
(g5
S'L\x00+<'
p5684
tp5685
Rp5686
ag1
(g5
S'\x83\xff\x11<'
p5687
tp5688
Rp5689
ag1
(g5
S'O\xaa,<'
p5690
tp5691
Rp5692
ag1
(g5
S'\xa9\xd8*<'
p5693
tp5694
Rp5695
ag1
(g5
S'hb&<'
p5696
tp5697
Rp5698
ag1
(g5
S'L\xc9+<'
p5699
tp5700
Rp5701
ag1
(g5
S'\xba\xcd\x19<'
p5702
tp5703
Rp5704
ag1
(g5
S'\xd5\xcb*<'
p5705
tp5706
Rp5707
ag1
(g5
S'\x8a\xfe;<'
p5708
tp5709
Rp5710
ag1
(g5
S"Z\xed'<"
p5711
tp5712
Rp5713
ag1
(g5
S'h]\x1e<'
p5714
tp5715
Rp5716
ag1
(g5
S'\x80\xbb4<'
p5717
tp5718
Rp5719
ag1
(g5
S'\x9e\xb7\x1e<'
p5720
tp5721
Rp5722
ag1
(g5
S'\xfe\xe33<'
p5723
tp5724
Rp5725
ag1
(g5
S'3\xbc-<'
p5726
tp5727
Rp5728
ag1
(g5
S'\xd4%,<'
p5729
tp5730
Rp5731
ag1
(g5
S'^\xd5*<'
p5732
tp5733
Rp5734
ag1
(g5
S'\xbek-<'
p5735
tp5736
Rp5737
ag1
(g5
S'c\x8f/<'
p5738
tp5739
Rp5740
ag1
(g5
S'\x8b+3<'
p5741
tp5742
Rp5743
ag1
(g5
S'\xd2\xd1"<'
p5744
tp5745
Rp5746
ag1
(g5
S'\x98\x88/<'
p5747
tp5748
Rp5749
ag1
(g5
S'\xe1\xd2\x14<'
p5750
tp5751
Rp5752
ag1
(g5
S'\x82-&<'
p5753
tp5754
Rp5755
ag1
(g5
S'\xaa\xc8&<'
p5756
tp5757
Rp5758
ag1
(g5
S"\x1c\x9e'<"
p5759
tp5760
Rp5761
ag1
(g5
S'\xa4]0<'
p5762
tp5763
Rp5764
ag1
(g5
S'\xc7s6<'
p5765
tp5766
Rp5767
ag1
(g5
S'\x82C\x17<'
p5768
tp5769
Rp5770
ag1
(g5
S'|\xc3 <'
p5771
tp5772
Rp5773
ag1
(g5
S'\xe0\xb2,<'
p5774
tp5775
Rp5776
ag1
(g5
S'\xb9R(<'
p5777
tp5778
Rp5779
ag1
(g5
S'd\xf3"<'
p5780
tp5781
Rp5782
ag1
(g5
S'qc\x17<'
p5783
tp5784
Rp5785
ag1
(g5
S'2+$<'
p5786
tp5787
Rp5788
ag1
(g5
S'\x87\x81&<'
p5789
tp5790
Rp5791
ag1
(g5
S'\xc5$(<'
p5792
tp5793
Rp5794
ag1
(g5
S'\x85\x9b"<'
p5795
tp5796
Rp5797
ag1
(g5
S'\xa3\xa34<'
p5798
tp5799
Rp5800
ag1
(g5
S'\xc6\xc3,<'
p5801
tp5802
Rp5803
ag1
(g5
S'\xc7\x86\x18<'
p5804
tp5805
Rp5806
ag1
(g5
S"\xf5\x12'<"
p5807
tp5808
Rp5809
ag1
(g5
S'\xdf\xf1\x1b<'
p5810
tp5811
Rp5812
ag1
(g5
S'R\xc4\x1c<'
p5813
tp5814
Rp5815
ag1
(g5
S'\x0c\xc5!<'
p5816
tp5817
Rp5818
ag1
(g5
S'tM2<'
p5819
tp5820
Rp5821
ag1
(g5
S'\x05\xec%<'
p5822
tp5823
Rp5824
ag1
(g5
S'ZD!<'
p5825
tp5826
Rp5827
ag1
(g5
S'5(&<'
p5828
tp5829
Rp5830
ag1
(g5
S'\xa0\x13-<'
p5831
tp5832
Rp5833
ag1
(g5
S'sh!<'
p5834
tp5835
Rp5836
ag1
(g5
S"\x8e\xfe'<"
p5837
tp5838
Rp5839
ag1
(g5
S'\xdfs\x1e<'
p5840
tp5841
Rp5842
ag1
(g5
S'\xfa\xb9$<'
p5843
tp5844
Rp5845
ag1
(g5
S'ox!<'
p5846
tp5847
Rp5848
ag1
(g5
S'\x05\x84 <'
p5849
tp5850
Rp5851
ag1
(g5
S"F\xe8'<"
p5852
tp5853
Rp5854
ag1
(g5
S'\xc9\x96\t<'
p5855
tp5856
Rp5857
ag1
(g5
S'\x9c\x15$<'
p5858
tp5859
Rp5860
ag1
(g5
S',\xc7#<'
p5861
tp5862
Rp5863
ag1
(g5
S'9\x86\n<'
p5864
tp5865
Rp5866
ag1
(g5
S'\xac\xcb-<'
p5867
tp5868
Rp5869
ag1
(g5
S'\x88\xb5(<'
p5870
tp5871
Rp5872
ag1
(g5
S'\x07)\x11<'
p5873
tp5874
Rp5875
ag1
(g5
S'\x82p+<'
p5876
tp5877
Rp5878
ag1
(g5
S'\xf0\x9a(<'
p5879
tp5880
Rp5881
ag1
(g5
S'F\xbd$<'
p5882
tp5883
Rp5884
ag1
(g5
S'@s(<'
p5885
tp5886
Rp5887
ag1
(g5
S'\xf1-\x17<'
p5888
tp5889
Rp5890
ag1
(g5
S'\x80\xcf(<'
p5891
tp5892
Rp5893
ag1
(g5
S'\x9d\x1b;<'
p5894
tp5895
Rp5896
ag1
(g5
S'\xd0\xdd&<'
p5897
tp5898
Rp5899
ag1
(g5
S'+\x92\x1d<'
p5900
tp5901
Rp5902
ag1
(g5
S'z\xd03<'
p5903
tp5904
Rp5905
ag1
(g5
S'\xcc\xc0\x1c<'
p5906
tp5907
Rp5908
ag1
(g5
S'[\xaf1<'
p5909
tp5910
Rp5911
ag1
(g5
S'Y<,<'
p5912
tp5913
Rp5914
ag1
(g5
S'\x92-*<'
p5915
tp5916
Rp5917
ag1
(g5
S'\x89<(<'
p5918
tp5919
Rp5920
ag1
(g5
S'\x9e4,<'
p5921
tp5922
Rp5923
ag1
(g5
S'z\r.<'
p5924
tp5925
Rp5926
ag1
(g5
S'ix0<'
p5927
tp5928
Rp5929
ag1
(g5
S'\x8a\x02"<'
p5930
tp5931
Rp5932
ag1
(g5
S'\xc5?.<'
p5933
tp5934
Rp5935
ag1
(g5
S'RJ\x13<'
p5936
tp5937
Rp5938
ag1
(g5
S'jQ%<'
p5939
tp5940
Rp5941
ag1
(g5
S'Z\xa7%<'
p5942
tp5943
Rp5944
ag1
(g5
S'G\xc8&<'
p5945
tp5946
Rp5947
ag1
(g5
S'420<'
p5948
tp5949
Rp5950
ag1
(g5
S'Q\x175<'
p5951
tp5952
Rp5953
ag1
(g5
S'\xd1Z\x15<'
p5954
tp5955
Rp5956
ag1
(g5
S'\x80>\x1e<'
p5957
tp5958
Rp5959
ag1
(g5
S'\xa6\x88*<'
p5960
tp5961
Rp5962
ag1
(g5
S":\xcc'<"
p5963
tp5964
Rp5965
ag1
(g5
S'\xd6\xf8"<'
p5966
tp5967
Rp5968
ag1
(g5
S'\xfcs\x16<'
p5969
tp5970
Rp5971
ag1
(g5
S'\xaf/$<'
p5972
tp5973
Rp5974
ag1
(g5
S'\xa7]$<'
p5975
tp5976
Rp5977
ag1
(g5
S'\xea\x12&<'
p5978
tp5979
Rp5980
ag1
(g5
S'\xb9q <'
p5981
tp5982
Rp5983
ag1
(g5
S't\xf03<'
p5984
tp5985
Rp5986
ag1
(g5
S'\x0b\x00*<'
p5987
tp5988
Rp5989
ag1
(g5
S'\x8c@\x18<'
p5990
tp5991
Rp5992
ag1
(g5
S'9\xf2$<'
p5993
tp5994
Rp5995
ag1
(g5
S'[N\x19<'
p5996
tp5997
Rp5998
ag1
(g5
S'?K\x1c<'
p5999
tp6000
Rp6001
ag1
(g5
S'\xcdh!<'
p6002
tp6003
Rp6004
ag1
(g5
S'\x1fX1<'
p6005
tp6006
Rp6007
ag1
(g5
S'\x13f#<'
p6008
tp6009
Rp6010
ag1
(g5
S'\x16\xd8\x1e<'
p6011
tp6012
Rp6013
ag1
(g5
S';(%<'
p6014
tp6015
Rp6016
ag1
(g5
S'Z\xd5*<'
p6017
tp6018
Rp6019
ag1
(g5
S'A\x04\x1f<'
p6020
tp6021
Rp6022
ag1
(g5
S'P\xd3&<'
p6023
tp6024
Rp6025
ag1
(g5
S'\xfd\x94\x1c<'
p6026
tp6027
Rp6028
ag1
(g5
S'\x8e\xd9"<'
p6029
tp6030
Rp6031
ag1
(g5
S'\xd6T!<'
p6032
tp6033
Rp6034
ag1
(g5
S'C\n\x1f<'
p6035
tp6036
Rp6037
ag1
(g5
S'\xb9\xa2&<'
p6038
tp6039
Rp6040
ag1
(g5
S'\xcb\xc3\x07<'
p6041
tp6042
Rp6043
ag1
(g5
S'\x96\xb3"<'
p6044
tp6045
Rp6046
ag1
(g5
S'\xe5C"<'
p6047
tp6048
Rp6049
ag1
(g5
S'\x14\xdd\x07<'
p6050
tp6051
Rp6052
ag1
(g5
S'^;+<'
p6053
tp6054
Rp6055
ag1
(g5
S"\x05/'<"
p6056
tp6057
Rp6058
ag1
(g5
S'\xec/\x10<'
p6059
tp6060
Rp6061
ag1
(g5
S"\x0c'+<"
p6062
tp6063
Rp6064
ag1
(g5
S'p,(<'
p6065
tp6066
Rp6067
ag1
(g5
S'\xf3\xb0#<'
p6068
tp6069
Rp6070
ag1
(g5
S'\xe78)<'
p6071
tp6072
Rp6073
ag1
(g5
S'C^\x16<'
p6074
tp6075
Rp6076
ag1
(g5
S"\xe2\xab'<"
p6077
tp6078
Rp6079
ag1
(g5
S"Z'9<"
p6080
tp6081
Rp6082
ag1
(g5
S'c\xee$<'
p6083
tp6084
Rp6085
ag1
(g5
S'\xea\xdf\x1b<'
p6086
tp6087
Rp6088
ag1
(g5
S'\xa9\xed1<'
p6089
tp6090
Rp6091
ag1
(g5
S'\xae\xcb\x1a<'
p6092
tp6093
Rp6094
ag1
(g5
S'\xe1~1<'
p6095
tp6096
Rp6097
ag1
(g5
S'A\xcf*<'
p6098
tp6099
Rp6100
ag1
(g5
S'\xcb.*<'
p6101
tp6102
Rp6103
ag1
(g5
S'\x94\xd8&<'
p6104
tp6105
Rp6106
ag1
(g5
S'\x8c\xc2)<'
p6107
tp6108
Rp6109
ag1
(g5
S'\x18&,<'
p6110
tp6111
Rp6112
ag1
(g5
S'%\xde/<'
p6113
tp6114
Rp6115
ag1
(g5
S'6<\x1f<'
p6116
tp6117
Rp6118
ag1
(g5
S'\xf20-<'
p6119
tp6120
Rp6121
ag1
(g5
S'\x12\xe0\x12<'
p6122
tp6123
Rp6124
ag1
(g5
S'\xb9\xf8#<'
p6125
tp6126
Rp6127
ag1
(g5
S'\xa7F$<'
p6128
tp6129
Rp6130
ag1
(g5
S'Bc%<'
p6131
tp6132
Rp6133
ag1
(g5
S'\xbc\xdb0<'
p6134
tp6135
Rp6136
ag1
(g5
S'rp4<'
p6137
tp6138
Rp6139
ag1
(g5
S'\xe4\x80\x15<'
p6140
tp6141
Rp6142
ag1
(g5
S'Fb\x1d<'
p6143
tp6144
Rp6145
ag1
(g5
S'$C)<'
p6146
tp6147
Rp6148
ag1
(g5
S'\x08q%<'
p6149
tp6150
Rp6151
ag1
(g5
S'\x97\xad\x1f<'
p6152
tp6153
Rp6154
ag1
(g5
S'\xc2O\x14<'
p6155
tp6156
Rp6157
ag1
(g5
S'\x7f\xf4 <'
p6158
tp6159
Rp6160
ag1
(g5
S'\xfc\xf4"<'
p6161
tp6162
Rp6163
ag1
(g5
S'\tF%<'
p6164
tp6165
Rp6166
ag1
(g5
S"T'!<"
p6167
tp6168
Rp6169
ag1
(g5
S'+N1<'
p6170
tp6171
Rp6172
ag1
(g5
S'>\x19)<'
p6173
tp6174
Rp6175
ag1
(g5
S'\xbb>\x16<'
p6176
tp6177
Rp6178
ag1
(g5
S'\x87\xbb$<'
p6179
tp6180
Rp6181
ag1
(g5
S'\xc6\x0f\x18<'
p6182
tp6183
Rp6184
ag1
(g5
S'\xec\xa1\x1a<'
p6185
tp6186
Rp6187
ag1
(g5
S'\xc0\xc0\x1f<'
p6188
tp6189
Rp6190
ag1
(g5
S')\xeb/<'
p6191
tp6192
Rp6193
ag1
(g5
S'\xd60"<'
p6194
tp6195
Rp6196
ag1
(g5
S'&\x7f\x1d<'
p6197
tp6198
Rp6199
ag1
(g5
S'\xc7n"<'
p6200
tp6201
Rp6202
ag1
(g5
S'\x98\xcd)<'
p6203
tp6204
Rp6205
ag1
(g5
S'\x94\x90\x1d<'
p6206
tp6207
Rp6208
ag1
(g5
S':\xf5#<'
p6209
tp6210
Rp6211
ag1
(g5
S'S\xa1\x1b<'
p6212
tp6213
Rp6214
ag1
(g5
S'sM!<'
p6215
tp6216
Rp6217
ag1
(g5
S'\xfd\xe9\x1e<'
p6218
tp6219
Rp6220
ag1
(g5
S'\x10e\x1e<'
p6221
tp6222
Rp6223
ag1
(g5
S'\x12\xf1$<'
p6224
tp6225
Rp6226
ag1
(g5
S'\x8bT\x07<'
p6227
tp6228
Rp6229
ag1
(g5
S'\xa5X!<'
p6230
tp6231
Rp6232
ag1
(g5
S'\xf4\xe1\x1e<'
p6233
tp6234
Rp6235
ag1
(g5
S'6\xa2\x06<'
p6236
tp6237
Rp6238
ag1
(g5
S'\x8b\x89*<'
p6239
tp6240
Rp6241
ag1
(g5
S'a\x1a&<'
p6242
tp6243
Rp6244
ag1
(g5
S'Tu\x0e<'
p6245
tp6246
Rp6247
ag1
(g5
S'\xa2\x16*<'
p6248
tp6249
Rp6250
ag1
(g5
S'\xc6>&<'
p6251
tp6252
Rp6253
ag1
(g5
S'\xff\xbf!<'
p6254
tp6255
Rp6256
ag1
(g5
S'L\xb2&<'
p6257
tp6258
Rp6259
ag1
(g5
S'\xfbY\x15<'
p6260
tp6261
Rp6262
ag1
(g5
S'\xab\x0f&<'
p6263
tp6264
Rp6265
ag1
(g5
S'_\xda8<'
p6266
tp6267
Rp6268
ag1
(g5
S'u\xc8$<'
p6269
tp6270
Rp6271
ag1
(g5
S'\xc0C\x1a<'
p6272
tp6273
Rp6274
ag1
(g5
S'\xcf\xaf/<'
p6275
tp6276
Rp6277
ag1
(g5
S'\x96,\x1a<'
p6278
tp6279
Rp6280
ag1
(g5
S'\x9f\xf5/<'
p6281
tp6282
Rp6283
ag1
(g5
S'!6*<'
p6284
tp6285
Rp6286
ag1
(g5
S'j\x0b)<'
p6287
tp6288
Rp6289
ag1
(g5
S'\x0c &<'
p6290
tp6291
Rp6292
ag1
(g5
S'\xd4\xae)<'
p6293
tp6294
Rp6295
ag1
(g5
S'\xf3\x96*<'
p6296
tp6297
Rp6298
ag1
(g5
S'Xp/<'
p6299
tp6300
Rp6301
ag1
(g5
S'#"\x1e<'
p6302
tp6303
Rp6304
ag1
(g5
S'\xfc\xa7+<'
p6305
tp6306
Rp6307
ag1
(g5
S'\xd8T\x10<'
p6308
tp6309
Rp6310
ag1
(g5
S'\xac\x1d#<'
p6311
tp6312
Rp6313
ag1
(g5
S'\x11\xb8#<'
p6314
tp6315
Rp6316
ag1
(g5
S'\xb0\xb7$<'
p6317
tp6318
Rp6319
ag1
(g5
S'\xb6_.<'
p6320
tp6321
Rp6322
ag1
(g5
S'\xc0\x844<'
p6323
tp6324
Rp6325
ag1
(g5
S'\x0fP\x14<'
p6326
tp6327
Rp6328
ag1
(g5
S'\xf47\x1c<'
p6329
tp6330
Rp6331
ag1
(g5
S')\xe9)<'
p6332
tp6333
Rp6334
ag1
(g5
S'\x06\x03&<'
p6335
tp6336
Rp6337
ag1
(g5
S'\x83\x99\x1e<'
p6338
tp6339
Rp6340
ag1
(g5
S'\xd5\xf2\x13<'
p6341
tp6342
Rp6343
ag1
(g5
S'$v\x1f<'
p6344
tp6345
Rp6346
ag1
(g5
S'9X"<'
p6347
tp6348
Rp6349
ag1
(g5
S'\xed\x87$<'
p6350
tp6351
Rp6352
ag1
(g5
S'\xcc\x8a\x1f<'
p6353
tp6354
Rp6355
ag1
(g5
S'\xedz1<'
p6356
tp6357
Rp6358
ag1
(g5
S"\xb4\x8e'<"
p6359
tp6360
Rp6361
ag1
(g5
S'}\x16\x15<'
p6362
tp6363
Rp6364
ag1
(g5
S' &$<'
p6365
tp6366
Rp6367
ag1
(g5
S'\xa1V\x17<'
p6368
tp6369
Rp6370
ag1
(g5
S'\xbfZ\x19<'
p6371
tp6372
Rp6373
ag1
(g5
S'\xa5\xcd\x1e<'
p6374
tp6375
Rp6376
ag1
(g5
S'jo/<'
p6377
tp6378
Rp6379
ag1
(g5
S'k\x94!<'
p6380
tp6381
Rp6382
ag1
(g5
S'Q`\x1c<'
p6383
tp6384
Rp6385
ag1
(g5
S'\x93\xcf"<'
p6386
tp6387
Rp6388
ag1
(g5
S'\x03\x90)<'
p6389
tp6390
Rp6391
ag1
(g5
S'&\x8a\x1d<'
p6392
tp6393
Rp6394
ag1
(g5
S'u\xc5!<'
p6395
tp6396
Rp6397
ag1
(g5
S'@\xc5\x1a<'
p6398
tp6399
Rp6400
ag1
(g5
S'\x183 <'
p6401
tp6402
Rp6403
ag1
(g5
S'ff\x1e<'
p6404
tp6405
Rp6406
ag1
(g5
S'h\xe9\x1c<'
p6407
tp6408
Rp6409
ag1
(g5
S'\xf9\xae$<'
p6410
tp6411
Rp6412
ag1
(g5
S'\xa6%\x07<'
p6413
tp6414
Rp6415
ag1
(g5
S'\x19\x1b!<'
p6416
tp6417
Rp6418
ag1
(g5
S'\x7f\x98\x1e<'
p6419
tp6420
Rp6421
ag1
(g5
S'\xd2\xd6\x05<'
p6422
tp6423
Rp6424
ag1
(g5
S'\xfc\xbf)<'
p6425
tp6426
Rp6427
ag1
(g5
S'f\xac$<'
p6428
tp6429
Rp6430
ag1
(g5
S'\xf2\xb4\r<'
p6431
tp6432
Rp6433
ag1
(g5
S'n\x07(<'
p6434
tp6435
Rp6436
ag1
(g5
S'\xb8\xda%<'
p6437
tp6438
Rp6439
ag1
(g5
S'\x9f\x81 <'
p6440
tp6441
Rp6442
ag1
(g5
S'T\xcd%<'
p6443
tp6444
Rp6445
ag1
(g5
S'V.\x14<'
p6446
tp6447
Rp6448
ag1
(g5
S'\xa7R%<'
p6449
tp6450
Rp6451
ag1
(g5
S'\xf1\x916<'
p6452
tp6453
Rp6454
ag1
(g5
S'\xe1\xd4"<'
p6455
tp6456
Rp6457
ag1
(g5
S'+o\x18<'
p6458
tp6459
Rp6460
ag1
(g5
S'\xd0\x8d.<'
p6461
tp6462
Rp6463
ag1
(g5
S'\x10\x02\x18<'
p6464
tp6465
Rp6466
ag1
(g5
S'\xd1\x1f.<'
p6467
tp6468
Rp6469
ag1
(g5
S'\xbf\xe6(<'
p6470
tp6471
Rp6472
ag1
(g5
S"\xb7\xa1'<"
p6473
tp6474
Rp6475
ag1
(g5
S'h\xf5%<'
p6476
tp6477
Rp6478
ag1
(g5
S'2\xa3)<'
p6479
tp6480
Rp6481
ag1
(g5
S'\xa9\x9a*<'
p6482
tp6483
Rp6484
ag1
(g5
S'\x84A.<'
p6485
tp6486
Rp6487
ag1
(g5
S'>\xd4\x1c<'
p6488
tp6489
Rp6490
ag1
(g5
S'7\xe7)<'
p6491
tp6492
Rp6493
ag1
(g5
S'\x92\x9d\x0f<'
p6494
tp6495
Rp6496
ag1
(g5
S'\xb5\x0f!<'
p6497
tp6498
Rp6499
ag1
(g5
S';\x12!<'
p6500
tp6501
Rp6502
ag1
(g5
S'\xeb<"<'
p6503
tp6504
Rp6505
ag1
(g5
S' \x80,<'
p6506
tp6507
Rp6508
ag1
(g5
S'\xd6\x9e1<'
p6509
tp6510
Rp6511
ag1
(g5
S'\\\xb3\x11<'
p6512
tp6513
Rp6514
ag1
(g5
S'F\xfc\x1a<'
p6515
tp6516
Rp6517
ag1
(g5
S'\x90\xa3&<'
p6518
tp6519
Rp6520
ag1
(g5
S'"G$<'
p6521
tp6522
Rp6523
ag1
(g5
S'(r\x1d<'
p6524
tp6525
Rp6526
ag1
(g5
S'\xb9\xa1\x12<'
p6527
tp6528
Rp6529
ag1
(g5
S'jm\x1f<'
p6530
tp6531
Rp6532
ag1
(g5
S'@1!<'
p6533
tp6534
Rp6535
ag1
(g5
S'*\xff"<'
p6536
tp6537
Rp6538
ag1
(g5
S'\x8c\x0e <'
p6539
tp6540
Rp6541
ag1
(g5
S'\x04\x191<'
p6542
tp6543
Rp6544
ag1
(g5
S"\xda\x7f'<"
p6545
tp6546
Rp6547
ag1
(g5
S'\xcf\xdb\x13<'
p6548
tp6549
Rp6550
ag1
(g5
S'\xcb#"<'
p6551
tp6552
Rp6553
ag1
(g5
S'\x1d\xba\x15<'
p6554
tp6555
Rp6556
ag1
(g5
S'\xfb\xde\x18<'
p6557
tp6558
Rp6559
ag1
(g5
S'\xe8"\x1e<'
p6560
tp6561
Rp6562
ag1
(g5
S'\x88\xeb-<'
p6563
tp6564
Rp6565
ag1
(g5
S'\x147!<'
p6566
tp6567
Rp6568
ag1
(g5
S'oG\x1c<'
p6569
tp6570
Rp6571
ag1
(g5
S'\xe2l"<'
p6572
tp6573
Rp6574
ag1
(g5
S'jP)<'
p6575
tp6576
Rp6577
ag1
(g5
S'\x8a|\x1c<'
p6578
tp6579
Rp6580
ag1
(g5
S'\xafK!<'
p6581
tp6582
Rp6583
ag1
(g5
S'\xf8s\x18<'
p6584
tp6585
Rp6586
ag1
(g5
S'\x18\xe1\x1e<'
p6587
tp6588
Rp6589
ag1
(g5
S';\xdd\x1d<'
p6590
tp6591
Rp6592
ag1
(g5
S'{\xce\x1b<'
p6593
tp6594
Rp6595
ag1
(g5
S'\xb0x#<'
p6596
tp6597
Rp6598
ag1
(g5
S'\x8e\xe1\x06<'
p6599
tp6600
Rp6601
ag1
(g5
S'7\xfe\x1f<'
p6602
tp6603
Rp6604
ag1
(g5
S'A\xd8\x1e<'
p6605
tp6606
Rp6607
ag1
(g5
S'\x06\x0b\x06<'
p6608
tp6609
Rp6610
ag1
(g5
S'\xab\xa5(<'
p6611
tp6612
Rp6613
ag1
(g5
S'yp#<'
p6614
tp6615
Rp6616
ag1
(g5
S'\x85\x11\x0c<'
p6617
tp6618
Rp6619
ag1
(g5
S'&O&<'
p6620
tp6621
Rp6622
ag1
(g5
S'\xf3/"<'
p6623
tp6624
Rp6625
ag1
(g5
S'./\x1f<'
p6626
tp6627
Rp6628
ag1
(g5
S'\xc9t%<'
p6629
tp6630
Rp6631
ag1
(g5
S'}\x0b\x14<'
p6632
tp6633
Rp6634
ag1
(g5
S'\x991$<'
p6635
tp6636
Rp6637
ag1
(g5
S'\xb2\xf86<'
p6638
tp6639
Rp6640
ag1
(g5
S'\x95O#<'
p6641
tp6642
Rp6643
ag1
(g5
S"'\xc6\x18<"
p6644
tp6645
Rp6646
ag1
(g5
S' \xfd-<'
p6647
tp6648
Rp6649
ag1
(g5
S'\x94,\x17<'
p6650
tp6651
Rp6652
ag1
(g5
S'5\xf8+<'
p6653
tp6654
Rp6655
ag1
(g5
S'=\x1f&<'
p6656
tp6657
Rp6658
ag1
(g5
S'\xdc\xd9$<'
p6659
tp6660
Rp6661
ag1
(g5
S'[[#<'
p6662
tp6663
Rp6664
ag1
(g5
S'u\xc9&<'
p6665
tp6666
Rp6667
ag1
(g5
S'g\x06)<'
p6668
tp6669
Rp6670
ag1
(g5
S'\x10\x80-<'
p6671
tp6672
Rp6673
ag1
(g5
S'\\\xd0\x1c<'
p6674
tp6675
Rp6676
ag1
(g5
S'\xd9\xd1*<'
p6677
tp6678
Rp6679
ag1
(g5
S'\xe5-\x0f<'
p6680
tp6681
Rp6682
ag1
(g5
S'\xa8\xb5\x1f<'
p6683
tp6684
Rp6685
ag1
(g5
S'A\xa3\x1f<'
p6686
tp6687
Rp6688
ag1
(g5
S'\xd6\xe6!<'
p6689
tp6690
Rp6691
ag1
(g5
S'\x9a\x83*<'
p6692
tp6693
Rp6694
ag1
(g5
S'\xbb\x1c1<'
p6695
tp6696
Rp6697
ag1
(g5
S'\xb6\x85\x12<'
p6698
tp6699
Rp6700
ag1
(g5
S'P\xaa\x1b<'
p6701
tp6702
Rp6703
ag1
(g5
S'\x83\xa8&<'
p6704
tp6705
Rp6706
ag1
(g5
S'\xce\xe5#<'
p6707
tp6708
Rp6709
ag1
(g5
S'\x01\x9f\x1c<'
p6710
tp6711
Rp6712
ag1
(g5
S'N~\x11<'
p6713
tp6714
Rp6715
ag1
(g5
S'\xfc\xb4\x1d<'
p6716
tp6717
Rp6718
ag1
(g5
S'\xb0\xd5\x1e<'
p6719
tp6720
Rp6721
ag1
(g5
S'\xb9K"<'
p6722
tp6723
Rp6724
ag1
(g5
S'\x9bt\x1c<'
p6725
tp6726
Rp6727
ag1
(g5
S'\xebo.<'
p6728
tp6729
Rp6730
ag1
(g5
S"xA'<"
p6731
tp6732
Rp6733
ag1
(g5
S'\xe8\xec\x13<'
p6734
tp6735
Rp6736
ag1
(g5
S'\x8d\xde!<'
p6737
tp6738
Rp6739
ag1
(g5
S'\x8b\xa3\x15<'
p6740
tp6741
Rp6742
ag1
(g5
S'\x82\xd9\x17<'
p6743
tp6744
Rp6745
ag1
(g5
S'\x03\xe4\x1b<'
p6746
tp6747
Rp6748
ag1
(g5
S'\xa8\xc6+<'
p6749
tp6750
Rp6751
ag1
(g5
S'xJ\x1e<'
p6752
tp6753
Rp6754
ag1
(g5
S'\xae\xa5\x19<'
p6755
tp6756
Rp6757
ag1
(g5
S'ov!<'
p6758
tp6759
Rp6760
ag1
(g5
S':\xe7)<'
p6761
tp6762
Rp6763
ag1
(g5
S'F\xb5\x1c<'
p6764
tp6765
Rp6766
ag1
(g5
S'X\xfa!<'
p6767
tp6768
Rp6769
ag1
(g5
S'@\xde\x19<'
p6770
tp6771
Rp6772
ag1
(g5
S'.\xde\x1e<'
p6773
tp6774
Rp6775
ag1
(g5
S'\x02\xf9\x1b<'
p6776
tp6777
Rp6778
ag1
(g5
S'g<\x1a<'
p6779
tp6780
Rp6781
ag1
(g5
S'\xc7\xde <'
p6782
tp6783
Rp6784
ag1
(g5
S'\xc5\xc6\x03<'
p6785
tp6786
Rp6787
ag1
(g5
S'\xf6\xd1\x1d<'
p6788
tp6789
Rp6790
ag1
(g5
S'\xe6\x85\x1d<'
p6791
tp6792
Rp6793
ag1
(g5
S'H\x10\x05<'
p6794
tp6795
Rp6796
ag1
(g5
S"\x0c\xd7'<"
p6797
tp6798
Rp6799
ag1
(g5
S'\xedn$<'
p6800
tp6801
Rp6802
ag1
(g5
S'}-\x0c<'
p6803
tp6804
Rp6805
ag1
(g5
S'\x8a\x8c&<'
p6806
tp6807
Rp6808
ag1
(g5
S'\x0e\xca!<'
p6809
tp6810
Rp6811
ag1
(g5
S'\x81l\x1e<'
p6812
tp6813
Rp6814
ag1
(g5
S'\xa8\xfd!<'
p6815
tp6816
Rp6817
ag1
(g5
S'\x9c<\x11<'
p6818
tp6819
Rp6820
ag1
(g5
S'\xaf\xb5"<'
p6821
tp6822
Rp6823
ag1
(g5
S'\x10\x036<'
p6824
tp6825
Rp6826
ag1
(g5
S'u!"<'
p6827
tp6828
Rp6829
ag1
(g5
S':\xd6\x16<'
p6830
tp6831
Rp6832
ag1
(g5
S',\xff-<'
p6833
tp6834
Rp6835
ag1
(g5
S'\xe8^\x17<'
p6836
tp6837
Rp6838
ag1
(g5
S'\x13\xbc+<'
p6839
tp6840
Rp6841
ag1
(g5
S'\xb1\xa3%<'
p6842
tp6843
Rp6844
ag1
(g5
S'\xde\x10$<'
p6845
tp6846
Rp6847
ag1
(g5
S'd\x85"<'
p6848
tp6849
Rp6850
ag1
(g5
S'qk%<'
p6851
tp6852
Rp6853
ag1
(g5
S"\x0e3'<"
p6854
tp6855
Rp6856
ag1
(g5
S'9q+<'
p6857
tp6858
Rp6859
ag1
(g5
S'c\xa3\x1d<'
p6860
tp6861
Rp6862
ag1
(g5
S'\xde\xb7*<'
p6863
tp6864
Rp6865
ag1
(g5
S']/\x0e<'
p6866
tp6867
Rp6868
ag1
(g5
S'\x9d\xb3\x1e<'
p6869
tp6870
Rp6871
ag1
(g5
S'\x02\xe2 <'
p6872
tp6873
Rp6874
ag1
(g5
S'\xc1\x0c <'
p6875
tp6876
Rp6877
ag1
(g5
S'\x01\x9a*<'
p6878
tp6879
Rp6880
ag1
(g5
S'QM/<'
p6881
tp6882
Rp6883
ag1
(g5
S'F\x9d\x0f<'
p6884
tp6885
Rp6886
ag1
(g5
S'\x87V\x18<'
p6887
tp6888
Rp6889
ag1
(g5
S'\x03\xad%<'
p6890
tp6891
Rp6892
ag1
(g5
S'\x1d\xcb!<'
p6893
tp6894
Rp6895
ag1
(g5
S'\xc8\x1d\x1b<'
p6896
tp6897
Rp6898
ag1
(g5
S'Z\xd4\x11<'
p6899
tp6900
Rp6901
ag1
(g5
S'b6\x1d<'
p6902
tp6903
Rp6904
ag1
(g5
S'\xcb;\x1f<'
p6905
tp6906
Rp6907
ag1
(g5
S'\xf6\xe6 <'
p6908
tp6909
Rp6910
ag1
(g5
S'S;\x1b<'
p6911
tp6912
Rp6913
ag1
(g5
S'Q+,<'
p6914
tp6915
Rp6916
ag1
(g5
S'A\x0b%<'
p6917
tp6918
Rp6919
ag1
(g5
S'\x83\x99\x11<'
p6920
tp6921
Rp6922
ag1
(g5
S'4\xc9\x1f<'
p6923
tp6924
Rp6925
ag1
(g5
S'4\x8f\x14<'
p6926
tp6927
Rp6928
ag1
(g5
S'\x97I\x17<'
p6929
tp6930
Rp6931
ag1
(g5
S'\xe6U\x1b<'
p6932
tp6933
Rp6934
ag1
(g5
S'X\xc9,<'
p6935
tp6936
Rp6937
ag1
(g5
S'I~\x1e<'
p6938
tp6939
Rp6940
ag1
(g5
S'\xc2\xf6\x18<'
p6941
tp6942
Rp6943
ag1
(g5
S'\x8c}\x1f<'
p6944
tp6945
Rp6946
ag1
(g5
S'\x92\x85&<'
p6947
tp6948
Rp6949
ag1
(g5
S'\x02U\x18<'
p6950
tp6951
Rp6952
ag1
(g5
S'\xdf\x8f\x1f<'
p6953
tp6954
Rp6955
ag1
(g5
S'\x8c)\x17<'
p6956
tp6957
Rp6958
ag1
(g5
S'\x1c\t\x1e<'
p6959
tp6960
Rp6961
ag1
(g5
S'\xbaw\x1b<'
p6962
tp6963
Rp6964
ag1
(g5
S'\x0b\xaf\x1a<'
p6965
tp6966
Rp6967
ag1
(g5
S'\x1a\x06!<'
p6968
tp6969
Rp6970
ag1
(g5
S'\x1e\xd8\x01<'
p6971
tp6972
Rp6973
ag1
(g5
S'\xba\x9e\x1c<'
p6974
tp6975
Rp6976
ag1
(g5
S'\x16\x86\x1a<'
p6977
tp6978
Rp6979
ag1
(g5
S'\xe0\xe4\x02<'
p6980
tp6981
Rp6982
ag1
(g5
S'I\xed%<'
p6983
tp6984
Rp6985
ag1
(g5
S'd\xb7!<'
p6986
tp6987
Rp6988
ag1
(g5
S'\xc0]\x0b<'
p6989
tp6990
Rp6991
ag1
(g5
S's\x13%<'
p6992
tp6993
Rp6994
ag1
(g5
S'\x07\xfe <'
p6995
tp6996
Rp6997
ag1
(g5
S'7\xaf\x1d<'
p6998
tp6999
Rp7000
ag1
(g5
S'+\x7f"<'
p7001
tp7002
Rp7003
ag1
(g5
S'\xd7\x9c\x10<'
p7004
tp7005
Rp7006
ag1
(g5
S'ng"<'
p7007
tp7008
Rp7009
ag1
(g5
S'\xc0B3<'
p7010
tp7011
Rp7012
ag1
(g5
S'=q\x1e<'
p7013
tp7014
Rp7015
ag1
(g5
S'\x19\xfa\x14<'
p7016
tp7017
Rp7018
ag1
(g5
S'\x99\x98+<'
p7019
tp7020
Rp7021
ag1
(g5
S'i7\x17<'
p7022
tp7023
Rp7024
ag1
(g5
S'I\xf3,<'
p7025
tp7026
Rp7027
ag1
(g5
S'\xa6)&<'
p7028
tp7029
Rp7030
ag1
(g5
S'e\xe9$<'
p7031
tp7032
Rp7033
ag1
(g5
S'\x13\xea"<'
p7034
tp7035
Rp7036
ag1
(g5
S'\x06\xf5#<'
p7037
tp7038
Rp7039
ag1
(g5
S"D\xbc'<"
p7040
tp7041
Rp7042
ag1
(g5
S' \xa9*<'
p7043
tp7044
Rp7045
ag1
(g5
S'\xed\xab\x1a<'
p7046
tp7047
Rp7048
ag1
(g5
S"G\xd9'<"
p7049
tp7050
Rp7051
ag1
(g5
S'N\x13\x0e<'
p7052
tp7053
Rp7054
ag1
(g5
S'T)\x1f<'
p7055
tp7056
Rp7057
ag1
(g5
S'\xe8\x8d <'
p7058
tp7059
Rp7060
ag1
(g5
S'\x96\xf2 <'
p7061
tp7062
Rp7063
ag1
(g5
S'\xae\xe9*<'
p7064
tp7065
Rp7066
ag1
(g5
S'C\xfa/<'
p7067
tp7068
Rp7069
ag1
(g5
S'\t\xb3\x0f<'
p7070
tp7071
Rp7072
ag1
(g5
S'\x84\x92\x18<'
p7073
tp7074
Rp7075
ag1
(g5
S'\x9f/$<'
p7076
tp7077
Rp7078
ag1
(g5
S'4\x9d <'
p7079
tp7080
Rp7081
ag1
(g5
S'\xb4\xa6\x1a<'
p7082
tp7083
Rp7084
ag1
(g5
S'HR\x10<'
p7085
tp7086
Rp7087
ag1
(g5
S'0n\x1d<'
p7088
tp7089
Rp7090
ag1
(g5
S'\x07\xa6\x1f<'
p7091
tp7092
Rp7093
ag1
(g5
S'T\xa2!<'
p7094
tp7095
Rp7096
ag1
(g5
S'\x01\x82\x1a<'
p7097
tp7098
Rp7099
ag1
(g5
S'_\xe1-<'
p7100
tp7101
Rp7102
ag1
(g5
S'\x05\xfd$<'
p7103
tp7104
Rp7105
ag1
(g5
S'sK\x11<'
p7106
tp7107
Rp7108
ag1
(g5
S'G\t\x1e<'
p7109
tp7110
Rp7111
ag1
(g5
S'\xfc\xca\x12<'
p7112
tp7113
Rp7114
ag1
(g5
S'\x8e\x07\x16<'
p7115
tp7116
Rp7117
ag1
(g5
S"\xc4'\x1a<"
p7118
tp7119
Rp7120
ag1
(g5
S'\xc1\xb1+<'
p7121
tp7122
Rp7123
ag1
(g5
S'\xcd)\x1f<'
p7124
tp7125
Rp7126
ag1
(g5
S'\xe7\xbe\x1a<'
p7127
tp7128
Rp7129
ag1
(g5
S'\xd2\x8b\x1f<'
p7130
tp7131
Rp7132
ag1
(g5
S'\xa4\x02&<'
p7133
tp7134
Rp7135
ag1
(g5
S'\xfe\x99\x18<'
p7136
tp7137
Rp7138
ag1
(g5
S'Vb\x1d<'
p7139
tp7140
Rp7141
ag1
(g5
S'\xbe\xd8\x15<'
p7142
tp7143
Rp7144
ag1
(g5
S'\xb77\x1b<'
p7145
tp7146
Rp7147
ag1
(g5
S'\x8f\x8e\x1a<'
p7148
tp7149
Rp7150
ag1
(g5
S'L\xea\x18<'
p7151
tp7152
Rp7153
ag1
(g5
S'\xc6n!<'
p7154
tp7155
Rp7156
ag1
(g5
S'b\xc2\x02<'
p7157
tp7158
Rp7159
ag1
(g5
S'\xbc\xb9\x1d<'
p7160
tp7161
Rp7162
ag1
(g5
S'\x0b\xb0\x1b<'
p7163
tp7164
Rp7165
ag1
(g5
S'M\xd7\x01<'
p7166
tp7167
Rp7168
ag1
(g5
S'\x83\xa3%<'
p7169
tp7170
Rp7171
ag1
(g5
S'\x0c\xb8 <'
p7172
tp7173
Rp7174
ag1
(g5
S'd7\t<'
p7175
tp7176
Rp7177
ag1
(g5
S'\x1c\xe2"<'
p7178
tp7179
Rp7180
ag1
(g5
S'\x1c\xe8\x1f<'
p7181
tp7182
Rp7183
ag1
(g5
S'\xbb\x80\x1d<'
p7184
tp7185
Rp7186
ag1
(g5
S'\xae\x9c"<'
p7187
tp7188
Rp7189
ag1
(g5
S'\xc6\x9c\x11<'
p7190
tp7191
Rp7192
ag1
(g5
S'\xd0m <'
p7193
tp7194
Rp7195
ag1
(g5
S'\x0b?2<'
p7196
tp7197
Rp7198
ag1
(g5
S'\xd2\xae\x1f<'
p7199
tp7200
Rp7201
ag1
(g5
S'\x9dH\x13<'
p7202
tp7203
Rp7204
ag1
(g5
S'\x18V*<'
p7205
tp7206
Rp7207
ag1
(g5
S'\x8c>\x14<'
p7208
tp7209
Rp7210
ag1
(g5
S'\xb4t)<'
p7211
tp7212
Rp7213
ag1
(g5
S'l\xb1$<'
p7214
tp7215
Rp7216
ag1
(g5
S'\xd4\xf1$<'
p7217
tp7218
Rp7219
ag1
(g5
S'\x85\x96#<'
p7220
tp7221
Rp7222
ag1
(g5
S'#-$<'
p7223
tp7224
Rp7225
ag1
(g5
S'!I&<'
p7226
tp7227
Rp7228
ag1
(g5
S'\xfe9*<'
p7229
tp7230
Rp7231
ag1
(g5
S'\x7f\x8b\x19<'
p7232
tp7233
Rp7234
ag1
(g5
S"\xc2D'<"
p7235
tp7236
Rp7237
ag1
(g5
S'\x00i\x0b<'
p7238
tp7239
Rp7240
ag1
(g5
S'\xb7\\\x1c<'
p7241
tp7242
Rp7243
ag1
(g5
S'\xca\x9e\x1e<'
p7244
tp7245
Rp7246
ag1
(g5
S'I\xf2\x1f<'
p7247
tp7248
Rp7249
ag1
(g5
S'9 +<'
p7250
tp7251
Rp7252
ag1
(g5
S'-T0<'
p7253
tp7254
Rp7255
ag1
(g5
S'\xf3\x88\x0f<'
p7256
tp7257
Rp7258
ag1
(g5
S'\r~\x19<'
p7259
tp7260
Rp7261
ag1
(g5
S'\x92a$<'
p7262
tp7263
Rp7264
ag1
(g5
S'\x80r\x1f<'
p7265
tp7266
Rp7267
ag1
(g5
S'c=\x19<'
p7268
tp7269
Rp7270
ag1
(g5
S'HX\x0f<'
p7271
tp7272
Rp7273
ag1
(g5
S'=\xeb\x1a<'
p7274
tp7275
Rp7276
ag1
(g5
S'\xe6}\x1c<'
p7277
tp7278
Rp7279
ag1
(g5
S'\xf4\x7f <'
p7280
tp7281
Rp7282
ag1
(g5
S'\xca\x7f\x1b<'
p7283
tp7284
Rp7285
ag1
(g5
S'\xfb\xfb,<'
p7286
tp7287
Rp7288
ag1
(g5
S',{$<'
p7289
tp7290
Rp7291
ag1
(g5
S'\xa5r\x11<'
p7292
tp7293
Rp7294
ag1
(g5
S'\xb1g\x1f<'
p7295
tp7296
Rp7297
ag1
(g5
S'\xa1L\x12<'
p7298
tp7299
Rp7300
ag1
(g5
S'\xbc_\x14<'
p7301
tp7302
Rp7303
ag1
(g5
S'\xeb\xc8\x19<'
p7304
tp7305
Rp7306
ag1
(g5
S'\xa5\x87)<'
p7307
tp7308
Rp7309
ag1
(g5
S'\xe5Q\x1d<'
p7310
tp7311
Rp7312
ag1
(g5
S'\x85n\x18<'
p7313
tp7314
Rp7315
ag1
(g5
S'\xb1\xc6\x1f<'
p7316
tp7317
Rp7318
ag1
(g5
S'\x8f\xe0%<'
p7319
tp7320
Rp7321
ag1
(g5
S'=\xd8\x19<'
p7322
tp7323
Rp7324
ag1
(g5
S'\t)\x1f<'
p7325
tp7326
Rp7327
ag1
(g5
S'\xb61\x16<'
p7328
tp7329
Rp7330
ag1
(g5
S'\x0b-\x1b<'
p7331
tp7332
Rp7333
ag1
(g5
S'Ua\x19<'
p7334
tp7335
Rp7336
ag1
(g5
S'\x84\xe0\x16<'
p7337
tp7338
Rp7339
ag1
(g5
S'\xe9\x81\x1d<'
p7340
tp7341
Rp7342
ag1
(g5
S'\xfc\x81\x00<'
p7343
tp7344
Rp7345
ag1
(g5
S'\xdd\xd2\x1d<'
p7346
tp7347
Rp7348
ag1
(g5
S"'Q\x1b<"
p7349
tp7350
Rp7351
ag1
(g5
S')(\x03<'
p7352
tp7353
Rp7354
ag1
(g5
S'\x99\xc9%<'
p7355
tp7356
Rp7357
ag1
(g5
S'\xf4\xf4 <'
p7358
tp7359
Rp7360
ag1
(g5
S'UY\t<'
p7361
tp7362
Rp7363
ag1
(g5
S'\x8a\x86#<'
p7364
tp7365
Rp7366
ag1
(g5
S'\x1b\x9f\x1e<'
p7367
tp7368
Rp7369
ag1
(g5
S'\xd9q\x1a<'
p7370
tp7371
Rp7372
ag1
(g5
S'\xa5A <'
p7373
tp7374
Rp7375
ag1
(g5
S'\x17\xd3\x0e<'
p7376
tp7377
Rp7378
ag1
(g5
S'\xde\x11"<'
p7379
tp7380
Rp7381
ag1
(g5
S'\x8fo2<'
p7382
tp7383
Rp7384
ag1
(g5
S'\xf1\xc5\x1e<'
p7385
tp7386
Rp7387
ag1
(g5
S'\xdd\x91\x14<'
p7388
tp7389
Rp7390
ag1
(g5
S'\xcd}*<'
p7391
tp7392
Rp7393
ag1
(g5
S'\t\x84\x13<'
p7394
tp7395
Rp7396
ag1
(g5
S'\r\x8a(<'
p7397
tp7398
Rp7399
ag1
(g5
S'V("<'
p7400
tp7401
Rp7402
ag1
(g5
S'\xb9\x99!<'
p7403
tp7404
Rp7405
ag1
(g5
S'\x0e\xdf <'
p7406
tp7407
Rp7408
ag1
(g5
S'\x00\xb6"<'
p7409
tp7410
Rp7411
ag1
(g5
S"8`'<"
p7412
tp7413
Rp7414
ag1
(g5
S'\nF)<'
p7415
tp7416
Rp7417
ag1
(g5
S'z\xb8\x19<'
p7418
tp7419
Rp7420
ag1
(g5
S'\xc2.&<'
p7421
tp7422
Rp7423
ag1
(g5
S'o\xd4\x0b<'
p7424
tp7425
Rp7426
ag1
(g5
S'\x0c,\x1d<'
p7427
tp7428
Rp7429
ag1
(g5
S'V\x1f\x1d<'
p7430
tp7431
Rp7432
ag1
(g5
S'!\xc4\x1f<'
p7433
tp7434
Rp7435
ag1
(g5
S'\xbb\xb5(<'
p7436
tp7437
Rp7438
ag1
(g5
S'x\x9f-<'
p7439
tp7440
Rp7441
ag1
(g5
S'\x9cJ\x0e<'
p7442
tp7443
Rp7444
ag1
(g5
S'E\x04\x18<'
p7445
tp7446
Rp7447
ag1
(g5
S'd;#<'
p7448
tp7449
Rp7450
ag1
(g5
S'2\xbe\x1f<'
p7451
tp7452
Rp7453
ag1
(g5
S'I\xe3\x19<'
p7454
tp7455
Rp7456
ag1
(g5
S'\xd5\x80\x0e<'
p7457
tp7458
Rp7459
ag1
(g5
S'\xfd\xbd\x19<'
p7460
tp7461
Rp7462
ag1
(g5
S'\xe8\xf8\x1a<'
p7463
tp7464
Rp7465
ag1
(g5
S'\x93=\x1d<'
p7466
tp7467
Rp7468
ag1
(g5
S'\x16h\x18<'
p7469
tp7470
Rp7471
ag1
(g5
S'\xe0\x85*<'
p7472
tp7473
Rp7474
ag1
(g5
S'T\x0b$<'
p7475
tp7476
Rp7477
ag1
(g5
S'\xe0\r\x11<'
p7478
tp7479
Rp7480
ag1
(g5
S'\xf5(\x1d<'
p7481
tp7482
Rp7483
ag1
(g5
S'\xd4I\x13<'
p7484
tp7485
Rp7486
ag1
(g5
S'I\x95\x15<'
p7487
tp7488
Rp7489
ag1
(g5
S'\x17m\x1a<'
p7490
tp7491
Rp7492
ag1
(g5
S'Qm(<'
p7493
tp7494
Rp7495
ag1
(g5
S'\xed\xbd\x1b<'
p7496
tp7497
Rp7498
ag1
(g5
S'S\x93\x16<'
p7499
tp7500
Rp7501
ag1
(g5
S'\xaf\x9b\x1c<'
p7502
tp7503
Rp7504
ag1
(g5
S'l\xdc#<'
p7505
tp7506
Rp7507
ag1
(g5
S'LS\x17<'
p7508
tp7509
Rp7510
ag1
(g5
S'\x85\x1f\x1d<'
p7511
tp7512
Rp7513
ag1
(g5
S'\xbd\x9f\x15<'
p7514
tp7515
Rp7516
ag1
(g5
S'\x8d\x9b\x1b<'
p7517
tp7518
Rp7519
ag1
(g5
S'\x15\x80\x19<'
p7520
tp7521
Rp7522
ag1
(g5
S'\x18\xaf\x16<'
p7523
tp7524
Rp7525
ag1
(g5
S'\xfao\x1f<'
p7526
tp7527
Rp7528
ag1
(g5
S':F\xfd;'
p7529
tp7530
Rp7531
ag1
(g5
S'\xbf@\x1b<'
p7532
tp7533
Rp7534
ag1
(g5
S'\xf0C\x18<'
p7535
tp7536
Rp7537
ag1
(g5
S'i\x08\x00<'
p7538
tp7539
Rp7540
ag1
(g5
S'\xf1\xde#<'
p7541
tp7542
Rp7543
ag1
(g5
S'\xa0%\x1f<'
p7544
tp7545
Rp7546
ag1
(g5
S'F\x01\n<'
p7547
tp7548
Rp7549
ag1
(g5
S'\xa2\xf3"<'
p7550
tp7551
Rp7552
ag1
(g5
S'Lz\x1e<'
p7553
tp7554
Rp7555
ag1
(g5
S'\xe8\x8e\x1b<'
p7556
tp7557
Rp7558
ag1
(g5
S'\x83\xd0\x1f<'
p7559
tp7560
Rp7561
ag1
(g5
S'\x97o\x0e<'
p7562
tp7563
Rp7564
ag1
(g5
S'\x90\x82\x1f<'
p7565
tp7566
Rp7567
ag1
(g5
S'\xbe:0<'
p7568
tp7569
Rp7570
ag1
(g5
S'Ht\x1c<'
p7571
tp7572
Rp7573
ag1
(g5
S'\xb6\xac\x13<'
p7574
tp7575
Rp7576
ag1
(g5
S'\xeaO)<'
p7577
tp7578
Rp7579
ag1
(g5
S'\xef!\x13<'
p7580
tp7581
Rp7582
ag1
(g5
S'\x83P*<'
p7583
tp7584
Rp7585
ag1
(g5
S'jN#<'
p7586
tp7587
Rp7588
ag1
(g5
S'\xcd\xde <'
p7589
tp7590
Rp7591
ag1
(g5
S'b\x13\x1f<'
p7592
tp7593
Rp7594
ag1
(g5
S'~$"<'
p7595
tp7596
Rp7597
ag1
(g5
S'\xea"$<'
p7598
tp7599
Rp7600
ag1
(g5
S"\xa4\x0c'<"
p7601
tp7602
Rp7603
ag1
(g5
S'#\xc5\x18<'
p7604
tp7605
Rp7606
ag1
(g5
S'\x19,%<'
p7607
tp7608
Rp7609
ag1
(g5
S' e\n<'
p7610
tp7611
Rp7612
ag1
(g5
S'\x08\xb0\x1b<'
p7613
tp7614
Rp7615
ag1
(g5
S'\xcc\xd5\x1c<'
p7616
tp7617
Rp7618
ag1
(g5
S'mh\x1d<'
p7619
tp7620
Rp7621
ag1
(g5
S'\xa8\\(<'
p7622
tp7623
Rp7624
ag1
(g5
S'.\x04-<'
p7625
tp7626
Rp7627
ag1
(g5
S'F[\x0b<'
p7628
tp7629
Rp7630
ag1
(g5
S'\xfe\xc0\x15<'
p7631
tp7632
Rp7633
ag1
(g5
S'n\xd6"<'
p7634
tp7635
Rp7636
ag1
(g5
S'\xc4R\x1f<'
p7637
tp7638
Rp7639
ag1
(g5
S'\ra\x19<'
p7640
tp7641
Rp7642
ag1
(g5
S'6*\x0f<'
p7643
tp7644
Rp7645
ag1
(g5
S'd\xb4\x18<'
p7646
tp7647
Rp7648
ag1
(g5
S'h\xaa\x1c<'
p7649
tp7650
Rp7651
ag1
(g5
S':q\x1c<'
p7652
tp7653
Rp7654
ag1
(g5
S'gU\x18<'
p7655
tp7656
Rp7657
ag1
(g5
S"h\xb8'<"
p7658
tp7659
Rp7660
ag1
(g5
S'\xf8\xb0 <'
p7661
tp7662
Rp7663
ag1
(g5
S'(\xcf\x0e<'
p7664
tp7665
Rp7666
ag1
(g5
S'k&\x1b<'
p7667
tp7668
Rp7669
ag1
(g5
S'\xfa\xa8\x11<'
p7670
tp7671
Rp7672
ag1
(g5
S'E\x1b\x14<'
p7673
tp7674
Rp7675
ag1
(g5
S'\x97\x9b\x18<'
p7676
tp7677
Rp7678
ag1
(g5
S'`+(<'
p7679
tp7680
Rp7681
ag1
(g5
S'u\xd0\x1b<'
p7682
tp7683
Rp7684
ag1
(g5
S'\xb4\x00\x16<'
p7685
tp7686
Rp7687
ag1
(g5
S'\xb6\x05\x1b<'
p7688
tp7689
Rp7690
ag1
(g5
S'\xde*"<'
p7691
tp7692
Rp7693
ag1
(g5
S'\xe1q\x15<'
p7694
tp7695
Rp7696
ag1
(g5
S'\xfa\xfe\x1a<'
p7697
tp7698
Rp7699
ag1
(g5
S'\xdb9\x14<'
p7700
tp7701
Rp7702
ag1
(g5
S'\x991\x19<'
p7703
tp7704
Rp7705
ag1
(g5
S'I\xa7\x18<'
p7706
tp7707
Rp7708
ag1
(g5
S'\n\x8b\x15<'
p7709
tp7710
Rp7711
ag1
(g5
S'\x95[\x1e<'
p7712
tp7713
Rp7714
ag1
(g5
S'\x94Z\xfd;'
p7715
tp7716
Rp7717
ag1
(g5
S'\x91Q\x19<'
p7718
tp7719
Rp7720
ag1
(g5
S',g\x18<'
p7721
tp7722
Rp7723
ag1
(g5
S'\xa2m\xfd;'
p7724
tp7725
Rp7726
ag1
(g5
S'\x8b\xcf!<'
p7727
tp7728
Rp7729
ag1
(g5
S'\xd8#\x1e<'
p7730
tp7731
Rp7732
ag1
(g5
S'\xd6v\x08<'
p7733
tp7734
Rp7735
ag1
(g5
S'\x1b\xf9 <'
p7736
tp7737
Rp7738
ag1
(g5
S'\xc7\x99\x1d<'
p7739
tp7740
Rp7741
ag1
(g5
S'\x82\x10\x1a<'
p7742
tp7743
Rp7744
ag1
(g5
S'\x1eb <'
p7745
tp7746
Rp7747
ag1
(g5
S'TI\r<'
p7748
tp7749
Rp7750
ag1
(g5
S'\xa3h\x1e<'
p7751
tp7752
Rp7753
ag1
(g5
S'\x12\x90/<'
p7754
tp7755
Rp7756
ag1
(g5
S'e\xfd\x1b<'
p7757
tp7758
Rp7759
ag1
(g5
S',f\x11<'
p7760
tp7761
Rp7762
ag1
(g5
S"$\xcb'<"
p7763
tp7764
Rp7765
ag1
(g5
S'\xa7\xdf\x11<'
p7766
tp7767
Rp7768
ag1
(g5
S'\xacr&<'
p7769
tp7770
Rp7771
ag1
(g5
S'y_!<'
p7772
tp7773
Rp7774
ag1
(g5
S'\xd2\xce <'
p7775
tp7776
Rp7777
ag1
(g5
S'\x91v\x1f<'
p7778
tp7779
Rp7780
ag1
(g5
S'\xac\x07"<'
p7781
tp7782
Rp7783
ag1
(g5
S'\x97\xbc"<'
p7784
tp7785
Rp7786
ag1
(g5
S'z\xdb&<'
p7787
tp7788
Rp7789
ag1
(g5
S'\x19\x14\x16<'
p7790
tp7791
Rp7792
ag1
(g5
S'\x8eK#<'
p7793
tp7794
Rp7795
ag1
(g5
S'\x94w\t<'
p7796
tp7797
Rp7798
ag1
(g5
S'\x16t\x19<'
p7799
tp7800
Rp7801
ag1
(g5
S'\xd7\x8c\x1a<'
p7802
tp7803
Rp7804
ag1
(g5
S'A\x87\x1b<'
p7805
tp7806
Rp7807
ag1
(g5
S"\x8f4'<"
p7808
tp7809
Rp7810
ag1
(g5
S'J\x94+<'
p7811
tp7812
Rp7813
ag1
(g5
S'\x0f\xbb\x0b<'
p7814
tp7815
Rp7816
ag1
(g5
S'\x84\xf0\x15<'
p7817
tp7818
Rp7819
ag1
(g5
S'\x1c\x9a\x1f<'
p7820
tp7821
Rp7822
ag1
(g5
S';0\x1d<'
p7823
tp7824
Rp7825
ag1
(g5
S'\x81\x90\x16<'
p7826
tp7827
Rp7828
ag1
(g5
S'\xa8\xa3\x0c<'
p7829
tp7830
Rp7831
ag1
(g5
S'\x0eJ\x16<'
p7832
tp7833
Rp7834
ag1
(g5
S'YJ\x1a<'
p7835
tp7836
Rp7837
ag1
(g5
S'\xa6X\x1c<'
p7838
tp7839
Rp7840
ag1
(g5
S'\x81y\x16<'
p7841
tp7842
Rp7843
ag1
(g5
S'\x9d\x8c)<'
p7844
tp7845
Rp7846
ag1
(g5
S'\xd6\xda\x1f<'
p7847
tp7848
Rp7849
ag1
(g5
S'\xf1\xc0\r<'
p7850
tp7851
Rp7852
ag1
(g5
S'\x10G\x19<'
p7853
tp7854
Rp7855
ag1
(g5
S'\xdf\x1d\x0f<'
p7856
tp7857
Rp7858
ag1
(g5
S'N9\x11<'
p7859
tp7860
Rp7861
ag1
(g5
S'\x1dr\x16<'
p7862
tp7863
Rp7864
ag1
(g5
S'/\xf7&<'
p7865
tp7866
Rp7867
ag1
(g5
S'\xfe^\x1b<'
p7868
tp7869
Rp7870
ag1
(g5
S'\xa4{\x15<'
p7871
tp7872
Rp7873
ag1
(g5
S'\xcc9\x1b<'
p7874
tp7875
Rp7876
ag1
(g5
S'\xa7\x06"<'
p7877
tp7878
Rp7879
ag1
(g5
S'\xdc\xdf\x14<'
p7880
tp7881
Rp7882
ag1
(g5
S'u\xe2\x19<'
p7883
tp7884
Rp7885
ag1
(g5
S'\xef\xab\x12<'
p7886
tp7887
Rp7888
ag1
(g5
S'\xe7\xcc\x17<'
p7889
tp7890
Rp7891
ag1
(g5
S'\xfbv\x15<'
p7892
tp7893
Rp7894
ag1
(g5
S'0\xfd\x14<'
p7895
tp7896
Rp7897
ag1
(g5
S')r\x1c<'
p7898
tp7899
Rp7900
ag1
(g5
S'3\x8e\xfc;'
p7901
tp7902
Rp7903
ag1
(g5
S'2\xf6\x19<'
p7904
tp7905
Rp7906
ag1
(g5
S'\x8f\x9b\x17<'
p7907
tp7908
Rp7909
ag1
(g5
S'.\x08\xfe;'
p7910
tp7911
Rp7912
ag1
(g5
S'\xa3\xb4!<'
p7913
tp7914
Rp7915
ag1
(g5
S'B+\x1d<'
p7916
tp7917
Rp7918
ag1
(g5
S'\x82+\x05<'
p7919
tp7920
Rp7921
ag1
(g5
S'W\xb3\x1f<'
p7922
tp7923
Rp7924
ag1
(g5
S'+\xab\x1c<'
p7925
tp7926
Rp7927
ag1
(g5
S'B\xda\x17<'
p7928
tp7929
Rp7930
ag1
(g5
S'\x8c\xa9\x1e<'
p7931
tp7932
Rp7933
ag1
(g5
S'8x\r<'
p7934
tp7935
Rp7936
ag1
(g5
S'\xbc\xee\x1e<'
p7937
tp7938
Rp7939
ag1
(g5
S'\xab\x910<'
p7940
tp7941
Rp7942
ag1
(g5
S'\x1f[\x1c<'
p7943
tp7944
Rp7945
ag1
(g5
S'\xbe~\x11<'
p7946
tp7947
Rp7948
ag1
(g5
S'\x00~&<'
p7949
tp7950
Rp7951
ag1
(g5
S'\xacX\x10<'
p7952
tp7953
Rp7954
ag1
(g5
S'd(%<'
p7955
tp7956
Rp7957
ag1
(g5
S'\x0b]\x1f<'
p7958
tp7959
Rp7960
ag1
(g5
S'"\xa4\x1e<'
p7961
tp7962
Rp7963
ag1
(g5
S'\xb0\xea\x1d<'
p7964
tp7965
Rp7966
ag1
(g5
S';\xf4 <'
p7967
tp7968
Rp7969
ag1
(g5
S'\xdd\x86"<'
p7970
tp7971
Rp7972
ag1
(g5
S'\xc1\x95&<'
p7973
tp7974
Rp7975
ag1
(g5
S'\xa95\x17<'
p7976
tp7977
Rp7978
ag1
(g5
S'\xa3}$<'
p7979
tp7980
Rp7981
ag1
(g5
S'\x93\x02\t<'
p7982
tp7983
Rp7984
ag1
(g5
S'\n/\x19<'
p7985
tp7986
Rp7987
ag1
(g5
S'A\x94\x19<'
p7988
tp7989
Rp7990
ag1
(g5
S'@I\x19<'
p7991
tp7992
Rp7993
ag1
(g5
S'\xc6[$<'
p7994
tp7995
Rp7996
ag1
(g5
S'\x92L*<'
p7997
tp7998
Rp7999
ag1
(g5
S'u\xb3\n<'
p8000
tp8001
Rp8002
ag1
(g5
S'\xff<\x15<'
p8003
tp8004
Rp8005
ag1
(g5
S'\xa8\xa3\x1e<'
p8006
tp8007
Rp8008
ag1
(g5
S'H\x01\x1c<'
p8009
tp8010
Rp8011
ag1
(g5
S'\xc0\x19\x16<'
p8012
tp8013
Rp8014
ag1
(g5
S'\x12\x10\x0b<'
p8015
tp8016
Rp8017
ag1
(g5
S'\xc3k\x15<'
p8018
tp8019
Rp8020
ag1
(g5
S'\x80\xc0\x18<'
p8021
tp8022
Rp8023
ag1
(g5
S'N_\x1a<'
p8024
tp8025
Rp8026
ag1
(g5
S'\xeaP\x15<'
p8027
tp8028
Rp8029
ag1
(g5
S"\xe8e'<"
p8030
tp8031
Rp8032
ag1
(g5
S'N\xa6\x1f<'
p8033
tp8034
Rp8035
ag1
(g5
S'\x07\xf7\x0c<'
p8036
tp8037
Rp8038
ag1
(g5
S'&\xfd\x18<'
p8039
tp8040
Rp8041
ag1
(g5
S'\x1b\xa7\r<'
p8042
tp8043
Rp8044
ag1
(g5
S'\x9d\x88\x10<'
p8045
tp8046
Rp8047
ag1
(g5
S'\xe9V\x14<'
p8048
tp8049
Rp8050
ag1
(g5
S'\\\x12%<'
p8051
tp8052
Rp8053
ag1
(g5
S'\xf6h\x18<'
p8054
tp8055
Rp8056
ag1
(g5
S'\x85.\x13<'
p8057
tp8058
Rp8059
ag1
(g5
S'\xc9\x8a\x19<'
p8060
tp8061
Rp8062
ag1
(g5
S'\xee\x8e <'
p8063
tp8064
Rp8065
ag1
(g5
S'\xc0\t\x16<'
p8066
tp8067
Rp8068
ag1
(g5
S'\x8d|\x1a<'
p8069
tp8070
Rp8071
ag1
(g5
S'\xeb\xa9\x12<'
p8072
tp8073
Rp8074
ag1
(g5
S'w\xdc\x15<'
p8075
tp8076
Rp8077
ag1
(g5
S'Q\xa3\x15<'
p8078
tp8079
Rp8080
ag1
(g5
S'aN\x12<'
p8081
tp8082
Rp8083
ag1
(g5
S'\xe9\x06\x1b<'
p8084
tp8085
Rp8086
ag1
(g5
S'\xe6\x05\xf7;'
p8087
tp8088
Rp8089
ag1
(g5
S'#\x19\x19<'
p8090
tp8091
Rp8092
ag1
(g5
S'\x96\xa0\x15<'
p8093
tp8094
Rp8095
ag1
(g5
S'\xfe\x87\xfb;'
p8096
tp8097
Rp8098
ag1
(g5
S'7\xa5 <'
p8099
tp8100
Rp8101
ag1
(g5
S'H\xd4\x1c<'
p8102
tp8103
Rp8104
ag1
(g5
S'\xc8D\x05<'
p8105
tp8106
Rp8107
ag1
(g5
S'\xf9\x97\x1f<'
p8108
tp8109
Rp8110
ag1
(g5
S'\xbb\xa6\x1a<'
p8111
tp8112
Rp8113
ag1
(g5
S'Z\x04\x17<'
p8114
tp8115
Rp8116
ag1
(g5
S'\xc2\xe9\x1b<'
p8117
tp8118
Rp8119
ag1
(g5
S'B\x15\n<'
p8120
tp8121
Rp8122
ag1
(g5
S'\xe6\xa4\x1c<'
p8123
tp8124
Rp8125
ag1
(g5
S'4\xca-<'
p8126
tp8127
Rp8128
ag1
(g5
S'\xcf\x13\x1b<'
p8129
tp8130
Rp8131
ag1
(g5
S'\x85\xf6\x10<'
p8132
tp8133
Rp8134
ag1
(g5
S"\xd0a'<"
p8135
tp8136
Rp8137
ag1
(g5
S'\xfa\xf6\x0f<'
p8138
tp8139
Rp8140
ag1
(g5
S'\xed\xcc$<'
p8141
tp8142
Rp8143
ag1
(g5
S'J\xd7\x1d<'
p8144
tp8145
Rp8146
ag1
(g5
S'\xb6Q\x1d<'
p8147
tp8148
Rp8149
ag1
(g5
S'\xa3\xa4\x1d<'
p8150
tp8151
Rp8152
ag1
(g5
S'Xl\x1e<'
p8153
tp8154
Rp8155
ag1
(g5
S'\x04\x82!<'
p8156
tp8157
Rp8158
ag1
(g5
S'\x18\x12%<'
p8159
tp8160
Rp8161
ag1
(g5
S'\x96\xdd\x15<'
p8162
tp8163
Rp8164
ag1
(g5
S'\xcf\xd1#<'
p8165
tp8166
Rp8167
ag1
(g5
S'\xb5\xf3\t<'
p8168
tp8169
Rp8170
ag1
(g5
S'\xe5\xeb\x18<'
p8171
tp8172
Rp8173
ag1
(g5
S'4\x05\x1a<'
p8174
tp8175
Rp8176
ag1
(g5
S'}\x9f\x19<'
p8177
tp8178
Rp8179
ag1
(g5
S'\xc9\xc6#<'
p8180
tp8181
Rp8182
ag1
(g5
S'H\xde(<'
p8183
tp8184
Rp8185
ag1
(g5
S'U8\t<'
p8186
tp8187
Rp8188
ag1
(g5
S'>b\x13<'
p8189
tp8190
Rp8191
ag1
(g5
S'Yt\x1e<'
p8192
tp8193
Rp8194
ag1
(g5
S'\x11a\x1b<'
p8195
tp8196
Rp8197
ag1
(g5
S'\x14\xa2\x15<'
p8198
tp8199
Rp8200
ag1
(g5
S'\x14s\x0b<'
p8201
tp8202
Rp8203
ag1
(g5
S'2\x8e\x15<'
p8204
tp8205
Rp8206
ag1
(g5
S'"<\x17<'
p8207
tp8208
Rp8209
ag1
(g5
S'\xf8\xf1\x19<'
p8210
tp8211
Rp8212
ag1
(g5
S'f\xb0\x14<'
p8213
tp8214
Rp8215
ag1
(g5
S'\x927&<'
p8216
tp8217
Rp8218
ag1
(g5
S'9\x8a\x1e<'
p8219
tp8220
Rp8221
ag1
(g5
S'\xe3S\x0c<'
p8222
tp8223
Rp8224
ag1
(g5
S't\x9d\x18<'
p8225
tp8226
Rp8227
ag1
(g5
S'\x11\x1c\r<'
p8228
tp8229
Rp8230
ag1
(g5
S'\xf4\xb8\x0f<'
p8231
tp8232
Rp8233
ag1
(g5
S'1\xc7\x13<'
p8234
tp8235
Rp8236
ag1
(g5
S'\xd3(&<'
p8237
tp8238
Rp8239
ag1
(g5
S'\xa88\x18<'
p8240
tp8241
Rp8242
ag1
(g5
S'\xa9\x04\x13<'
p8243
tp8244
Rp8245
ag1
(g5
S'\x17J\x18<'
p8246
tp8247
Rp8248
ag1
(g5
S'\xaf\xa9 <'
p8249
tp8250
Rp8251
ag1
(g5
S'3\x7f\x13<'
p8252
tp8253
Rp8254
ag1
(g5
S'\xd3;\x18<'
p8255
tp8256
Rp8257
ag1
(g5
S'\xed\x95\x11<'
p8258
tp8259
Rp8260
ag1
(g5
S'\rf\x16<'
p8261
tp8262
Rp8263
ag1
(g5
S'\xbc\x86\x15<'
p8264
tp8265
Rp8266
ag1
(g5
S'\x7f4\x13<'
p8267
tp8268
Rp8269
ag1
(g5
S'\x86y\x19<'
p8270
tp8271
Rp8272
ag1
(g5
S'R\x07\xf7;'
p8273
tp8274
Rp8275
ag1
(g5
S'\xef\xd1\x17<'
p8276
tp8277
Rp8278
ag1
(g5
S'\x1d\xd9\x12<'
p8279
tp8280
Rp8281
ag1
(g5
S'U>\xf8;'
p8282
tp8283
Rp8284
ag1
(g5
S'\x1b\xe0\x1f<'
p8285
tp8286
Rp8287
ag1
(g5
S'\x05\x1d\x1b<'
p8288
tp8289
Rp8290
ag1
(g5
S'B\xc2\x04<'
p8291
tp8292
Rp8293
ag1
(g5
S'\xfbZ\x1e<'
p8294
tp8295
Rp8296
ag1
(g5
S'\xc5F\x19<'
p8297
tp8298
Rp8299
ag1
(g5
S'!_\x16<'
p8300
tp8301
Rp8302
ag1
(g5
S'\x03\xfe\x1b<'
p8303
tp8304
Rp8305
ag1
(g5
S'\x82\xdd\t<'
p8306
tp8307
Rp8308
ag1
(g5
S'B\xb0\x1a<'
p8309
tp8310
Rp8311
ag1
(g5
S'\x1d\t-<'
p8312
tp8313
Rp8314
ag1
(g5
S'SR\x19<'
p8315
tp8316
Rp8317
ag1
(g5
S'\xa5\xff\r<'
p8318
tp8319
Rp8320
ag1
(g5
S'B\xe3#<'
p8321
tp8322
Rp8323
ag1
(g5
S'#\xd9\x0f<'
p8324
tp8325
Rp8326
ag1
(g5
S'\x9en$<'
p8327
tp8328
Rp8329
ag1
(g5
S'\xeb%\x1d<'
p8330
tp8331
Rp8332
ag1
(g5
S'91\x1e<'
p8333
tp8334
Rp8335
ag1
(g5
S'\xf0L\x1d<'
p8336
tp8337
Rp8338
ag1
(g5
S't\xd1\x1e<'
p8339
tp8340
Rp8341
ag1
(g5
S'\x1c: <'
p8342
tp8343
Rp8344
ag1
(g5
S'X\x87$<'
p8345
tp8346
Rp8347
ag1
(g5
S"C'\x15<"
p8348
tp8349
Rp8350
ag1
(g5
S'\xed2!<'
p8351
tp8352
Rp8353
ag1
(g5
S'h\x9d\x06<'
p8354
tp8355
Rp8356
ag1
(g5
S'\xf8e\x18<'
p8357
tp8358
Rp8359
ag1
(g5
S'5\xef\x19<'
p8360
tp8361
Rp8362
ag1
(g5
S'\xcf\xd9\x18<'
p8363
tp8364
Rp8365
ag1
(g5
S'\x7f\xac$<'
p8366
tp8367
Rp8368
ag1
(g5
S'\xfc\x88(<'
p8369
tp8370
Rp8371
ag1
(g5
S'[\xd5\t<'
p8372
tp8373
Rp8374
ag1
(g5
S'\x9d\x9a\x13<'
p8375
tp8376
Rp8377
ag1
(g5
S'\xd9\xb5\x1d<'
p8378
tp8379
Rp8380
ag1
(g5
S'Nf\x1a<'
p8381
tp8382
Rp8383
ag1
(g5
S'.+\x15<'
p8384
tp8385
Rp8386
ag1
(g5
S'\xc79\n<'
p8387
tp8388
Rp8389
ag1
(g5
S'N\xea\x13<'
p8390
tp8391
Rp8392
ag1
(g5
S'4\xb5\x16<'
p8393
tp8394
Rp8395
ag1
(g5
S'X\xd8\x19<'
p8396
tp8397
Rp8398
ag1
(g5
S'\xbdN\x15<'
p8399
tp8400
Rp8401
ag1
(g5
S"'\xbf&<"
p8402
tp8403
Rp8404
ag1
(g5
S'\xc8\x02\x1f<'
p8405
tp8406
Rp8407
ag1
(g5
S'\x04\x8c\x0c<'
p8408
tp8409
Rp8410
ag1
(g5
S'],\x19<'
p8411
tp8412
Rp8413
ag1
(g5
S'\x17\xa9\r<'
p8414
tp8415
Rp8416
ag1
(g5
S'\x106\x0f<'
p8417
tp8418
Rp8419
ag1
(g5
S'\x97\xdc\x13<'
p8420
tp8421
Rp8422
ag1
(g5
S'\x80\xe2$<'
p8423
tp8424
Rp8425
ag1
(g5
S'G\xbc\x17<'
p8426
tp8427
Rp8428
ag1
(g5
S'\x97\x08\x12<'
p8429
tp8430
Rp8431
ag1
(g5
S'\xecC\x19<'
p8432
tp8433
Rp8434
ag1
(g5
S'4\xd1\x1f<'
p8435
tp8436
Rp8437
ag1
(g5
S'\xd7\x13\x12<'
p8438
tp8439
Rp8440
ag1
(g5
S'\xa8\xb9\x16<'
p8441
tp8442
Rp8443
ag1
(g5
S'(\x8c\x11<'
p8444
tp8445
Rp8446
ag1
(g5
S'\x80\x9e\x14<'
p8447
tp8448
Rp8449
ag1
(g5
S'"0\x15<'
p8450
tp8451
Rp8452
ag1
(g5
S'\x92\xdb\x11<'
p8453
tp8454
Rp8455
ag1
(g5
S's\xc5\x1a<'
p8456
tp8457
Rp8458
ag1
(g5
S'\xd3\xe3\xf5;'
p8459
tp8460
Rp8461
ag1
(g5
S'\xc3g\x17<'
p8462
tp8463
Rp8464
ag1
(g5
S'\x93k\x14<'
p8465
tp8466
Rp8467
ag1
(g5
S'\xc8\t\xf8;'
p8468
tp8469
Rp8470
ag1
(g5
S'q\xf4\x1e<'
p8471
tp8472
Rp8473
ag1
(g5
S'\xf2\x10\x1a<'
p8474
tp8475
Rp8476
ag1
(g5
S'\x14L\x04<'
p8477
tp8478
Rp8479
ag1
(g5
S'\xa0\xf2\x1d<'
p8480
tp8481
Rp8482
ag1
(g5
S'\xc5\xba\x18<'
p8483
tp8484
Rp8485
ag1
(g5
S'\x85}\x16<'
p8486
tp8487
Rp8488
ag1
(g5
S'\x07\n\x1b<'
p8489
tp8490
Rp8491
ag1
(g5
S'\x17\xb1\t<'
p8492
tp8493
Rp8494
ag1
(g5
S'6\xfa\x1a<'
p8495
tp8496
Rp8497
ag1
(g5
S'\t\x84+<'
p8498
tp8499
Rp8500
ag1
(g5
S'\x80U\x19<'
p8501
tp8502
Rp8503
ag1
(g5
S'9.\x0e<'
p8504
tp8505
Rp8506
ag1
(g5
S'\xa8/#<'
p8507
tp8508
Rp8509
ag1
(g5
S'\x9b2\r<'
p8510
tp8511
Rp8512
ag1
(g5
S'\xb9\xaa"<'
p8513
tp8514
Rp8515
ag1
(g5
S' \x1d\x1d<'
p8516
tp8517
Rp8518
ag1
(g5
S'\xbe\x9b\x1b<'
p8519
tp8520
Rp8521
ag1
(g5
S'\xcd}\x1b<'
p8522
tp8523
Rp8524
ag1
(g5
S'\xe5"\x1d<'
p8525
tp8526
Rp8527
ag1
(g5
S'q\xf7\x1f<'
p8528
tp8529
Rp8530
ag1
(g5
S'z\x80#<'
p8531
tp8532
Rp8533
ag1
(g5
S'\x9aJ\x14<'
p8534
tp8535
Rp8536
ag1
(g5
S'\xe5\xe0 <'
p8537
tp8538
Rp8539
ag1
(g5
S'\xb5\xe2\x05<'
p8540
tp8541
Rp8542
ag1
(g5
S'_B\x16<'
p8543
tp8544
Rp8545
ag1
(g5
S'\xc8}\x17<'
p8546
tp8547
Rp8548
ag1
(g5
S'4?\x17<'
p8549
tp8550
Rp8551
ag1
(g5
S'z\xf8"<'
p8552
tp8553
Rp8554
ag1
(g5
S"\xbf\xeb'<"
p8555
tp8556
Rp8557
ag1
(g5
S'b\x9a\x07<'
p8558
tp8559
Rp8560
ag1
(g5
S'@\x08\x12<'
p8561
tp8562
Rp8563
ag1
(g5
S'\x90\xaa\x1b<'
p8564
tp8565
Rp8566
ag1
(g5
S'\xef\x02\x19<'
p8567
tp8568
Rp8569
ag1
(g5
S'Qf\x12<'
p8570
tp8571
Rp8572
ag1
(g5
S'\x83\xf5\t<'
p8573
tp8574
Rp8575
ag1
(g5
S'\xa8^\x13<'
p8576
tp8577
Rp8578
ag1
(g5
S'\xa3V\x16<'
p8579
tp8580
Rp8581
ag1
(g5
S'H\xe7\x17<'
p8582
tp8583
Rp8584
ag1
(g5
S'\xe58\x13<'
p8585
tp8586
Rp8587
ag1
(g5
S'\xd9\xfb#<'
p8588
tp8589
Rp8590
ag1
(g5
S'3s\x1d<'
p8591
tp8592
Rp8593
ag1
(g5
S'\xeb\t\x0b<'
p8594
tp8595
Rp8596
ag1
(g5
S'a?\x17<'
p8597
tp8598
Rp8599
ag1
(g5
S';\x16\r<'
p8600
tp8601
Rp8602
ag1
(g5
S'\xd1B\x0e<'
p8603
tp8604
Rp8605
ag1
(g5
S'bK\x13<'
p8606
tp8607
Rp8608
ag1
(g5
S'\xa4#$<'
p8609
tp8610
Rp8611
ag1
(g5
S'L\x91\x17<'
p8612
tp8613
Rp8614
ag1
(g5
S'Gk\x11<'
p8615
tp8616
Rp8617
ag1
(g5
S'w\xfc\x17<'
p8618
tp8619
Rp8620
ag1
(g5
S';\xa6\x1e<'
p8621
tp8622
Rp8623
ag1
(g5
S'\x8d\x98\x12<'
p8624
tp8625
Rp8626
ag1
(g5
S'\x05\xd5\x16<'
p8627
tp8628
Rp8629
ag1
(g5
S'\x8e\x98\x0f<'
p8630
tp8631
Rp8632
ag1
(g5
S'\xdb\x9c\x15<'
p8633
tp8634
Rp8635
ag1
(g5
S'\xab\x00\x15<'
p8636
tp8637
Rp8638
ag1
(g5
S'\x91\x91\x10<'
p8639
tp8640
Rp8641
ag1
(g5
S'S\xe6\x19<'
p8642
tp8643
Rp8644
ag1
(g5
S'\x98U\xf4;'
p8645
tp8646
Rp8647
ag1
(g5
S'\xbc?\x16<'
p8648
tp8649
Rp8650
ag1
(g5
S'>9\x13<'
p8651
tp8652
Rp8653
ag1
(g5
S'n\xa3\xf7;'
p8654
tp8655
Rp8656
ag1
(g5
S'\xa0~\x1d<'
p8657
tp8658
Rp8659
ag1
(g5
S'/\xe1\x19<'
p8660
tp8661
Rp8662
ag1
(g5
S'\xb8\x18\x02<'
p8663
tp8664
Rp8665
ag1
(g5
S'u\r\x1d<'
p8666
tp8667
Rp8668
ag1
(g5
S'VZ\x18<'
p8669
tp8670
Rp8671
ag1
(g5
S'\xe0\x06\x15<'
p8672
tp8673
Rp8674
ag1
(g5
S'\xf1\xe6\x1a<'
p8675
tp8676
Rp8677
ag1
(g5
S'<F\t<'
p8678
tp8679
Rp8680
ag1
(g5
S'5\xf3\x19<'
p8681
tp8682
Rp8683
ag1
(g5
S'!\xf3*<'
p8684
tp8685
Rp8686
ag1
(g5
S'\x8f\xf8\x17<'
p8687
tp8688
Rp8689
ag1
(g5
S':\xbd\r<'
p8690
tp8691
Rp8692
ag1
(g5
S'JQ!<'
p8693
tp8694
Rp8695
ag1
(g5
S'\x03k\r<'
p8696
tp8697
Rp8698
ag1
(g5
S'\xe0I"<'
p8699
tp8700
Rp8701
ag1
(g5
S'\x91Y\x1b<'
p8702
tp8703
Rp8704
ag1
(g5
S'{\x8e\x1a<'
p8705
tp8706
Rp8707
ag1
(g5
S'\xa0\xf9\x19<'
p8708
tp8709
Rp8710
ag1
(g5
S'\xf3^\x1c<'
p8711
tp8712
Rp8713
ag1
(g5
S'\xf9@\x1f<'
p8714
tp8715
Rp8716
ag1
(g5
S'\xa6\x9c"<'
p8717
tp8718
Rp8719
ag1
(g5
S'\x19"\x13<'
p8720
tp8721
Rp8722
ag1
(g5
S'|\xe8\x1f<'
p8723
tp8724
Rp8725
ag1
(g5
S'a?\x05<'
p8726
tp8727
Rp8728
ag1
(g5
S'\xf4}\x15<'
p8729
tp8730
Rp8731
ag1
(g5
S'7W\x17<'
p8732
tp8733
Rp8734
ag1
(g5
S'\x81i\x16<'
p8735
tp8736
Rp8737
ag1
(g5
S'j-"<'
p8738
tp8739
Rp8740
ag1
(g5
S"\x87\xc3'<"
p8741
tp8742
Rp8743
ag1
(g5
S'\x94t\x06<'
p8744
tp8745
Rp8746
ag1
(g5
S'\xd7#\x11<'
p8747
tp8748
Rp8749
ag1
(g5
S'\xa3\x8d\x1a<'
p8750
tp8751
Rp8752
ag1
(g5
S'\xa8^\x19<'
p8753
tp8754
Rp8755
ag1
(g5
S'\xdd\xa0\x11<'
p8756
tp8757
Rp8758
ag1
(g5
S"*'\t<"
p8759
tp8760
Rp8761
ag1
(g5
S'#\xf6\x12<'
p8762
tp8763
Rp8764
ag1
(g5
S'n\x1e\x15<'
p8765
tp8766
Rp8767
ag1
(g5
S'\t\x8c\x17<'
p8768
tp8769
Rp8770
ag1
(g5
S'\x7f\x90\x12<'
p8771
tp8772
Rp8773
ag1
(g5
S'k\x0e$<'
p8774
tp8775
Rp8776
ag1
(g5
S'\xcb\xce\x1b<'
p8777
tp8778
Rp8779
ag1
(g5
S'\x86~\n<'
p8780
tp8781
Rp8782
ag1
(g5
S'\x91c\x15<'
p8783
tp8784
Rp8785
ag1
(g5
S':\x06\x0c<'
p8786
tp8787
Rp8788
ag1
(g5
S'nL\r<'
p8789
tp8790
Rp8791
ag1
(g5
S'\xecm\x12<'
p8792
tp8793
Rp8794
ag1
(g5
S'\xb1.#<'
p8795
tp8796
Rp8797
ag1
(g5
S'\x8e\x91\x16<'
p8798
tp8799
Rp8800
ag1
(g5
S'\x88\x7f\x10<'
p8801
tp8802
Rp8803
ag1
(g5
S'L<\x17<'
p8804
tp8805
Rp8806
ag1
(g5
S'\xc2-\x1d<'
p8807
tp8808
Rp8809
ag1
(g5
S'\xab\xb1\x10<'
p8810
tp8811
Rp8812
ag1
(g5
S'c\x8c\x14<'
p8813
tp8814
Rp8815
ag1
(g5
S'\x00m\x0f<'
p8816
tp8817
Rp8818
ag1
(g5
S'v\xb8\x14<'
p8819
tp8820
Rp8821
ag1
(g5
S')\x87\x12<'
p8822
tp8823
Rp8824
ag1
(g5
S'\xa9\xcb\x0f<'
p8825
tp8826
Rp8827
ag1
(g5
S'\xbc\xb3\x18<'
p8828
tp8829
Rp8830
ag1
(g5
S'Zb\xf2;'
p8831
tp8832
Rp8833
ag1
(g5
S'\xd9Y\x16<'
p8834
tp8835
Rp8836
ag1
(g5
S'Kw\x11<'
p8837
tp8838
Rp8839
ag1
(g5
S'\x80\x93\xf7;'
p8840
tp8841
Rp8842
ag1
(g5
S'\xf1\xeb\x1c<'
p8843
tp8844
Rp8845
ag1
(g5
S'\xdb\xcd\x18<'
p8846
tp8847
Rp8848
ag1
(g5
S'OD\x02<'
p8849
tp8850
Rp8851
ag1
(g5
S'\x9ac\x1c<'
p8852
tp8853
Rp8854
ag1
(g5
S'\xdcW\x16<'
p8855
tp8856
Rp8857
ag1
(g5
S'\xa2Q\x14<'
p8858
tp8859
Rp8860
ag1
(g5
S'\xa7\x81\x19<'
p8861
tp8862
Rp8863
ag1
(g5
S'\x08-\t<'
p8864
tp8865
Rp8866
ag1
(g5
S'y\x8f\x19<'
p8867
tp8868
Rp8869
ag1
(g5
S'\n\x88*<'
p8870
tp8871
Rp8872
ag1
(g5
S'\xf3\x16\x18<'
p8873
tp8874
Rp8875
ag1
(g5
S'\xf2L\r<'
p8876
tp8877
Rp8878
ag1
(g5
S'I\xf6!<'
p8879
tp8880
Rp8881
ag1
(g5
S'H\xa4\x0c<'
p8882
tp8883
Rp8884
ag1
(g5
S',\xa9 <'
p8885
tp8886
Rp8887
ag1
(g5
S'\x0cV\x1b<'
p8888
tp8889
Rp8890
ag1
(g5
S'\xab\x0c\x1a<'
p8891
tp8892
Rp8893
ag1
(g5
S'\xca\xe0\x1a<'
p8894
tp8895
Rp8896
ag1
(g5
S'\x05\xc9\x1b<'
p8897
tp8898
Rp8899
ag1
(g5
S'! \x1e<'
p8900
tp8901
Rp8902
ag1
(g5
S'cG"<'
p8903
tp8904
Rp8905
ag1
(g5
S'0c\x11<'
p8906
tp8907
Rp8908
ag1
(g5
S'\xfe\xde\x1e<'
p8909
tp8910
Rp8911
ag1
(g5
S'\x13\xe4\x04<'
p8912
tp8913
Rp8914
ag1
(g5
S'\xa9\x9f\x15<'
p8915
tp8916
Rp8917
ag1
(g5
S'\xed\xce\x16<'
p8918
tp8919
Rp8920
ag1
(g5
S'\x1b\x08\x15<'
p8921
tp8922
Rp8923
ag1
(g5
S'\x08t!<'
p8924
tp8925
Rp8926
ag1
(g5
S'z\xd3%<'
p8927
tp8928
Rp8929
ag1
(g5
S'al\x05<'
p8930
tp8931
Rp8932
ag1
(g5
S'\x05|\x10<'
p8933
tp8934
Rp8935
ag1
(g5
S'Z\x83\x1b<'
p8936
tp8937
Rp8938
ag1
(g5
S'\x1d\x10\x18<'
p8939
tp8940
Rp8941
ag1
(g5
S'r1\x11<'
p8942
tp8943
Rp8944
ag1
(g5
S'0\xd3\x07<'
p8945
tp8946
Rp8947
ag1
(g5
S'\x12\x01\x12<'
p8948
tp8949
Rp8950
ag1
(g5
S'\x0f\xdc\x14<'
p8951
tp8952
Rp8953
ag1
(g5
S'\xac}\x16<'
p8954
tp8955
Rp8956
ag1
(g5
S'\xb9@\x11<'
p8957
tp8958
Rp8959
ag1
(g5
S'*\xfd!<'
p8960
tp8961
Rp8962
ag1
(g5
S'j\x7f\x1b<'
p8963
tp8964
Rp8965
ag1
(g5
S'~P\t<'
p8966
tp8967
Rp8968
ag1
(g5
S'\xd8\xdf\x14<'
p8969
tp8970
Rp8971
ag1
(g5
S'\x91`\n<'
p8972
tp8973
Rp8974
ag1
(g5
S'\xcbN\r<'
p8975
tp8976
Rp8977
ag1
(g5
S']\xff\x10<'
p8978
tp8979
Rp8980
ag1
(g5
S'L\x7f!<'
p8981
tp8982
Rp8983
ag1
(g5
S'\x88 \x15<'
p8984
tp8985
Rp8986
ag1
(g5
S'hM\x0f<'
p8987
tp8988
Rp8989
ag1
(g5
S'\xfcR\x15<'
p8990
tp8991
Rp8992
ag1
(g5
S'\xce\xe6\x1c<'
p8993
tp8994
Rp8995
ag1
(g5
S'+\r\x10<'
p8996
tp8997
Rp8998
ag1
(g5
S"\x98'\x15<"
p8999
tp9000
Rp9001
ag1
(g5
S'\x1b\xc5\r<'
p9002
tp9003
Rp9004
ag1
(g5
S'\xd3\x8b\x12<'
p9005
tp9006
Rp9007
a.