(lp0
cnumpy.core.multiarray
scalar
p1
(cnumpy
dtype
p2
(S'f4'
p3
I0
I1
tp4
Rp5
(I3
S'<'
p6
NNNI-1
I-1
I0
tp7
bS'\xfa\x04@='
p8
tp9
Rp10
ag1
(g5
S'\x9a6+='
p11
tp12
Rp13
ag1
(g5
S'L\xb4\x1f='
p14
tp15
Rp16
ag1
(g5
S'Q\xb1\r='
p17
tp18
Rp19
ag1
(g5
S'\x0fs\t='
p20
tp21
Rp22
ag1
(g5
S'\xc6i\x03='
p23
tp24
Rp25
ag1
(g5
S'\xe0\n\xf2<'
p26
tp27
Rp28
ag1
(g5
S'\xecp\xeb<'
p29
tp30
Rp31
ag1
(g5
S'\xaa\xc6\xe5<'
p32
tp33
Rp34
ag1
(g5
S'\xcbF\xdb<'
p35
tp36
Rp37
ag1
(g5
S'k\x98\xc8<'
p38
tp39
Rp40
ag1
(g5
S'\xc8O\xc9<'
p41
tp42
Rp43
ag1
(g5
S',n\xbe<'
p44
tp45
Rp46
ag1
(g5
S'\xe6\x8b\xba<'
p47
tp48
Rp49
ag1
(g5
S'\n\x81\xb6<'
p50
tp51
Rp52
ag1
(g5
S'\xd3\xee\xbd<'
p53
tp54
Rp55
ag1
(g5
S'\xc2K\xaf<'
p56
tp57
Rp58
ag1
(g5
S'\x95\xf1\xaa<'
p59
tp60
Rp61
ag1
(g5
S'\xbd\xf2\xa8<'
p62
tp63
Rp64
ag1
(g5
S'\x87\xdf\xa9<'
p65
tp66
Rp67
ag1
(g5
S'\xd4\xb5\xa0<'
p68
tp69
Rp70
ag1
(g5
S'\xc0\xca\xa5<'
p71
tp72
Rp73
ag1
(g5
S':\x02\x9d<'
p74
tp75
Rp76
ag1
(g5
S'\xf3\xf3\x9e<'
p77
tp78
Rp79
ag1
(g5
S'\xa9\xb9\x97<'
p80
tp81
Rp82
ag1
(g5
S'\xf8x\x98<'
p83
tp84
Rp85
ag1
(g5
S'no\x99<'
p86
tp87
Rp88
ag1
(g5
S'\x94\x8a\x8a<'
p89
tp90
Rp91
ag1
(g5
S'{\xd0\x92<'
p92
tp93
Rp94
ag1
(g5
S'\x01\x86\x96<'
p95
tp96
Rp97
ag1
(g5
S'\xf3>\x86<'
p98
tp99
Rp100
ag1
(g5
S'\x80\xb9\x93<'
p101
tp102
Rp103
ag1
(g5
S'\xe9\xd9\x90<'
p104
tp105
Rp106
ag1
(g5
S'Q\xa1\x83<'
p107
tp108
Rp109
ag1
(g5
S'\xb2\x87\x8f<'
p110
tp111
Rp112
ag1
(g5
S']\xe5\x8d<'
p113
tp114
Rp115
ag1
(g5
S'\xbb7\x8a<'
p116
tp117
Rp118
ag1
(g5
S'V\xea\x8e<'
p119
tp120
Rp121
ag1
(g5
S'\xeaE\x81<'
p122
tp123
Rp124
ag1
(g5
S'tZ\x8c<'
p125
tp126
Rp127
ag1
(g5
S'\\\xf3\x92<'
p128
tp129
Rp130
ag1
(g5
S'\n\xbb\x89<'
p131
tp132
Rp133
ag1
(g5
S'\x01\xb1\x81<'
p134
tp135
Rp136
ag1
(g5
S'\xd9\x02\x8e<'
p137
tp138
Rp139
ag1
(g5
S'\xa7\x86\x82<'
p140
tp141
Rp142
ag1
(g5
S'\xd9 \x8d<'
p143
tp144
Rp145
ag1
(g5
S'\x98\x88\x88<'
p146
tp147
Rp148
ag1
(g5
S'\xb8\xc4\x87<'
p149
tp150
Rp151
ag1
(g5
S'\x9f\xc0\x86<'
p152
tp153
Rp154
ag1
(g5
S'\x86\x90\x87<'
p155
tp156
Rp157
ag1
(g5
S'\xa9\x9b\x87<'
p158
tp159
Rp160
ag1
(g5
S'\x8f\xb4\x88<'
p161
tp162
Rp163
ag1
(g5
S'\x9f\xe7y<'
p164
tp165
Rp166
ag1
(g5
S'\x80\xd2\x84<'
p167
tp168
Rp169
ag1
(g5
S'!\xfej<'
p170
tp171
Rp172
ag1
(g5
S'\x8a\x01\x81<'
p173
tp174
Rp175
ag1
(g5
S']y~<'
p176
tp177
Rp178
ag1
(g5
S'\xf6\xfd\x7f<'
p179
tp180
Rp181
ag1
(g5
S'\xce\xa9\x85<'
p182
tp183
Rp184
ag1
(g5
S'\r\xf9\x87<'
p185
tp186
Rp187
ag1
(g5
S'>\xcbq<'
p188
tp189
Rp190
ag1
(g5
S'\xa6\x1dv<'
p191
tp192
Rp193
ag1
(g5
S'\xea\xd7\x83<'
p194
tp195
Rp196
ag1
(g5
S'fq~<'
p197
tp198
Rp199
ag1
(g5
S'\xf4W\x7f<'
p200
tp201
Rp202
ag1
(g5
S't\x87o<'
p203
tp204
Rp205
ag1
(g5
S'\x97x|<'
p206
tp207
Rp208
ag1
(g5
S'~\xb3~<'
p209
tp210
Rp211
ag1
(g5
S'\xf9%|<'
p212
tp213
Rp214
ag1
(g5
S'\xf4\xc9u<'
p215
tp216
Rp217
ag1
(g5
S'\xc1u\x83<'
p218
tp219
Rp220
ag1
(g5
S'0\x85\x81<'
p221
tp222
Rp223
ag1
(g5
S'^7k<'
p224
tp225
Rp226
ag1
(g5
S'2\xa4z<'
p227
tp228
Rp229
ag1
(g5
S'\xd1\x9cn<'
p230
tp231
Rp232
ag1
(g5
S'\xc7\x91o<'
p233
tp234
Rp235
ag1
(g5
S'o\xaer<'
p236
tp237
Rp238
ag1
(g5
S'\x8b\xa9\x85<'
p239
tp240
Rp241
ag1
(g5
S'A\xbbt<'
p242
tp243
Rp244
ag1
(g5
S'\xc9\x8br<'
p245
tp246
Rp247
ag1
(g5
S'`0v<'
p248
tp249
Rp250
ag1
(g5
S't\x1f}<'
p251
tp252
Rp253
ag1
(g5
S'\x14\xc9n<'
p254
tp255
Rp256
ag1
(g5
S'DV\x7f<'
p257
tp258
Rp259
ag1
(g5
S'7*o<'
p260
tp261
Rp262
ag1
(g5
S'\xc9hx<'
p263
tp264
Rp265
ag1
(g5
S'E0m<'
p266
tp267
Rp268
ag1
(g5
S'\xef\xd5r<'
p269
tp270
Rp271
ag1
(g5
S'r\x9cw<'
p272
tp273
Rp274
ag1
(g5
S'\xd9t[<'
p275
tp276
Rp277
ag1
(g5
S'\x98\xbcp<'
p278
tp279
Rp280
ag1
(g5
S',Bz<'
p281
tp282
Rp283
ag1
(g5
S'=\xe7Z<'
p284
tp285
Rp286
ag1
(g5
S'&\xe2y<'
p287
tp288
Rp289
ag1
(g5
S'\xe1\x93v<'
p290
tp291
Rp292
ag1
(g5
S'Q\x1d[<'
p293
tp294
Rp295
ag1
(g5
S'\x87Nw<'
p296
tp297
Rp298
ag1
(g5
S'\x00\xf5t<'
p299
tp300
Rp301
ag1
(g5
S'Ifo<'
p302
tp303
Rp304
ag1
(g5
S'\t:z<'
p305
tp306
Rp307
ag1
(g5
S'+y_<'
p308
tp309
Rp310
ag1
(g5
S'/2x<'
p311
tp312
Rp313
ag1
(g5
S'Pl\x83<'
p314
tp315
Rp316
ag1
(g5
S'\xcb\xdct<'
p317
tp318
Rp319
ag1
(g5
S'qYe<'
p320
tp321
Rp322
ag1
(g5
S'\xee\xa7\x7f<'
p323
tp324
Rp325
ag1
(g5
S'\xd3fi<'
p326
tp327
Rp328
ag1
(g5
S'@\xad\x7f<'
p329
tp330
Rp331
ag1
(g5
S'\x05\x80w<'
p332
tp333
Rp334
ag1
(g5
S'\xa8\x1aw<'
p335
tp336
Rp337
ag1
(g5
S'8Bu<'
p338
tp339
Rp340
ag1
(g5
S'\x12\nx<'
p341
tp342
Rp343
ag1
(g5
S'\x96wy<'
p344
tp345
Rp346
ag1
(g5
S'\xde\x8e|<'
p347
tp348
Rp349
ag1
(g5
S'\x93$e<'
p350
tp351
Rp352
ag1
(g5
S'\xebNv<'
p353
tp354
Rp355
ag1
(g5
S'\x1bZW<'
p356
tp357
Rp358
ag1
(g5
S'\xeaFo<'
p359
tp360
Rp361
ag1
(g5
S'\x8bVm<'
p362
tp363
Rp364
ag1
(g5
S'\xe3@n<'
p365
tp366
Rp367
ag1
(g5
S'&fz<'
p368
tp369
Rp370
ag1
(g5
S'\xe3\x0c\x80<'
p371
tp372
Rp373
ag1
(g5
S'/Va<'
p374
tp375
Rp376
ag1
(g5
S'\xdf\xf8f<'
p377
tp378
Rp379
ag1
(g5
S'\x8e\x9ax<'
p380
tp381
Rp382
ag1
(g5
S'{\xd6o<'
p383
tp384
Rp385
ag1
(g5
S'\xf1\x0eq<'
p386
tp387
Rp388
ag1
(g5
S'\xff\x17b<'
p389
tp390
Rp391
ag1
(g5
S'\x97=o<'
p392
tp393
Rp394
ag1
(g5
S'y\xc0q<'
p395
tp396
Rp397
ag1
(g5
S'\x859p<'
p398
tp399
Rp400
ag1
(g5
S'\x89Oj<'
p401
tp402
Rp403
ag1
(g5
S'\xbd\xec{<'
p404
tp405
Rp406
ag1
(g5
S'\x19qx<'
p407
tp408
Rp409
ag1
(g5
S'\x02@`<'
p410
tp411
Rp412
ag1
(g5
S'\xba\xeco<'
p413
tp414
Rp415
ag1
(g5
S'\x98|d<'
p416
tp417
Rp418
ag1
(g5
S'\x15\x87e<'
p419
tp420
Rp421
ag1
(g5
S'\xff2i<'
p422
tp423
Rp424
ag1
(g5
S'\xe4\x08\x81<'
p425
tp426
Rp427
ag1
(g5
S'\xd0\xcck<'
p428
tp429
Rp430
ag1
(g5
S'n\xdci<'
p431
tp432
Rp433
ag1
(g5
S'\xb6\x15n<'
p434
tp435
Rp436
ag1
(g5
S'u\x06u<'
p437
tp438
Rp439
ag1
(g5
S'\x9e\xa1f<'
p440
tp441
Rp442
ag1
(g5
S'\x7f\xd2w<'
p443
tp444
Rp445
ag1
(g5
S'S\xe8g<'
p446
tp447
Rp448
ag1
(g5
S'{Iq<'
p449
tp450
Rp451
ag1
(g5
S'\xcf\x05f<'
p452
tp453
Rp454
ag1
(g5
S'7\xd5k<'
p455
tp456
Rp457
ag1
(g5
S'\n\xe2p<'
p458
tp459
Rp460
ag1
(g5
S'a\xe5T<'
p461
tp462
Rp463
ag1
(g5
S'\xb6\xc4j<'
p464
tp465
Rp466
ag1
(g5
S'\xb15t<'
p467
tp468
Rp469
ag1
(g5
S'4\x17U<'
p470
tp471
Rp472
ag1
(g5
S'\xcf\x82t<'
p473
tp474
Rp475
ag1
(g5
S'5\x1aq<'
p476
tp477
Rp478
ag1
(g5
S'o\xc9U<'
p479
tp480
Rp481
ag1
(g5
S'&zr<'
p482
tp483
Rp484
ag1
(g5
S'\xa1[p<'
p485
tp486
Rp487
ag1
(g5
S'\x18wj<'
p488
tp489
Rp490
ag1
(g5
S'\x0f\xabu<'
p491
tp492
Rp493
ag1
(g5
S'Y\x05[<'
p494
tp495
Rp496
ag1
(g5
S'\xd0\xc7s<'
p497
tp498
Rp499
ag1
(g5
S'\x80i\x81<'
p500
tp501
Rp502
ag1
(g5
S'\x9b\xf2p<'
p503
tp504
Rp505
ag1
(g5
S'\xbd\x81a<'
p506
tp507
Rp508
ag1
(g5
S'}\xa5{<'
p509
tp510
Rp511
ag1
(g5
S'\x85\x9be<'
p512
tp513
Rp514
ag1
(g5
S'.\xcd{<'
p515
tp516
Rp517
ag1
(g5
S'&\xc3s<'
p518
tp519
Rp520
ag1
(g5
S'\xd6\xbfs<'
p521
tp522
Rp523
ag1
(g5
S'\xeb\x1er<'
p524
tp525
Rp526
ag1
(g5
S'U\xaft<'
p527
tp528
Rp529
ag1
(g5
S'1\x8dv<'
p530
tp531
Rp532
ag1
(g5
S'\xe9Wy<'
p533
tp534
Rp535
ag1
(g5
S'\xff\x08b<'
p536
tp537
Rp538
ag1
(g5
S'|\x93s<'
p539
tp540
Rp541
ag1
(g5
S'\xa7gT<'
p542
tp543
Rp544
ag1
(g5
S'\x04Vl<'
p545
tp546
Rp547
ag1
(g5
S'Q\x9aj<'
p548
tp549
Rp550
ag1
(g5
S'\xed\\k<'
p551
tp552
Rp553
ag1
(g5
S'b\xb5w<'
p554
tp555
Rp556
ag1
(g5
S'\xc6\xb3}<'
p557
tp558
Rp559
ag1
(g5
S'\xd6\xc3^<'
p560
tp561
Rp562
ag1
(g5
S'!\xa6d<'
p563
tp564
Rp565
ag1
(g5
S'\x82Wv<'
p566
tp567
Rp568
ag1
(g5
S'x\xcbm<'
p569
tp570
Rp571
ag1
(g5
S'6|n<'
p572
tp573
Rp574
ag1
(g5
S'%2`<'
p575
tp576
Rp577
ag1
(g5
S',pm<'
p578
tp579
Rp580
ag1
(g5
S'd\xd2o<'
p581
tp582
Rp583
ag1
(g5
S'\xcc\x88n<'
p584
tp585
Rp586
ag1
(g5
S'\xd8?h<'
p587
tp588
Rp589
ag1
(g5
S'bGz<'
p590
tp591
Rp592
ag1
(g5
S'v\xc5v<'
p593
tp594
Rp595
ag1
(g5
S'|\x9a^<'
p596
tp597
Rp598
ag1
(g5
S'\xb3"n<'
p599
tp600
Rp601
ag1
(g5
S'}\xe2b<'
p602
tp603
Rp604
ag1
(g5
S'0\xd6c<'
p605
tp606
Rp607
ag1
(g5
S'\xa9\x97g<'
p608
tp609
Rp610
ag1
(g5
S'ZS\x80<'
p611
tp612
Rp613
ag1
(g5
S'\xa9\xf4i<'
p614
tp615
Rp616
ag1
(g5
S'\x88\\h<'
p617
tp618
Rp619
ag1
(g5
S'\xef\xb3l<'
p620
tp621
Rp622
ag1
(g5
S'\xaf\xd3s<'
p623
tp624
Rp625
ag1
(g5
S'\xa8te<'
p626
tp627
Rp628
ag1
(g5
S'\x92jv<'
p629
tp630
Rp631
ag1
(g5
S'&\xa7f<'
p632
tp633
Rp634
ag1
(g5
S'u\x0bp<'
p635
tp636
Rp637
ag1
(g5
S'\x86\x01e<'
p638
tp639
Rp640
ag1
(g5
S's\xc7j<'
p641
tp642
Rp643
ag1
(g5
S'\xd5\xe6o<'
p644
tp645
Rp646
ag1
(g5
S'\xf9\xe1S<'
p647
tp648
Rp649
ag1
(g5
S'\x9f\xa2i<'
p650
tp651
Rp652
ag1
(g5
S'\x9a\x11s<'
p653
tp654
Rp655
ag1
(g5
S'\xb2IT<'
p656
tp657
Rp658
ag1
(g5
S'Y\\s<'
p659
tp660
Rp661
ag1
(g5
S'\x00\x11p<'
p662
tp663
Rp664
ag1
(g5
S't\xceT<'
p665
tp666
Rp667
ag1
(g5
S'X\x88q<'
p668
tp669
Rp670
ag1
(g5
S'6+o<'
p671
tp672
Rp673
ag1
(g5
S'\xc6Ei<'
p674
tp675
Rp676
ag1
(g5
S'Zot<'
p677
tp678
Rp679
ag1
(g5
S'\xc3,Z<'
p680
tp681
Rp682
ag1
(g5
S'\xac\x05s<'
p683
tp684
Rp685
ag1
(g5
S'\xb1\xfe\x80<'
p686
tp687
Rp688
ag1
(g5
S'\xa4\x02p<'
p689
tp690
Rp691
ag1
(g5
S'\xf3\x9d`<'
p692
tp693
Rp694
ag1
(g5
S'O*{<'
p695
tp696
Rp697
ag1
(g5
S'\xf5\xa5d<'
p698
tp699
Rp700
ag1
(g5
S'v-{<'
p701
tp702
Rp703
ag1
(g5
S'\xd4\xe5r<'
p704
tp705
Rp706
ag1
(g5
S'\xb2\xfdr<'
p707
tp708
Rp709
ag1
(g5
S'\x87\x1dq<'
p710
tp711
Rp712
ag1
(g5
S'\xcf\x08t<'
p713
tp714
Rp715
ag1
(g5
S'\x0e\xdbu<'
p716
tp717
Rp718
ag1
(g5
S'\xdc\xa1x<'
p719
tp720
Rp721
ag1
(g5
S'\xa6^a<'
p722
tp723
Rp724
ag1
(g5
S'\xc7\xber<'
p725
tp726
Rp727
ag1
(g5
S'}\xccS<'
p728
tp729
Rp730
ag1
(g5
S'\x87\xa3k<'
p731
tp732
Rp733
ag1
(g5
S'9\xf1i<'
p734
tp735
Rp736
ag1
(g5
S'\x02\xf5j<'
p737
tp738
Rp739
ag1
(g5
S'\x180w<'
p740
tp741
Rp742
ag1
(g5
S'\x02\x0b}<'
p743
tp744
Rp745
ag1
(g5
S'\xa3\xdb]<'
p746
tp747
Rp748
ag1
(g5
S'?\x08d<'
p749
tp750
Rp751
ag1
(g5
S'\x1f\x9au<'
p752
tp753
Rp754
ag1
(g5
S'A>m<'
p755
tp756
Rp757
ag1
(g5
S'\x80\xbem<'
p758
tp759
Rp760
ag1
(g5
S':\x83_<'
p761
tp762
Rp763
ag1
(g5
S'\xe9\x8cl<'
p764
tp765
Rp766
ag1
(g5
S'\xb5\x08o<'
p767
tp768
Rp769
ag1
(g5
S'\xaa\xadm<'
p770
tp771
Rp772
ag1
(g5
S'D\xb8g<'
p773
tp774
Rp775
ag1
(g5
S'\xa1\xbcy<'
p776
tp777
Rp778
ag1
(g5
S'w\xe7u<'
p779
tp780
Rp781
ag1
(g5
S'v\xc6]<'
p782
tp783
Rp784
ag1
(g5
S'c\x81m<'
p785
tp786
Rp787
ag1
(g5
S'\xcfSb<'
p788
tp789
Rp790
ag1
(g5
S'\xa03c<'
p791
tp792
Rp793
ag1
(g5
S'z\xfef<'
p794
tp795
Rp796
ag1
(g5
S'\xa9\xdd\x7f<'
p797
tp798
Rp799
ag1
(g5
S'vli<'
p800
tp801
Rp802
ag1
(g5
S'y\xc9g<'
p803
tp804
Rp805
ag1
(g5
S'\x82#l<'
p806
tp807
Rp808
ag1
(g5
S'\x01Ss<'
p809
tp810
Rp811
ag1
(g5
S'\xd0\xfdd<'
p812
tp813
Rp814
ag1
(g5
S'\x9d\xbau<'
p815
tp816
Rp817
ag1
(g5
S'N\x10f<'
p818
tp819
Rp820
ag1
(g5
S'\xa3do<'
p821
tp822
Rp823
ag1
(g5
S'\x95~d<'
p824
tp825
Rp826
ag1
(g5
S'9\x16j<'
p827
tp828
Rp829
ag1
(g5
S'.Ho<'
p830
tp831
Rp832
ag1
(g5
S'\x18\x04S<'
p833
tp834
Rp835
ag1
(g5
S'\xb4?i<'
p836
tp837
Rp838
ag1
(g5
S'\x02xr<'
p839
tp840
Rp841
ag1
(g5
S'\xda\xb1S<'
p842
tp843
Rp844
ag1
(g5
S'\x90\x00s<'
p845
tp846
Rp847
ag1
(g5
S'V\x89o<'
p848
tp849
Rp850
ag1
(g5
S'\xe0\x18T<'
p851
tp852
Rp853
ag1
(g5
S'\xa6\x0cq<'
p854
tp855
Rp856
ag1
(g5
S'Q\xb8n<'
p857
tp858
Rp859
ag1
(g5
S'7\xd8h<'
p860
tp861
Rp862
ag1
(g5
S'T\xd3s<'
p863
tp864
Rp865
ag1
(g5
S'\xe3\xd4Y<'
p866
tp867
Rp868
ag1
(g5
S'\x03{r<'
p869
tp870
Rp871
ag1
(g5
S'\xcb\xb0\x80<'
p872
tp873
Rp874
ag1
(g5
S'\xb6\xceo<'
p875
tp876
Rp877
ag1
(g5
S'\xbc=`<'
p878
tp879
Rp880
ag1
(g5
S'Cxz<'
p881
tp882
Rp883
ag1
(g5
S'D+d<'
p884
tp885
Rp886
ag1
(g5
S'\xfe{z<'
p887
tp888
Rp889
ag1
(g5
S'\x92lr<'
p890
tp891
Rp892
ag1
(g5
S'-vr<'
p893
tp894
Rp895
ag1
(g5
S'\x1c\x96p<'
p896
tp897
Rp898
ag1
(g5
S'\xce\x94s<'
p899
tp900
Rp901
ag1
(g5
S'"Vu<'
p902
tp903
Rp904
ag1
(g5
S'S x<'
p905
tp906
Rp907
ag1
(g5
S'\x0c\xfd`<'
p908
tp909
Rp910
ag1
(g5
S' \x89r<'
p911
tp912
Rp913
ag1
(g5
S'?_S<'
p914
tp915
Rp916
ag1
(g5
S'\xd9>k<'
p917
tp918
Rp919
ag1
(g5
S'\xc1|i<'
p920
tp921
Rp922
ag1
(g5
S'\xb8sj<'
p923
tp924
Rp925
ag1
(g5
S'\xc0\xc5v<'
p926
tp927
Rp928
ag1
(g5
S'\xea\x9a|<'
p929
tp930
Rp931
ag1
(g5
S'\x99a]<'
p932
tp933
Rp934
ag1
(g5
S'P\x8dc<'
p935
tp936
Rp937
ag1
(g5
S'n\tu<'
p938
tp939
Rp940
ag1
(g5
S'\xbb\x9bl<'
p941
tp942
Rp943
ag1
(g5
S'\x02Bm<'
p944
tp945
Rp946
ag1
(g5
S'D\x12_<'
p947
tp948
Rp949
ag1
(g5
S'J\x1fl<'
p950
tp951
Rp952
ag1
(g5
S'\xf2\xc7n<'
p953
tp954
Rp955
ag1
(g5
S'\xd1>m<'
p956
tp957
Rp958
ag1
(g5
S'\x8dEg<'
p959
tp960
Rp961
ag1
(g5
S'\xbb&y<'
p962
tp963
Rp964
ag1
(g5
S'\\\x83u<'
p965
tp966
Rp967
ag1
(g5
S'7U]<'
p968
tp969
Rp970
ag1
(g5
S'\x03 m<'
p971
tp972
Rp973
ag1
(g5
S'l\xc2a<'
p974
tp975
Rp976
ag1
(g5
S'\xf2\x8fb<'
p977
tp978
Rp979
ag1
(g5
S'\xc4xf<'
p980
tp981
Rp982
ag1
(g5
S'\xfb|\x7f<'
p983
tp984
Rp985
ag1
(g5
S'\xab\ti<'
p986
tp987
Rp988
ag1
(g5
S'8\x83g<'
p989
tp990
Rp991
ag1
(g5
S'\xd2\xaak<'
p992
tp993
Rp994
ag1
(g5
S'\x8f\xb9r<'
p995
tp996
Rp997
ag1
(g5
S'\xab\x85d<'
p998
tp999
Rp1000
ag1
(g5
S'6[u<'
p1001
tp1002
Rp1003
ag1
(g5
S'\xfc\xa8e<'
p1004
tp1005
Rp1006
ag1
(g5
S'\xb6\xf2n<'
p1007
tp1008
Rp1009
ag1
(g5
S'\xe7\xfac<'
p1010
tp1011
Rp1012
ag1
(g5
S'\xf6\xbci<'
p1013
tp1014
Rp1015
ag1
(g5
S'D\xcdn<'
p1016
tp1017
Rp1018
ag1
(g5
S'o\xb4R<'
p1019
tp1020
Rp1021
ag1
(g5
S'\xdb\xdfh<'
p1022
tp1023
Rp1024
ag1
(g5
S'0\tr<'
p1025
tp1026
Rp1027
ag1
(g5
S'\xc7%S<'
p1028
tp1029
Rp1030
ag1
(g5
S'\xe6or<'
p1031
tp1032
Rp1033
ag1
(g5
S'\xe5+o<'
p1034
tp1035
Rp1036
ag1
(g5
S'Z\xe4S<'
p1037
tp1038
Rp1039
ag1
(g5
S'\xcclp<'
p1040
tp1041
Rp1042
ag1
(g5
S'"0n<'
p1043
tp1044
Rp1045
ag1
(g5
S'\xdbNh<'
p1046
tp1047
Rp1048
ag1
(g5
S'\xa5Xs<'
p1049
tp1050
Rp1051
ag1
(g5
S'\x11@Y<'
p1052
tp1053
Rp1054
ag1
(g5
S'\xd3\xebq<'
p1055
tp1056
Rp1057
ag1
(g5
S'\x92}\x80<'
p1058
tp1059
Rp1060
ag1
(g5
S'\x11Fo<'
p1061
tp1062
Rp1063
ag1
(g5
S'e\xc2_<'
p1064
tp1065
Rp1066
ag1
(g5
S'z\xe4y<'
p1067
tp1068
Rp1069
ag1
(g5
S'#\xafc<'
p1070
tp1071
Rp1072
ag1
(g5
S'\xf2\xd1y<'
p1073
tp1074
Rp1075
ag1
(g5
S'\x9e\xfdq<'
p1076
tp1077
Rp1078
ag1
(g5
S'S#r<'
p1079
tp1080
Rp1081
ag1
(g5
S' \xffo<'
p1082
tp1083
Rp1084
ag1
(g5
S'\xd9\x15s<'
p1085
tp1086
Rp1087
ag1
(g5
S'\xa9\xdbt<'
p1088
tp1089
Rp1090
ag1
(g5
S'(dw<'
p1091
tp1092
Rp1093
ag1
(g5
S'?\x7f`<'
p1094
tp1095
Rp1096
ag1
(g5
S'\n\nr<'
p1097
tp1098
Rp1099
ag1
(g5
S'M\xd8R<'
p1100
tp1101
Rp1102
ag1
(g5
S'\x98\xdfj<'
p1103
tp1104
Rp1105
ag1
(g5
S'\xcf i<'
p1106
tp1107
Rp1108
ag1
(g5
S'\xc9\xcai<'
p1109
tp1110
Rp1111
ag1
(g5
S'\xed\x1av<'
p1112
tp1113
Rp1114
ag1
(g5
S'+:|<'
p1115
tp1116
Rp1117
ag1
(g5
S'`\xd7\\<'
p1118
tp1119
Rp1120
ag1
(g5
S'^Ec<'
p1121
tp1122
Rp1123
ag1
(g5
S'\xd7\xb0t<'
p1124
tp1125
Rp1126
ag1
(g5
S']\x1bl<'
p1127
tp1128
Rp1129
ag1
(g5
S'\x12\xe1l<'
p1130
tp1131
Rp1132
ag1
(g5
S'\xe5\x9e^<'
p1133
tp1134
Rp1135
ag1
(g5
S'\xa1\xb6k<'
p1136
tp1137
Rp1138
ag1
(g5
S'\xae\x1bn<'
p1139
tp1140
Rp1141
ag1
(g5
S'\xe3\xd7l<'
p1142
tp1143
Rp1144
ag1
(g5
S'\xc9\xe0f<'
p1145
tp1146
Rp1147
ag1
(g5
S'X\x89x<'
p1148
tp1149
Rp1150
ag1
(g5
S'w\xe6t<'
p1151
tp1152
Rp1153
ag1
(g5
S'\x81\xf9\\<'
p1154
tp1155
Rp1156
ag1
(g5
S'pvl<'
p1157
tp1158
Rp1159
ag1
(g5
S'\x8d}a<'
p1160
tp1161
Rp1162
ag1
(g5
S'\xec0b<'
p1163
tp1164
Rp1165
ag1
(g5
S'\xd6\x87e<'
p1166
tp1167
Rp1168
ag1
(g5
S'\x9b\t\x7f<'
p1169
tp1170
Rp1171
ag1
(g5
S'\xd2{h<'
p1172
tp1173
Rp1174
ag1
(g5
S'5\xe2f<'
p1175
tp1176
Rp1177
ag1
(g5
S'\xb2Nk<'
p1178
tp1179
Rp1180
ag1
(g5
S'\x86Kr<'
p1181
tp1182
Rp1183
ag1
(g5
S'\xe2\xe2c<'
p1184
tp1185
Rp1186
ag1
(g5
S'\xf7\xcct<'
p1187
tp1188
Rp1189
ag1
(g5
S'\xeb\x1de<'
p1190
tp1191
Rp1192
ag1
(g5
S'lbn<'
p1193
tp1194
Rp1195
ag1
(g5
S'\xf3\x85c<'
p1196
tp1197
Rp1198
ag1
(g5
S'\xd7\xfch<'
p1199
tp1200
Rp1201
ag1
(g5
S'"^n<'
p1202
tp1203
Rp1204
ag1
(g5
S'\x87\tR<'
p1205
tp1206
Rp1207
ag1
(g5
S'\xb0|h<'
p1208
tp1209
Rp1210
ag1
(g5
S'\xddsq<'
p1211
tp1212
Rp1213
ag1
(g5
S'\xf5\xcdR<'
p1214
tp1215
Rp1216
ag1
(g5
S'\xda\xd3q<'
p1217
tp1218
Rp1219
ag1
(g5
S'rpn<'
p1220
tp1221
Rp1222
ag1
(g5
S'\xa84S<'
p1223
tp1224
Rp1225
ag1
(g5
S'+\x18p<'
p1226
tp1227
Rp1228
ag1
(g5
S'>\x91m<'
p1229
tp1230
Rp1231
ag1
(g5
S'8\xfag<'
p1232
tp1233
Rp1234
ag1
(g5
S'\x96\xc9r<'
p1235
tp1236
Rp1237
ag1
(g5
S'\x8d\xbaX<'
p1238
tp1239
Rp1240
ag1
(g5
S'\x1d_q<'
p1241
tp1242
Rp1243
ag1
(g5
S'=*\x80<'
p1244
tp1245
Rp1246
ag1
(g5
S'\xc3\xaen<'
p1247
tp1248
Rp1249
ag1
(g5
S'\xfd5_<'
p1250
tp1251
Rp1252
ag1
(g5
S'Z\x0ey<'
p1253
tp1254
Rp1255
ag1
(g5
S'q:c<'
p1256
tp1257
Rp1258
ag1
(g5
S'mAy<'
p1259
tp1260
Rp1261
ag1
(g5
S'\x8e/q<'
p1262
tp1263
Rp1264
ag1
(g5
S'@hq<'
p1265
tp1266
Rp1267
ag1
(g5
S'#Jo<'
p1268
tp1269
Rp1270
ag1
(g5
S'\x02Or<'
p1271
tp1272
Rp1273
ag1
(g5
S'\x80@t<'
p1274
tp1275
Rp1276
ag1
(g5
S'E\xd6v<'
p1277
tp1278
Rp1279
ag1
(g5
S'\x82\x0f`<'
p1280
tp1281
Rp1282
ag1
(g5
S']\x8dq<'
p1283
tp1284
Rp1285
ag1
(g5
S'\x1e;R<'
p1286
tp1287
Rp1288
ag1
(g5
S'\xfc$j<'
p1289
tp1290
Rp1291
ag1
(g5
S'\xd8\x80h<'
p1292
tp1293
Rp1294
ag1
(g5
S'fFi<'
p1295
tp1296
Rp1297
ag1
(g5
S'}Qu<'
p1298
tp1299
Rp1300
ag1
(g5
S'\xa5\x85{<'
p1301
tp1302
Rp1303
ag1
(g5
S'n#\\<'
p1304
tp1305
Rp1306
ag1
(g5
S'\x9b\x8cb<'
p1307
tp1308
Rp1309
ag1
(g5
S'\xe4)t<'
p1310
tp1311
Rp1312
ag1
(g5
S'\x88\x96k<'
p1313
tp1314
Rp1315
ag1
(g5
S'\xc2"l<'
p1316
tp1317
Rp1318
ag1
(g5
S'\xac\xbd]<'
p1319
tp1320
Rp1321
ag1
(g5
S'<\xf9j<'
p1322
tp1323
Rp1324
ag1
(g5
S'\xe6\x80m<'
p1325
tp1326
Rp1327
ag1
(g5
S'\xbe\x16l<'
p1328
tp1329
Rp1330
ag1
(g5
S')\x0bf<'
p1331
tp1332
Rp1333
ag1
(g5
S'\xb4\x05x<'
p1334
tp1335
Rp1336
ag1
(g5
S'\x9f$t<'
p1337
tp1338
Rp1339
ag1
(g5
S'd`\\<'
p1340
tp1341
Rp1342
ag1
(g5
S'\xf9\xe3k<'
p1343
tp1344
Rp1345
ag1
(g5
S'\xf9\x9a`<'
p1346
tp1347
Rp1348
ag1
(g5
S'E\x9fa<'
p1349
tp1350
Rp1351
ag1
(g5
S'\x00\x12e<'
p1352
tp1353
Rp1354
ag1
(g5
S'uM~<'
p1355
tp1356
Rp1357
ag1
(g5
S'\xff\xd5g<'
p1358
tp1359
Rp1360
ag1
(g5
S'\xb7&f<'
p1361
tp1362
Rp1363
ag1
(g5
S']\xa1j<'
p1364
tp1365
Rp1366
ag1
(g5
S'r\xbbq<'
p1367
tp1368
Rp1369
ag1
(g5
S'\xd6qc<'
p1370
tp1371
Rp1372
ag1
(g5
S'\xc2\x08t<'
p1373
tp1374
Rp1375
ag1
(g5
S'r\xa4d<'
p1376
tp1377
Rp1378
ag1
(g5
S'\x84\x9dm<'
p1379
tp1380
Rp1381
ag1
(g5
S'\xb1\xe4b<'
p1382
tp1383
Rp1384
ag1
(g5
S'\x1c\x1bh<'
p1385
tp1386
Rp1387
ag1
(g5
S':\x90m<'
p1388
tp1389
Rp1390
ag1
(g5
S'\x89zQ<'
p1391
tp1392
Rp1393
ag1
(g5
S'\xe0\xb5g<'
p1394
tp1395
Rp1396
ag1
(g5
S'G\x95p<'
p1397
tp1398
Rp1399
ag1
(g5
S'\xac\x1bR<'
p1400
tp1401
Rp1402
ag1
(g5
S'n>q<'
p1403
tp1404
Rp1405
ag1
(g5
S'\xba\xcam<'
p1406
tp1407
Rp1408
ag1
(g5
S'\xbeQR<'
p1409
tp1410
Rp1411
ag1
(g5
S'PBo<'
p1412
tp1413
Rp1414
ag1
(g5
S'\xc2\xa4l<'
p1415
tp1416
Rp1417
ag1
(g5
S'\x87^g<'
p1418
tp1419
Rp1420
ag1
(g5
S'\xe0\xc0q<'
p1421
tp1422
Rp1423
ag1
(g5
S'\xac\xf4W<'
p1424
tp1425
Rp1426
ag1
(g5
S'\xa3xp<'
p1427
tp1428
Rp1429
ag1
(g5
S'Hp\x7f<'
p1430
tp1431
Rp1432
ag1
(g5
S'u\xe5m<'
p1433
tp1434
Rp1435
ag1
(g5
S'\x03x^<'
p1436
tp1437
Rp1438
ag1
(g5
S'\x10ix<'
p1439
tp1440
Rp1441
ag1
(g5
S'\xbb<b<'
p1442
tp1443
Rp1444
ag1
(g5
S's\xfbw<'
p1445
tp1446
Rp1447
ag1
(g5
S'\x84pp<'
p1448
tp1449
Rp1450
ag1
(g5
S'\x8a\xb0p<'
p1451
tp1452
Rp1453
ag1
(g5
S'\xf5\x80n<'
p1454
tp1455
Rp1456
ag1
(g5
S'k\xbaq<'
p1457
tp1458
Rp1459
ag1
(g5
S'\x14\xcfs<'
p1460
tp1461
Rp1462
ag1
(g5
S'\x06\xffu<'
p1463
tp1464
Rp1465
ag1
(g5
S'\xac-_<'
p1466
tp1467
Rp1468
ag1
(g5
S')\xcdp<'
p1469
tp1470
Rp1471
ag1
(g5
S'\xec\x97Q<'
p1472
tp1473
Rp1474
ag1
(g5
S'rPi<'
p1475
tp1476
Rp1477
ag1
(g5
S'\x92\xbfg<'
p1478
tp1479
Rp1480
ag1
(g5
S'\xecmh<'
p1481
tp1482
Rp1483
ag1
(g5
S'W\x9at<'
p1484
tp1485
Rp1486
ag1
(g5
S'\xba\x9cz<'
p1487
tp1488
Rp1489
ag1
(g5
S'U\xcfZ<'
p1490
tp1491
Rp1492
ag1
(g5
S'\xfc\xcfa<'
p1493
tp1494
Rp1495
ag1
(g5
S'\x99as<'
p1496
tp1497
Rp1498
ag1
(g5
S'I\xc2j<'
p1499
tp1500
Rp1501
ag1
(g5
S'\x86&k<'
p1502
tp1503
Rp1504
ag1
(g5
S'\xc8\xf4\\<'
p1505
tp1506
Rp1507
ag1
(g5
S'\x8b(j<'
p1508
tp1509
Rp1510
ag1
(g5
S'\xfavl<'
p1511
tp1512
Rp1513
ag1
(g5
S'\xc2Vk<'
p1514
tp1515
Rp1516
ag1
(g5
S'\x14+e<'
p1517
tp1518
Rp1519
ag1
(g5
S'Y\x04w<'
p1520
tp1521
Rp1522
ag1
(g5
S'L\x05s<'
p1523
tp1524
Rp1525
ag1
(g5
S'\x08}[<'
p1526
tp1527
Rp1528
ag1
(g5
S'[\x07k<'
p1529
tp1530
Rp1531
ag1
(g5
S'\x8d\xdd_<'
p1532
tp1533
Rp1534
ag1
(g5
S'\xa9\xce`<'
p1535
tp1536
Rp1537
ag1
(g5
S'S\x0fd<'
p1538
tp1539
Rp1540
ag1
(g5
S';*}<'
p1541
tp1542
Rp1543
ag1
(g5
S'\x0f\xe2f<'
p1544
tp1545
Rp1546
ag1
(g5
S'o4e<'
p1547
tp1548
Rp1549
ag1
(g5
S'"\x83i<'
p1550
tp1551
Rp1552
ag1
(g5
S'\x81\xd1p<'
p1553
tp1554
Rp1555
ag1
(g5
S'2\x9ab<'
p1556
tp1557
Rp1558
ag1
(g5
S'\xf9\x07s<'
p1559
tp1560
Rp1561
ag1
(g5
S'\x17`c<'
p1562
tp1563
Rp1564
ag1
(g5
S'h\xc8l<'
p1565
tp1566
Rp1567
ag1
(g5
S'\r\xd7a<'
p1568
tp1569
Rp1570
ag1
(g5
S'\x1a\x00g<'
p1571
tp1572
Rp1573
ag1
(g5
S'\n\xbfl<'
p1574
tp1575
Rp1576
ag1
(g5
S'\xb4ZP<'
p1577
tp1578
Rp1579
ag1
(g5
S':\xabf<'
p1580
tp1581
Rp1582
ag1
(g5
S'Q3o<'
p1583
tp1584
Rp1585
ag1
(g5
S'G\xecP<'
p1586
tp1587
Rp1588
ag1
(g5
S'\xd1$p<'
p1589
tp1590
Rp1591
ag1
(g5
S'5\xcfl<'
p1592
tp1593
Rp1594
ag1
(g5
S'\x85-Q<'
p1595
tp1596
Rp1597
ag1
(g5
S'j+n<'
p1598
tp1599
Rp1600
ag1
(g5
S'\x8b\x8dk<'
p1601
tp1602
Rp1603
ag1
(g5
S'\x8fFf<'
p1604
tp1605
Rp1606
ag1
(g5
S'\x96\xc0p<'
p1607
tp1608
Rp1609
ag1
(g5
S'`\x1dW<'
p1610
tp1611
Rp1612
ag1
(g5
S'{\x8do<'
p1613
tp1614
Rp1615
ag1
(g5
S'S\x07~<'
p1616
tp1617
Rp1618
ag1
(g5
S'\xc1\xd7l<'
p1619
tp1620
Rp1621
ag1
(g5
S'\xebO]<'
p1622
tp1623
Rp1624
ag1
(g5
S'\x0f1w<'
p1625
tp1626
Rp1627
ag1
(g5
S'\xfbja<'
p1628
tp1629
Rp1630
ag1
(g5
S'\x8b\xafv<'
p1631
tp1632
Rp1633
ag1
(g5
S'\x9a3o<'
p1634
tp1635
Rp1636
ag1
(g5
S'\x88\x88o<'
p1637
tp1638
Rp1639
ag1
(g5
S'\x80\x19m<'
p1640
tp1641
Rp1642
ag1
(g5
S'\xce\xabp<'
p1643
tp1644
Rp1645
ag1
(g5
S'\x8f\xa9r<'
p1646
tp1647
Rp1648
ag1
(g5
S'0\xc6t<'
p1649
tp1650
Rp1651
ag1
(g5
S'\x8a6^<'
p1652
tp1653
Rp1654
ag1
(g5
S'\x02\xf0o<'
p1655
tp1656
Rp1657
ag1
(g5
S'f\xa9P<'
p1658
tp1659
Rp1660
ag1
(g5
S'\xb6)h<'
p1661
tp1662
Rp1663
ag1
(g5
S'\xdb\xc4f<'
p1664
tp1665
Rp1666
ag1
(g5
S'\x05Fg<'
p1667
tp1668
Rp1669
ag1
(g5
S'\xee\x85s<'
p1670
tp1671
Rp1672
ag1
(g5
S'\xc3Wy<'
p1673
tp1674
Rp1675
ag1
(g5
S'\xe9dY<'
p1676
tp1677
Rp1678
ag1
(g5
S'.O`<'
p1679
tp1680
Rp1681
ag1
(g5
S'\x8b\x1ar<'
p1682
tp1683
Rp1684
ag1
(g5
S'\xf9\xb9i<'
p1685
tp1686
Rp1687
ag1
(g5
S'v\xa8i<'
p1688
tp1689
Rp1690
ag1
(g5
S'\x0b_[<'
p1691
tp1692
Rp1693
ag1
(g5
S'ejh<'
p1694
tp1695
Rp1696
ag1
(g5
S'\xe7\x08k<'
p1697
tp1698
Rp1699
ag1
(g5
S'Z\rj<'
p1700
tp1701
Rp1702
ag1
(g5
S'1\xb5c<'
p1703
tp1704
Rp1705
ag1
(g5
S'(\xf3u<'
p1706
tp1707
Rp1708
ag1
(g5
S'\x15\x87q<'
p1709
tp1710
Rp1711
ag1
(g5
S'tfZ<'
p1712
tp1713
Rp1714
ag1
(g5
S'\x1fyi<'
p1715
tp1716
Rp1717
ag1
(g5
S'd\xa6^<'
p1718
tp1719
Rp1720
ag1
(g5
S'\xee\x8c_<'
p1721
tp1722
Rp1723
ag1
(g5
S'z\x88b<'
p1724
tp1725
Rp1726
ag1
(g5
S'e\xaa{<'
p1727
tp1728
Rp1729
ag1
(g5
S'\xbe\x96e<'
p1730
tp1731
Rp1732
ag1
(g5
S'\x01\xa0c<'
p1733
tp1734
Rp1735
ag1
(g5
S'\xcaFh<'
p1736
tp1737
Rp1738
ag1
(g5
S'f\x94o<'
p1739
tp1740
Rp1741
ag1
(g5
S'tYa<'
p1742
tp1743
Rp1744
ag1
(g5
S'\x13\xbbq<'
p1745
tp1746
Rp1747
ag1
(g5
S'\xc9)b<'
p1748
tp1749
Rp1750
ag1
(g5
S'=?k<'
p1751
tp1752
Rp1753
ag1
(g5
S'\xa8\x8f`<'
p1754
tp1755
Rp1756
ag1
(g5
S'*[e<'
p1757
tp1758
Rp1759
ag1
(g5
S'\x06lk<'
p1760
tp1761
Rp1762
ag1
(g5
S'U\xe8N<'
p1763
tp1764
Rp1765
ag1
(g5
S'\r\x86e<'
p1766
tp1767
Rp1768
ag1
(g5
S'\xc1\xa5m<'
p1769
tp1770
Rp1771
ag1
(g5
S'&\xb3O<'
p1772
tp1773
Rp1774
ag1
(g5
S'\x7f\x85n<'
p1775
tp1776
Rp1777
ag1
(g5
S'@\xb4k<'
p1778
tp1779
Rp1780
ag1
(g5
S'\xad\xd9O<'
p1781
tp1782
Rp1783
ag1
(g5
S'W\xd5l<'
p1784
tp1785
Rp1786
ag1
(g5
S'\xe6\xf1i<'
p1787
tp1788
Rp1789
ag1
(g5
S'\x8c\x00e<'
p1790
tp1791
Rp1792
ag1
(g5
S'\xa1;o<'
p1793
tp1794
Rp1795
ag1
(g5
S'\x01\xccU<'
p1796
tp1797
Rp1798
ag1
(g5
S'.,n<'
p1799
tp1800
Rp1801
ag1
(g5
S'p\x8c|<'
p1802
tp1803
Rp1804
ag1
(g5
S'\xa8rk<'
p1805
tp1806
Rp1807
ag1
(g5
S'\x9c\xcf[<'
p1808
tp1809
Rp1810
ag1
(g5
S'\xb4\x86u<'
p1811
tp1812
Rp1813
ag1
(g5
S'j\xaf_<'
p1814
tp1815
Rp1816
ag1
(g5
S'(\x19u<'
p1817
tp1818
Rp1819
ag1
(g5
S'\xd4\x9dm<'
p1820
tp1821
Rp1822
ag1
(g5
S'\xe1\x13n<'
p1823
tp1824
Rp1825
ag1
(g5
S'\xe6\x98k<'
p1826
tp1827
Rp1828
ag1
(g5
S'\xdf=o<'
p1829
tp1830
Rp1831
ag1
(g5
S'\x92Zq<'
p1832
tp1833
Rp1834
ag1
(g5
S'.cs<'
p1835
tp1836
Rp1837
ag1
(g5
S'\xb1\xf1\\<'
p1838
tp1839
Rp1840
ag1
(g5
S'\x8f\xb1n<'
p1841
tp1842
Rp1843
ag1
(g5
S':FO<'
p1844
tp1845
Rp1846
ag1
(g5
S'\x7f\xbef<'
p1847
tp1848
Rp1849
ag1
(g5
S'\x86xe<'
p1850
tp1851
Rp1852
ag1
(g5
S'\xd0\xbbe<'
p1853
tp1854
Rp1855
ag1
(g5
S'T\xf1q<'
p1856
tp1857
Rp1858
ag1
(g5
S'\xba\xfew<'
p1859
tp1860
Rp1861
ag1
(g5
S'@\xa8W<'
p1862
tp1863
Rp1864
ag1
(g5
S'\x85\xdb^<'
p1865
tp1866
Rp1867
ag1
(g5
S'~\x8dp<'
p1868
tp1869
Rp1870
ag1
(g5
S'\xaafh<'
p1871
tp1872
Rp1873
ag1
(g5
S'P\xe9g<'
p1874
tp1875
Rp1876
ag1
(g5
S'q\xe3Y<'
p1877
tp1878
Rp1879
ag1
(g5
S'\xc61g<'
p1880
tp1881
Rp1882
ag1
(g5
S'd]i<'
p1883
tp1884
Rp1885
ag1
(g5
S'Lmh<'
p1886
tp1887
Rp1888
ag1
(g5
S'\xfe\xfaa<'
p1889
tp1890
Rp1891
ag1
(g5
S',zt<'
p1892
tp1893
Rp1894
ag1
(g5
S'H\xado<'
p1895
tp1896
Rp1897
ag1
(g5
S'9!Y<'
p1898
tp1899
Rp1900
ag1
(g5
S'g\xe3g<'
p1901
tp1902
Rp1903
ag1
(g5
S'\xa3\x0b]<'
p1904
tp1905
Rp1906
ag1
(g5
S'\x0ff^<'
p1907
tp1908
Rp1909
ag1
(g5
S'n\xd9`<'
p1910
tp1911
Rp1912
ag1
(g5
S'qLz<'
p1913
tp1914
Rp1915
ag1
(g5
S'\x8c&d<'
p1916
tp1917
Rp1918
ag1
(g5
S'\x98jb<'
p1919
tp1920
Rp1921
ag1
(g5
S'\x8c\xb5f<'
p1922
tp1923
Rp1924
ag1
(g5
S'\r\x89n<'
p1925
tp1926
Rp1927
ag1
(g5
S'\x84\x0e`<'
p1928
tp1929
Rp1930
ag1
(g5
S"\xc9'p<"
p1931
tp1932
Rp1933
ag1
(g5
S'8+a<'
p1934
tp1935
Rp1936
ag1
(g5
S'\xf7ei<'
p1937
tp1938
Rp1939
ag1
(g5
S'\x13\x17_<'
p1940
tp1941
Rp1942
ag1
(g5
S'\xc8\xbec<'
p1943
tp1944
Rp1945
ag1
(g5
S'\xae\x0ej<'
p1946
tp1947
Rp1948
ag1
(g5
S'\xadbM<'
p1949
tp1950
Rp1951
ag1
(g5
S'43d<'
p1952
tp1953
Rp1954
ag1
(g5
S'4\xc5k<'
p1955
tp1956
Rp1957
ag1
(g5
S'6ON<'
p1958
tp1959
Rp1960
ag1
(g5
S'\x96>m<'
p1961
tp1962
Rp1963
ag1
(g5
S'\x81<j<'
p1964
tp1965
Rp1966
ag1
(g5
S'\xfcPN<'
p1967
tp1968
Rp1969
ag1
(g5
S'\x1f6k<'
p1970
tp1971
Rp1972
ag1
(g5
S'p\x96h<'
p1973
tp1974
Rp1975
ag1
(g5
S'6\x95c<'
p1976
tp1977
Rp1978
ag1
(g5
S'\x9blm<'
p1979
tp1980
Rp1981
ag1
(g5
S'l\x9dT<'
p1982
tp1983
Rp1984
ag1
(g5
S'\xb0\xabl<'
p1985
tp1986
Rp1987
ag1
(g5
S'=\xcfz<'
p1988
tp1989
Rp1990
ag1
(g5
S'O\x1bj<'
p1991
tp1992
Rp1993
ag1
(g5
S'\x8b[Z<'
p1994
tp1995
Rp1996
ag1
(g5
S's\xa1s<'
p1997
tp1998
Rp1999
ag1
(g5
S'\x97>^<'
p2000
tp2001
Rp2002
ag1
(g5
S'\nJs<'
p2003
tp2004
Rp2005
ag1
(g5
S'\xdd\xb3k<'
p2006
tp2007
Rp2008
ag1
(g5
S'\x05\x83l<'
p2009
tp2010
Rp2011
ag1
(g5
S'\xf6\xefi<'
p2012
tp2013
Rp2014
ag1
(g5
S'\xdf\xbfm<'
p2015
tp2016
Rp2017
ag1
(g5
S'\xbe\xf2o<'
p2018
tp2019
Rp2020
ag1
(g5
S'\xdc\x85q<'
p2021
tp2022
Rp2023
ag1
(g5
S'\x9d\xd5[<'
p2024
tp2025
Rp2026
ag1
(g5
S'K7m<'
p2027
tp2028
Rp2029
ag1
(g5
S'L\xfcM<'
p2030
tp2031
Rp2032
ag1
(g5
S'\xe9\x19e<'
p2033
tp2034
Rp2035
ag1
(g5
S'\x9d\xe9c<'
p2036
tp2037
Rp2038
ag1
(g5
S'|Pd<'
p2039
tp2040
Rp2041
ag1
(g5
S'\x15"p<'
p2042
tp2043
Rp2044
ag1
(g5
S'Sqv<'
p2045
tp2046
Rp2047
ag1
(g5
S'\xf3\xc1U<'
p2048
tp2049
Rp2050
ag1
(g5
S'0\x8e]<'
p2051
tp2052
Rp2053
ag1
(g5
S'\x9b\x0co<'
p2054
tp2055
Rp2056
ag1
(g5
S'\xdd\xbaf<'
p2057
tp2058
Rp2059
ag1
(g5
S'O,f<'
p2060
tp2061
Rp2062
ag1
(g5
S'\xd5\xdbW<'
p2063
tp2064
Rp2065
ag1
(g5
S'ije<'
p2066
tp2067
Rp2068
ag1
(g5
S'v\xceg<'
p2069
tp2070
Rp2071
ag1
(g5
S'\xef\xe1f<'
p2072
tp2073
Rp2074
ag1
(g5
S'N,`<'
p2075
tp2076
Rp2077
ag1
(g5
S'\xda\xa0r<'
p2078
tp2079
Rp2080
ag1
(g5
S'`\xa9m<'
p2081
tp2082
Rp2083
ag1
(g5
S'\x1c\xe5W<'
p2084
tp2085
Rp2086
ag1
(g5
S'TRf<'
p2087
tp2088
Rp2089
ag1
(g5
S'\x84\x9b[<'
p2090
tp2091
Rp2092
ag1
(g5
S'\xaf\xf0\\<'
p2093
tp2094
Rp2095
ag1
(g5
S'\xe0\xf4^<'
p2096
tp2097
Rp2098
ag1
(g5
S'\xce\x97x<'
p2099
tp2100
Rp2101
ag1
(g5
S'\x9a\x8cb<'
p2102
tp2103
Rp2104
ag1
(g5
S'\xad\xcb`<'
p2105
tp2106
Rp2107
ag1
(g5
S'U\x1ee<'
p2108
tp2109
Rp2110
ag1
(g5
S'\x1c\x00m<'
p2111
tp2112
Rp2113
ag1
(g5
S';L^<'
p2114
tp2115
Rp2116
ag1
(g5
S'hKn<'
p2117
tp2118
Rp2119
ag1
(g5
S'`c_<'
p2120
tp2121
Rp2122
ag1
(g5
S'Y\xe3g<'
p2123
tp2124
Rp2125
ag1
(g5
S'\xdcn]<'
p2126
tp2127
Rp2128
ag1
(g5
S'\x16\xb0a<'
p2129
tp2130
Rp2131
ag1
(g5
S'\xc9ch<'
p2132
tp2133
Rp2134
ag1
(g5
S'\xb5\x9dK<'
p2135
tp2136
Rp2137
ag1
(g5
S'\x96\xcfb<'
p2138
tp2139
Rp2140
ag1
(g5
S'\xd6\x1bj<'
p2141
tp2142
Rp2143
ag1
(g5
S'+\xc3L<'
p2144
tp2145
Rp2146
ag1
(g5
S'\xc6\xb5k<'
p2147
tp2148
Rp2149
ag1
(g5
S'\\|h<'
p2150
tp2151
Rp2152
ag1
(g5
S'zhL<'
p2153
tp2154
Rp2155
ag1
(g5
S'\xfe\x90i<'
p2156
tp2157
Rp2158
ag1
(g5
S'\xb4\xcef<'
p2159
tp2160
Rp2161
ag1
(g5
S'\xb0\xcea<'
p2162
tp2163
Rp2164
ag1
(g5
S'\x8eUk<'
p2165
tp2166
Rp2167
ag1
(g5
S'\xb6\x0bS<'
p2168
tp2169
Rp2170
ag1
(g5
S'\xad\x04k<'
p2171
tp2172
Rp2173
ag1
(g5
S'G"y<'
p2174
tp2175
Rp2176
ag1
(g5
S'\xa8eh<'
p2177
tp2178
Rp2179
ag1
(g5
S'\xa8\x81X<'
p2180
tp2181
Rp2182
ag1
(g5
S'\xd4\x0fr<'
p2183
tp2184
Rp2185
ag1
(g5
S'\x93W\\<'
p2186
tp2187
Rp2188
ag1
(g5
S'\x0c\x15q<'
p2189
tp2190
Rp2191
ag1
(g5
S'\x13\x86i<'
p2192
tp2193
Rp2194
ag1
(g5
S'P\x1ek<'
p2195
tp2196
Rp2197
ag1
(g5
S'\xf1\x1bh<'
p2198
tp2199
Rp2200
ag1
(g5
S'jXl<'
p2201
tp2202
Rp2203
ag1
(g5
S'\x90Mn<'
p2204
tp2205
Rp2206
ag1
(g5
S'\x02\xf2o<'
p2207
tp2208
Rp2209
ag1
(g5
S'<\x1aZ<'
p2210
tp2211
Rp2212
ag1
(g5
S'?\x8ck<'
p2213
tp2214
Rp2215
ag1
(g5
S'\x8fUL<'
p2216
tp2217
Rp2218
ag1
(g5
S'!\x85c<'
p2219
tp2220
Rp2221
ag1
(g5
S'\xc1>b<'
p2222
tp2223
Rp2224
ag1
(g5
S'\xd3\x92b<'
p2225
tp2226
Rp2227
ag1
(g5
S'T~n<'
p2228
tp2229
Rp2230
ag1
(g5
S'\xe6\xf1t<'
p2231
tp2232
Rp2233
ag1
(g5
S'}\x03T<'
p2234
tp2235
Rp2236
ag1
(g5
S'\xddw[<'
p2237
tp2238
Rp2239
ag1
(g5
S'[(m<'
p2240
tp2241
Rp2242
ag1
(g5
S'\xf5Ne<'
p2243
tp2244
Rp2245
ag1
(g5
S'\xd0\xfbc<'
p2246
tp2247
Rp2248
ag1
(g5
S'\xb3\xd0U<'
p2249
tp2250
Rp2251
ag1
(g5
S'\xa4\x85c<'
p2252
tp2253
Rp2254
ag1
(g5
S'\x16\x00f<'
p2255
tp2256
Rp2257
ag1
(g5
S'\xc1\x15e<'
p2258
tp2259
Rp2260
ag1
(g5
S'\xc8|^<'
p2261
tp2262
Rp2263
ag1
(g5
S'e\x1dq<'
p2264
tp2265
Rp2266
ag1
(g5
S'2yk<'
p2267
tp2268
Rp2269
ag1
(g5
S'Q\x1dV<'
p2270
tp2271
Rp2272
ag1
(g5
S'Mld<'
p2273
tp2274
Rp2275
ag1
(g5
S'\xf2\xcdY<'
p2276
tp2277
Rp2278
ag1
(g5
S'n\x1e[<'
p2279
tp2280
Rp2281
ag1
(g5
S'\xedR]<'
p2282
tp2283
Rp2284
ag1
(g5
S'\x02\xfav<'
p2285
tp2286
Rp2287
ag1
(g5
S'[\xf6`<'
p2288
tp2289
Rp2290
ag1
(g5
S'<\x0b_<'
p2291
tp2292
Rp2293
ag1
(g5
S'Q\xccc<'
p2294
tp2295
Rp2296
ag1
(g5
S'\xdbpk<'
p2297
tp2298
Rp2299
ag1
(g5
S'\xf1\xb4\\<'
p2300
tp2301
Rp2302
ag1
(g5
S'\x8f\xe2l<'
p2303
tp2304
Rp2305
ag1
(g5
S'[\xc5]<'
p2306
tp2307
Rp2308
ag1
(g5
S'5@f<'
p2309
tp2310
Rp2311
ag1
(g5
S'\xf2\x0f\\<'
p2312
tp2313
Rp2314
ag1
(g5
S'\xb5\xd2_<'
p2315
tp2316
Rp2317
ag1
(g5
S'N\xa4f<'
p2318
tp2319
Rp2320
ag1
(g5
S'\x8b\tJ<'
p2321
tp2322
Rp2323
ag1
(g5
S'\xbc$a<'
p2324
tp2325
Rp2326
ag1
(g5
S'OGh<'
p2327
tp2328
Rp2329
ag1
(g5
S'\x80\xffJ<'
p2330
tp2331
Rp2332
ag1
(g5
S'k\x05j<'
p2333
tp2334
Rp2335
ag1
(g5
S'T#g<'
p2336
tp2337
Rp2338
ag1
(g5
S'\xe5\xbeJ<'
p2339
tp2340
Rp2341
ag1
(g5
S'^\xceg<'
p2342
tp2343
Rp2344
ag1
(g5
S'\\Ee<'
p2345
tp2346
Rp2347
ag1
(g5
S'\\K`<'
p2348
tp2349
Rp2350
ag1
(g5
S'\x89\xabi<'
p2351
tp2352
Rp2353
ag1
(g5
S'\xdb]Q<'
p2354
tp2355
Rp2356
ag1
(g5
S'\r\x10i<'
p2357
tp2358
Rp2359
ag1
(g5
S'\xa8Yw<'
p2360
tp2361
Rp2362
ag1
(g5
S'\xd2\xebf<'
p2363
tp2364
Rp2365
ag1
(g5
S'.*W<'
p2366
tp2367
Rp2368
ag1
(g5
S'\x8e\xddo<'
p2369
tp2370
Rp2371
ag1
(g5
S'5\x86Z<'
p2372
tp2373
Rp2374
ag1
(g5
S'\x80\x15o<'
p2375
tp2376
Rp2377
ag1
(g5
S'\x94\x97g<'
p2378
tp2379
Rp2380
ag1
(g5
S' \x81i<'
p2381
tp2382
Rp2383
ag1
(g5
S'\xfb\xcae<'
p2384
tp2385
Rp2386
ag1
(g5
S'\x1a\xa6j<'
p2387
tp2388
Rp2389
ag1
(g5
S'P\xf8l<'
p2390
tp2391
Rp2392
ag1
(g5
S'W\x0bn<'
p2393
tp2394
Rp2395
ag1
(g5
S'\xac\x8dX<'
p2396
tp2397
Rp2398
ag1
(g5
S']\xb5i<'
p2399
tp2400
Rp2401
ag1
(g5
S'\xe0\xb9J<'
p2402
tp2403
Rp2404
ag1
(g5
S'\xae\xbaa<'
p2405
tp2406
Rp2407
ag1
(g5
S'\xf0\x83`<'
p2408
tp2409
Rp2410
ag1
(g5
S'\xf34a<'
p2411
tp2412
Rp2413
ag1
(g5
S'jkl<'
p2414
tp2415
Rp2416
ag1
(g5
S'U#s<'
p2417
tp2418
Rp2419
ag1
(g5
S'\xa7\x19R<'
p2420
tp2421
Rp2422
ag1
(g5
S'\xf6\x0cZ<'
p2423
tp2424
Rp2425
ag1
(g5
S'\xa6/k<'
p2426
tp2427
Rp2428
ag1
(g5
S']}c<'
p2429
tp2430
Rp2431
ag1
(g5
S',\xf0a<'
p2432
tp2433
Rp2434
ag1
(g5
S'\xd1\xbeS<'
p2435
tp2436
Rp2437
ag1
(g5
S'\xabRa<'
p2438
tp2439
Rp2440
ag1
(g5
S'\xfd\xc3d<'
p2441
tp2442
Rp2443
ag1
(g5
S'\xa7Lc<'
p2444
tp2445
Rp2446
ag1
(g5
S'\xad\xb1\\<'
p2447
tp2448
Rp2449
ag1
(g5
S'\xcd\x0bo<'
p2450
tp2451
Rp2452
ag1
(g5
S'\xd7\xb5i<'
p2453
tp2454
Rp2455
ag1
(g5
S'\x04\x0cT<'
p2456
tp2457
Rp2458
ag1
(g5
S'csb<'
p2459
tp2460
Rp2461
ag1
(g5
S'\xc6\xb4W<'
p2462
tp2463
Rp2464
ag1
(g5
S'\xff\x14Y<'
p2465
tp2466
Rp2467
ag1
(g5
S'\x7fl[<'
p2468
tp2469
Rp2470
ag1
(g5
S'\x12\xf2t<'
p2471
tp2472
Rp2473
ag1
(g5
S'\xdd\xf6^<'
p2474
tp2475
Rp2476
ag1
(g5
S'\x95 ]<'
p2477
tp2478
Rp2479
ag1
(g5
S'\xc2\xfba<'
p2480
tp2481
Rp2482
ag1
(g5
S'?\xdai<'
p2483
tp2484
Rp2485
ag1
(g5
S'0\xe2Z<'
p2486
tp2487
Rp2488
ag1
(g5
S'\x12#k<'
p2489
tp2490
Rp2491
ag1
(g5
S'C\xd3[<'
p2492
tp2493
Rp2494
ag1
(g5
S'\xba2d<'
p2495
tp2496
Rp2497
ag1
(g5
S'\xef\x0fZ<'
p2498
tp2499
Rp2500
ag1
(g5
S'\xae\xc7]<'
p2501
tp2502
Rp2503
ag1
(g5
S'\xf9\xc8d<'
p2504
tp2505
Rp2506
ag1
(g5
S'\x1bhH<'
p2507
tp2508
Rp2509
ag1
(g5
S'+W_<'
p2510
tp2511
Rp2512
ag1
(g5
S'\x87\x18f<'
p2513
tp2514
Rp2515
ag1
(g5
S'\x0e\x17I<'
p2516
tp2517
Rp2518
ag1
(g5
S'\x8aAh<'
p2519
tp2520
Rp2521
ag1
(g5
S'\t_e<'
p2522
tp2523
Rp2524
ag1
(g5
S't\x1aI<'
p2525
tp2526
Rp2527
ag1
(g5
S'\x8cDf<'
p2528
tp2529
Rp2530
ag1
(g5
S'\x88\x89c<'
p2531
tp2532
Rp2533
ag1
(g5
S'\x81\xcd^<'
p2534
tp2535
Rp2536
ag1
(g5
S'\xefgg<'
p2537
tp2538
Rp2539
ag1
(g5
S'\xa3;P<'
p2540
tp2541
Rp2542
ag1
(g5
S'\x84\xd5f<'
p2543
tp2544
Rp2545
ag1
(g5
S'\xee\tu<'
p2546
tp2547
Rp2548
ag1
(g5
S'\xf8\xfed<'
p2549
tp2550
Rp2551
ag1
(g5
S'\x9djU<'
p2552
tp2553
Rp2554
ag1
(g5
S'\x863n<'
p2555
tp2556
Rp2557
ag1
(g5
S'\xd0tX<'
p2558
tp2559
Rp2560
ag1
(g5
S'\xc4\x18m<'
p2561
tp2562
Rp2563
ag1
(g5
S'\xf3\x90e<'
p2564
tp2565
Rp2566
ag1
(g5
S'\xb6\x8cg<'
p2567
tp2568
Rp2569
ag1
(g5
S'o\xacc<'
p2570
tp2571
Rp2572
ag1
(g5
S')\xc2h<'
p2573
tp2574
Rp2575
ag1
(g5
S'\x14tk<'
p2576
tp2577
Rp2578
ag1
(g5
S'\x90@l<'
p2579
tp2580
Rp2581
ag1
(g5
S'f\xb0V<'
p2582
tp2583
Rp2584
ag1
(g5
S'\x05\xa7g<'
p2585
tp2586
Rp2587
ag1
(g5
S'{0I<'
p2588
tp2589
Rp2590
ag1
(g5
S'\xef\xf6_<'
p2591
tp2592
Rp2593
ag1
(g5
S'\xb3a^<'
p2594
tp2595
Rp2596
ag1
(g5
S'\xda@_<'
p2597
tp2598
Rp2599
ag1
(g5
S'\x08>j<'
p2600
tp2601
Rp2602
ag1
(g5
S'\xb1\x1cq<'
p2603
tp2604
Rp2605
ag1
(g5
S'-8P<'
p2606
tp2607
Rp2608
ag1
(g5
S'\xe7\x07X<'
p2609
tp2610
Rp2611
ag1
(g5
S'2gi<'
p2612
tp2613
Rp2614
ag1
(g5
S'c\xa3a<'
p2615
tp2616
Rp2617
ag1
(g5
S'\xf9\xbc_<'
p2618
tp2619
Rp2620
ag1
(g5
S'baQ<'
p2621
tp2622
Rp2623
ag1
(g5
S'V[_<'
p2624
tp2625
Rp2626
ag1
(g5
S'\x1a\x0fc<'
p2627
tp2628
Rp2629
ag1
(g5
S'A\x84a<'
p2630
tp2631
Rp2632
ag1
(g5
S'sxZ<'
p2633
tp2634
Rp2635
ag1
(g5
S'c"m<'
p2636
tp2637
Rp2638
ag1
(g5
S'Y_g<'
p2639
tp2640
Rp2641
ag1
(g5
S'\x9aZR<'
p2642
tp2643
Rp2644
ag1
(g5
S'\x94&`<'
p2645
tp2646
Rp2647
ag1
(g5
S'\xed\x9fU<'
p2648
tp2649
Rp2650
ag1
(g5
S'B\x9cW<'
p2651
tp2652
Rp2653
ag1
(g5
S'\x1fHY<'
p2654
tp2655
Rp2656
ag1
(g5
S'8\xe6r<'
p2657
tp2658
Rp2659
ag1
(g5
S'\x84;]<'
p2660
tp2661
Rp2662
ag1
(g5
S'\x84p[<'
p2663
tp2664
Rp2665
ag1
(g5
S'S\x14`<'
p2666
tp2667
Rp2668
ag1
(g5
S'y*h<'
p2669
tp2670
Rp2671
ag1
(g5
S'W\x14Y<'
p2672
tp2673
Rp2674
ag1
(g5
S'\xae-i<'
p2675
tp2676
Rp2677
ag1
(g5
S'\xac~Y<'
p2678
tp2679
Rp2680
ag1
(g5
S'\nhb<'
p2681
tp2682
Rp2683
ag1
(g5
S'\xf32X<'
p2684
tp2685
Rp2686
ag1
(g5
S'n\x9f[<'
p2687
tp2688
Rp2689
ag1
(g5
S'\x0f/c<'
p2690
tp2691
Rp2692
ag1
(g5
S'\xfc\xd3E<'
p2693
tp2694
Rp2695
ag1
(g5
S'\r\n]<'
p2696
tp2697
Rp2698
ag1
(g5
S'/Vd<'
p2699
tp2700
Rp2701
ag1
(g5
S'\xc1 G<'
p2702
tp2703
Rp2704
ag1
(g5
S'f1f<'
p2705
tp2706
Rp2707
ag1
(g5
S'\xc9\x8fc<'
p2708
tp2709
Rp2710
ag1
(g5
S'j\xd2F<'
p2711
tp2712
Rp2713
ag1
(g5
S'\x01\x8ed<'
p2714
tp2715
Rp2716
ag1
(g5
S'\x91\x92a<'
p2717
tp2718
Rp2719
ag1
(g5
S'@\xb2\\<'
p2720
tp2721
Rp2722
ag1
(g5
S'\xda\x82e<'
p2723
tp2724
Rp2725
ag1
(g5
S'\n=N<'
p2726
tp2727
Rp2728
ag1
(g5
S'\x9a\xb7d<'
p2729
tp2730
Rp2731
ag1
(g5
S'\xc1-s<'
p2732
tp2733
Rp2734
ag1
(g5
S'\xf4>c<'
p2735
tp2736
Rp2737
ag1
(g5
S'\x0c\xefR<'
p2738
tp2739
Rp2740
ag1
(g5
S'\x10\xfdk<'
p2741
tp2742
Rp2743
ag1
(g5
S'\x8fVV<'
p2744
tp2745
Rp2746
ag1
(g5
S'\xd3\x07k<'
p2747
tp2748
Rp2749
ag1
(g5
S'EHc<'
p2750
tp2751
Rp2752
ag1
(g5
S'\x01\xd7e<'
p2753
tp2754
Rp2755
ag1
(g5
S'\x12aa<'
p2756
tp2757
Rp2758
ag1
(g5
S'\xc1\xcef<'
p2759
tp2760
Rp2761
ag1
(g5
S'\xb6\xa0i<'
p2762
tp2763
Rp2764
ag1
(g5
S'\xa2/j<'
p2765
tp2766
Rp2767
ag1
(g5
S'h\xc5T<'
p2768
tp2769
Rp2770
ag1
(g5
S'\\\xe8e<'
p2771
tp2772
Rp2773
ag1
(g5
S'\xccoG<'
p2774
tp2775
Rp2776
ag1
(g5
S')\xb0]<'
p2777
tp2778
Rp2779
ag1
(g5
S'\x1f\x14\\<'
p2780
tp2781
Rp2782
ag1
(g5
S'\xe8\xfd\\<'
p2783
tp2784
Rp2785
ag1
(g5
S'z\xf7g<'
p2786
tp2787
Rp2788
ag1
(g5
S'\xb2\xebn<'
p2789
tp2790
Rp2791
ag1
(g5
S'\xd9nM<'
p2792
tp2793
Rp2794
ag1
(g5
S'\x83EV<'
p2795
tp2796
Rp2797
ag1
(g5
S'\xf9Wg<'
p2798
tp2799
Rp2800
ag1
(g5
S'\x94\xe0_<'
p2801
tp2802
Rp2803
ag1
(g5
S'_m]<'
p2804
tp2805
Rp2806
ag1
(g5
S'\x85\xfdN<'
p2807
tp2808
Rp2809
ag1
(g5
S'\xd7\xbb\\<'
p2810
tp2811
Rp2812
ag1
(g5
S'\x8d\xca`<'
p2813
tp2814
Rp2815
ag1
(g5
S'\x140_<'
p2816
tp2817
Rp2818
ag1
(g5
S'Y!X<'
p2819
tp2820
Rp2821
ag1
(g5
S'v\tk<'
p2822
tp2823
Rp2824
ag1
(g5
S'\xf8\xddd<'
p2825
tp2826
Rp2827
ag1
(g5
S'W\x1eP<'
p2828
tp2829
Rp2830
ag1
(g5
S'\xc6\x1d^<'
p2831
tp2832
Rp2833
ag1
(g5
S'\xc8\x80S<'
p2834
tp2835
Rp2836
ag1
(g5
S'\xcd\xa5U<'
p2837
tp2838
Rp2839
ag1
(g5
S'@\xe1V<'
p2840
tp2841
Rp2842
ag1
(g5
S'Z8p<'
p2843
tp2844
Rp2845
ag1
(g5
S'\xa0\xe1Z<'
p2846
tp2847
Rp2848
ag1
(g5
S'\xbf\x05Y<'
p2849
tp2850
Rp2851
ag1
(g5
S'\x13\xd2]<'
p2852
tp2853
Rp2854
ag1
(g5
S'\xb98f<'
p2855
tp2856
Rp2857
ag1
(g5
S'\xf4\xf1V<'
p2858
tp2859
Rp2860
ag1
(g5
S'+Ig<'
p2861
tp2862
Rp2863
ag1
(g5
S'\xa1\x01W<'
p2864
tp2865
Rp2866
ag1
(g5
S'\x9d\xe7`<'
p2867
tp2868
Rp2869
ag1
(g5
S'\xbb\x97U<'
p2870
tp2871
Rp2872
ag1
(g5
S'NCY<'
p2873
tp2874
Rp2875
ag1
(g5
S'n\xe6`<'
p2876
tp2877
Rp2878
ag1
(g5
S'i\xf9B<'
p2879
tp2880
Rp2881
ag1
(g5
S'\x03\x0e[<'
p2882
tp2883
Rp2884
ag1
(g5
S'\x1e\x84a<'
p2885
tp2886
Rp2887
ag1
(g5
S'\xbb\xdcC<'
p2888
tp2889
Rp2890
ag1
(g5
S'u\x94c<'
p2891
tp2892
Rp2893
ag1
(g5
S'\xc1\xcba<'
p2894
tp2895
Rp2896
ag1
(g5
S'\xc7fD<'
p2897
tp2898
Rp2899
ag1
(g5
S'\xa6\x1bb<'
p2900
tp2901
Rp2902
ag1
(g5
S'\x05\x8b_<'
p2903
tp2904
Rp2905
ag1
(g5
S'\x18\xf1Y<'
p2906
tp2907
Rp2908
ag1
(g5
S'n\xa3b<'
p2909
tp2910
Rp2911
ag1
(g5
S'\xbcGL<'
p2912
tp2913
Rp2914
ag1
(g5
S'\xd5_b<'
p2915
tp2916
Rp2917
ag1
(g5
S'\xe3~p<'
p2918
tp2919
Rp2920
ag1
(g5
S'\x8a\na<'
p2921
tp2922
Rp2923
ag1
(g5
S'\x821P<'
p2924
tp2925
Rp2926
ag1
(g5
S'\xbd\xbei<'
p2927
tp2928
Rp2929
ag1
(g5
S'w;S<'
p2930
tp2931
Rp2932
ag1
(g5
S'\x8b\xa1h<'
p2933
tp2934
Rp2935
ag1
(g5
S'G\xca`<'
p2936
tp2937
Rp2938
ag1
(g5
S'\x93]c<'
p2939
tp2940
Rp2941
ag1
(g5
S'\x17\xe1^<'
p2942
tp2943
Rp2944
ag1
(g5
S'\xb8\xfac<'
p2945
tp2946
Rp2947
ag1
(g5
S'^\xd3f<'
p2948
tp2949
Rp2950
ag1
(g5
S'\x1bzh<'
p2951
tp2952
Rp2953
ag1
(g5
S'\xcbXR<'
p2954
tp2955
Rp2956
ag1
(g5
S'\xab&c<'
p2957
tp2958
Rp2959
ag1
(g5
S'3\x14E<'
p2960
tp2961
Rp2962
ag1
(g5
S'0P[<'
p2963
tp2964
Rp2965
ag1
(g5
S'o@Y<'
p2966
tp2967
Rp2968
ag1
(g5
S'\xd2FZ<'
p2969
tp2970
Rp2971
ag1
(g5
S'\xa6Qe<'
p2972
tp2973
Rp2974
ag1
(g5
S'$\xc8l<'
p2975
tp2976
Rp2977
ag1
(g5
S'\xa9\x10K<'
p2978
tp2979
Rp2980
ag1
(g5
S'|\x1aS<'
p2981
tp2982
Rp2983
ag1
(g5
S'U\xb5d<'
p2984
tp2985
Rp2986
ag1
(g5
S"'\x02]<"
p2987
tp2988
Rp2989
ag1
(g5
S'\xebuZ<'
p2990
tp2991
Rp2992
ag1
(g5
S'inL<'
p2993
tp2994
Rp2995
ag1
(g5
S'\xf0]Z<'
p2996
tp2997
Rp2998
ag1
(g5
S'T;^<'
p2999
tp3000
Rp3001
ag1
(g5
S'\xe2\xc1\\<'
p3002
tp3003
Rp3004
ag1
(g5
S'\xde\x11U<'
p3005
tp3006
Rp3007
a.