(lp0
F0.9375
aF0.915
aF0.88
aF0.8525
aF0.8075
aF0.7325
aF0.6775
aF0.5975
aF0.5275
aF0.445
aF0.3775
aF0.3175
aF0.25
aF0.18
aF0.1575
aF0.0975
aF0.0625
aF0.03
aF0.025
aF0.0125
aF0.01
aF0.005
aF0.005
aF0.0025
aF0.0
aF0.0
aF0.0
aF0.0
aF0.0
aF0.0
aF0.0
aF0.0
aF0.0
aF0.0
aF0.0
aF0.0
a.