(lp0
cnumpy.core.multiarray
scalar
p1
(cnumpy
dtype
p2
(S'f4'
p3
I0
I1
tp4
Rp5
(I3
S'<'
p6
NNNI-1
I-1
I0
tp7
bS'\x14\xe2\xf2>'
p8
tp9
Rp10
ag1
(g5
S'\x8e\xec\x89>'
p11
tp12
Rp13
ag1
(g5
S'\x8a\x7f0>'
p14
tp15
Rp16
ag1
(g5
S'9\xd4\x06>'
p17
tp18
Rp19
ag1
(g5
S'Z\xb5\xdd='
p20
tp21
Rp22
ag1
(g5
S'S|\xbe='
p23
tp24
Rp25
ag1
(g5
S'W\xe5\xa7='
p26
tp27
Rp28
ag1
(g5
S'|U\x96='
p29
tp30
Rp31
ag1
(g5
S'\xe5\xdf\x88='
p32
tp33
Rp34
ag1
(g5
S'G\\s='
p35
tp36
Rp37
ag1
(g5
S',CV='
p38
tp39
Rp40
ag1
(g5
S'g4:='
p41
tp42
Rp43
ag1
(g5
S'\xbf\x1e%='
p44
tp45
Rp46
ag1
(g5
S'v\xb6\x13='
p47
tp48
Rp49
ag1
(g5
S'\x1a6\x00='
p50
tp51
Rp52
ag1
(g5
S'?\x84\xdf<'
p53
tp54
Rp55
ag1
(g5
S'\x9a\x8e\xc6<'
p56
tp57
Rp58
ag1
(g5
S'\xcd\xd6\xb7<'
p59
tp60
Rp61
ag1
(g5
S'=\xd7\xa8<'
p62
tp63
Rp64
ag1
(g5
S'\x0fQ\x9b<'
p65
tp66
Rp67
ag1
(g5
S't\x14\x95<'
p68
tp69
Rp70
ag1
(g5
S'\xf2\xba\x8f<'
p71
tp72
Rp73
ag1
(g5
S'\x17\x0b\x8b<'
p74
tp75
Rp76
ag1
(g5
S'Ef\x87<'
p77
tp78
Rp79
ag1
(g5
S'k\xf2\x83<'
p80
tp81
Rp82
ag1
(g5
S'\x81\xec\x81<'
p83
tp84
Rp85
ag1
(g5
S'\xe6\xda\x81<'
p86
tp87
Rp88
ag1
(g5
S'"\r\x81<'
p89
tp90
Rp91
ag1
(g5
S'\xb7\x92{<'
p92
tp93
Rp94
ag1
(g5
S'\xf1.x<'
p95
tp96
Rp97
ag1
(g5
S'\x98\x81r<'
p98
tp99
Rp100
ag1
(g5
S'\x8a\xdco<'
p101
tp102
Rp103
ag1
(g5
S'{\xdco<'
p104
tp105
Rp106
ag1
(g5
S'#\xdco<'
p107
tp108
Rp109
ag1
(g5
S'\xec\xc7o<'
p110
tp111
Rp112
ag1
(g5
S'I\nm<'
p113
tp114
Rp115
ag1
(g5
S'\xfb\xdck<'
p116
tp117
Rp118
ag1
(g5
S'\xf4\xdck<'
p119
tp120
Rp121
ag1
(g5
S'\xcb\xdck<'
p122
tp123
Rp124
ag1
(g5
S'\xb7\xd6k<'
p125
tp126
Rp127
ag1
(g5
S'\xf2\xb0i<'
p128
tp129
Rp130
ag1
(g5
S'^\xedg<'
p131
tp132
Rp133
ag1
(g5
S'n\xa9g<'
p134
tp135
Rp136
ag1
(g5
S'\xc4\xeed<'
p137
tp138
Rp139
ag1
(g5
S'{\xdec<'
p140
tp141
Rp142
ag1
(g5
S'\xc4\xa8b<'
p143
tp144
Rp145
ag1
(g5
S'\xef(`<'
p146
tp147
Rp148
ag1
(g5
S'J\xe0_<'
p149
tp150
Rp151
ag1
(g5
S'\xe0\xa9_<'
p152
tp153
Rp154
ag1
(g5
S'`u]<'
p155
tp156
Rp157
ag1
(g5
S'\xf7\xe1[<'
p158
tp159
Rp160
ag1
(g5
S'\xf6\xe1[<'
p161
tp162
Rp163
ag1
(g5
S'\xf5\xe1[<'
p164
tp165
Rp166
ag1
(g5
S'\xfa\xe1[<'
p167
tp168
Rp169
ag1
(g5
S'\xf5\xe1[<'
p170
tp171
Rp172
ag1
(g5
S'\xee\xe1[<'
p173
tp174
Rp175
ag1
(g5
S'\xee\xe1[<'
p176
tp177
Rp178
ag1
(g5
S'\xf3\xe1[<'
p179
tp180
Rp181
ag1
(g5
S'\xf0\xe1[<'
p182
tp183
Rp184
ag1
(g5
S'\xeb\xe1[<'
p185
tp186
Rp187
ag1
(g5
S'\xcc\xe1[<'
p188
tp189
Rp190
ag1
(g5
S'\xe8\xda[<'
p191
tp192
Rp193
ag1
(g5
S'\x12\xeaW<'
p194
tp195
Rp196
ag1
(g5
S'\x91\xe2W<'
p197
tp198
Rp199
ag1
(g5
S'v\xe2W<'
p200
tp201
Rp202
ag1
(g5
S'\n\xd2W<'
p203
tp204
Rp205
ag1
(g5
S'\xcb\xa9T<'
p206
tp207
Rp208
ag1
(g5
S'\x0f\xe4S<'
p209
tp210
Rp211
ag1
(g5
S'\r\xe4S<'
p212
tp213
Rp214
ag1
(g5
S'\x08\xe4S<'
p215
tp216
Rp217
ag1
(g5
S'\x0e\xe4S<'
p218
tp219
Rp220
ag1
(g5
S'\r\xe4S<'
p221
tp222
Rp223
ag1
(g5
S'\x0f\xe4S<'
p224
tp225
Rp226
ag1
(g5
S'\r\xe4S<'
p227
tp228
Rp229
ag1
(g5
S'\x0e\xe4S<'
p230
tp231
Rp232
ag1
(g5
S'\x0f\xe4S<'
p233
tp234
Rp235
ag1
(g5
S'\x0e\xe4S<'
p236
tp237
Rp238
ag1
(g5
S'\x0f\xe4S<'
p239
tp240
Rp241
ag1
(g5
S'\x0b\xe4S<'
p242
tp243
Rp244
ag1
(g5
S'\r\xe4S<'
p245
tp246
Rp247
ag1
(g5
S'\x11\xe4S<'
p248
tp249
Rp250
ag1
(g5
S'\x10\xe4S<'
p251
tp252
Rp253
ag1
(g5
S'\x0c\xe4S<'
p254
tp255
Rp256
ag1
(g5
S'\x0c\xe4S<'
p257
tp258
Rp259
ag1
(g5
S'\r\xe4S<'
p260
tp261
Rp262
ag1
(g5
S'\x0c\xe4S<'
p263
tp264
Rp265
ag1
(g5
S'\x06\xe4S<'
p266
tp267
Rp268
ag1
(g5
S'\x0c\xe4S<'
p269
tp270
Rp271
ag1
(g5
S'\x04\xe4S<'
p272
tp273
Rp274
ag1
(g5
S'\xf7\xe3S<'
p275
tp276
Rp277
ag1
(g5
S'h\xe2S<'
p278
tp279
Rp280
ag1
(g5
S'\t;S<'
p281
tp282
Rp283
ag1
(g5
S'\xeefP<'
p284
tp285
Rp286
ag1
(g5
S'\xfe\xe4O<'
p287
tp288
Rp289
ag1
(g5
S'\x01\xe5O<'
p290
tp291
Rp292
ag1
(g5
S'\xff\xe4O<'
p293
tp294
Rp295
ag1
(g5
S'\xfe\xe4O<'
p296
tp297
Rp298
ag1
(g5
S'\xff\xe4O<'
p299
tp300
Rp301
ag1
(g5
S'\x00\xe5O<'
p302
tp303
Rp304
ag1
(g5
S'\x01\xe5O<'
p305
tp306
Rp307
ag1
(g5
S'\x07\xe5O<'
p308
tp309
Rp310
ag1
(g5
S'\xff\xe4O<'
p311
tp312
Rp313
ag1
(g5
S'\xff\xe4O<'
p314
tp315
Rp316
ag1
(g5
S'\x01\xe5O<'
p317
tp318
Rp319
ag1
(g5
S'\xfd\xe4O<'
p320
tp321
Rp322
ag1
(g5
S'\x00\xe5O<'
p323
tp324
Rp325
ag1
(g5
S'\x00\xe5O<'
p326
tp327
Rp328
ag1
(g5
S'\xfc\xe4O<'
p329
tp330
Rp331
ag1
(g5
S'\x04\xe5O<'
p332
tp333
Rp334
ag1
(g5
S'\xfe\xe4O<'
p335
tp336
Rp337
ag1
(g5
S'\xfd\xe4O<'
p338
tp339
Rp340
ag1
(g5
S'\x00\xe5O<'
p341
tp342
Rp343
ag1
(g5
S'\x01\xe5O<'
p344
tp345
Rp346
ag1
(g5
S'\xfd\xe4O<'
p347
tp348
Rp349
ag1
(g5
S'\x00\xe5O<'
p350
tp351
Rp352
ag1
(g5
S'\x01\xe5O<'
p353
tp354
Rp355
ag1
(g5
S'\xff\xe4O<'
p356
tp357
Rp358
ag1
(g5
S'\xff\xe4O<'
p359
tp360
Rp361
ag1
(g5
S'\x01\xe5O<'
p362
tp363
Rp364
ag1
(g5
S'\xfe\xe4O<'
p365
tp366
Rp367
ag1
(g5
S'\xfb\xe4O<'
p368
tp369
Rp370
ag1
(g5
S'\x00\xe5O<'
p371
tp372
Rp373
ag1
(g5
S'\xfd\xe4O<'
p374
tp375
Rp376
ag1
(g5
S'\xfe\xe4O<'
p377
tp378
Rp379
ag1
(g5
S'\xff\xe4O<'
p380
tp381
Rp382
ag1
(g5
S'\xfd\xe4O<'
p383
tp384
Rp385
ag1
(g5
S'\xfc\xe4O<'
p386
tp387
Rp388
ag1
(g5
S'\x03\xe5O<'
p389
tp390
Rp391
ag1
(g5
S'\xfe\xe4O<'
p392
tp393
Rp394
ag1
(g5
S'\xfe\xe4O<'
p395
tp396
Rp397
ag1
(g5
S'\xfb\xe4O<'
p398
tp399
Rp400
ag1
(g5
S'\x01\xe5O<'
p401
tp402
Rp403
ag1
(g5
S'\xfe\xe4O<'
p404
tp405
Rp406
ag1
(g5
S'\x01\xe5O<'
p407
tp408
Rp409
ag1
(g5
S'\xfc\xe4O<'
p410
tp411
Rp412
ag1
(g5
S'\xfe\xe4O<'
p413
tp414
Rp415
ag1
(g5
S'\x00\xe5O<'
p416
tp417
Rp418
ag1
(g5
S'\xf9\xe4O<'
p419
tp420
Rp421
ag1
(g5
S'\xfb\xe4O<'
p422
tp423
Rp424
ag1
(g5
S'\xfe\xe4O<'
p425
tp426
Rp427
ag1
(g5
S'\xfc\xe4O<'
p428
tp429
Rp430
ag1
(g5
S'\xfe\xe4O<'
p431
tp432
Rp433
ag1
(g5
S'\xfb\xe4O<'
p434
tp435
Rp436
ag1
(g5
S'\xfb\xe4O<'
p437
tp438
Rp439
ag1
(g5
S'\xfb\xe4O<'
p440
tp441
Rp442
ag1
(g5
S'\xf4\xe4O<'
p443
tp444
Rp445
ag1
(g5
S'@\xe4O<'
p446
tp447
Rp448
ag1
(g5
S'\x14\xbdN<'
p449
tp450
Rp451
ag1
(g5
S'\xaa\xe5K<'
p452
tp453
Rp454
ag1
(g5
S'\x1f\xe5K<'
p455
tp456
Rp457
ag1
(g5
S'\x98\xe3K<'
p458
tp459
Rp460
ag1
(g5
S'\xb1 K<'
p461
tp462
Rp463
ag1
(g5
S'\xc9TH<'
p464
tp465
Rp466
ag1
(g5
S'.\xe6G<'
p467
tp468
Rp469
ag1
(g5
S'2\xe6G<'
p470
tp471
Rp472
ag1
(g5
S'.\xe6G<'
p473
tp474
Rp475
ag1
(g5
S"'\xe6G<"
p476
tp477
Rp478
ag1
(g5
S'\xce\xe5G<'
p479
tp480
Rp481
ag1
(g5
S'\x0bYG<'
p482
tp483
Rp484
ag1
(g5
S'|\xe7C<'
p485
tp486
Rp487
ag1
(g5
S'x\xe7C<'
p488
tp489
Rp490
ag1
(g5
S'{\xe7C<'
p491
tp492
Rp493
ag1
(g5
S'x\xe7C<'
p494
tp495
Rp496
ag1
(g5
S'w\xe7C<'
p497
tp498
Rp499
ag1
(g5
S'x\xe7C<'
p500
tp501
Rp502
ag1
(g5
S'y\xe7C<'
p503
tp504
Rp505
ag1
(g5
S'y\xe7C<'
p506
tp507
Rp508
ag1
(g5
S'{\xe7C<'
p509
tp510
Rp511
ag1
(g5
S'{\xe7C<'
p512
tp513
Rp514
ag1
(g5
S'x\xe7C<'
p515
tp516
Rp517
ag1
(g5
S'x\xe7C<'
p518
tp519
Rp520
ag1
(g5
S'v\xe7C<'
p521
tp522
Rp523
ag1
(g5
S'w\xe7C<'
p524
tp525
Rp526
ag1
(g5
S'w\xe7C<'
p527
tp528
Rp529
ag1
(g5
S'y\xe7C<'
p530
tp531
Rp532
ag1
(g5
S'z\xe7C<'
p533
tp534
Rp535
ag1
(g5
S'x\xe7C<'
p536
tp537
Rp538
ag1
(g5
S'x\xe7C<'
p539
tp540
Rp541
ag1
(g5
S't\xe7C<'
p542
tp543
Rp544
ag1
(g5
S'x\xe7C<'
p545
tp546
Rp547
ag1
(g5
S'y\xe7C<'
p548
tp549
Rp550
ag1
(g5
S'u\xe7C<'
p551
tp552
Rp553
ag1
(g5
S'x\xe7C<'
p554
tp555
Rp556
ag1
(g5
S'x\xe7C<'
p557
tp558
Rp559
ag1
(g5
S'y\xe7C<'
p560
tp561
Rp562
ag1
(g5
S'v\xe7C<'
p563
tp564
Rp565
ag1
(g5
S'v\xe7C<'
p566
tp567
Rp568
ag1
(g5
S'x\xe7C<'
p569
tp570
Rp571
ag1
(g5
S'u\xe7C<'
p572
tp573
Rp574
ag1
(g5
S'v\xe7C<'
p575
tp576
Rp577
ag1
(g5
S'z\xe7C<'
p578
tp579
Rp580
ag1
(g5
S'z\xe7C<'
p581
tp582
Rp583
ag1
(g5
S'u\xe7C<'
p584
tp585
Rp586
ag1
(g5
S'v\xe7C<'
p587
tp588
Rp589
ag1
(g5
S'z\xe7C<'
p590
tp591
Rp592
ag1
(g5
S's\xe7C<'
p593
tp594
Rp595
ag1
(g5
S'z\xe7C<'
p596
tp597
Rp598
ag1
(g5
S'x\xe7C<'
p599
tp600
Rp601
ag1
(g5
S's\xe7C<'
p602
tp603
Rp604
ag1
(g5
S'x\xe7C<'
p605
tp606
Rp607
ag1
(g5
S'u\xe7C<'
p608
tp609
Rp610
ag1
(g5
S'u\xe7C<'
p611
tp612
Rp613
ag1
(g5
S'u\xe7C<'
p614
tp615
Rp616
ag1
(g5
S't\xe7C<'
p617
tp618
Rp619
ag1
(g5
S'v\xe7C<'
p620
tp621
Rp622
ag1
(g5
S's\xe7C<'
p623
tp624
Rp625
ag1
(g5
S's\xe7C<'
p626
tp627
Rp628
ag1
(g5
S'x\xe7C<'
p629
tp630
Rp631
ag1
(g5
S'y\xe7C<'
p632
tp633
Rp634
ag1
(g5
S'r\xe7C<'
p635
tp636
Rp637
ag1
(g5
S'x\xe7C<'
p638
tp639
Rp640
ag1
(g5
S'w\xe7C<'
p641
tp642
Rp643
ag1
(g5
S'y\xe7C<'
p644
tp645
Rp646
ag1
(g5
S'r\xe7C<'
p647
tp648
Rp649
ag1
(g5
S't\xe7C<'
p650
tp651
Rp652
ag1
(g5
S't\xe7C<'
p653
tp654
Rp655
ag1
(g5
S'x\xe7C<'
p656
tp657
Rp658
ag1
(g5
S't\xe7C<'
p659
tp660
Rp661
ag1
(g5
S'u\xe7C<'
p662
tp663
Rp664
ag1
(g5
S'u\xe7C<'
p665
tp666
Rp667
ag1
(g5
S'z\xe7C<'
p668
tp669
Rp670
ag1
(g5
S'{\xe7C<'
p671
tp672
Rp673
ag1
(g5
S'y\xe7C<'
p674
tp675
Rp676
ag1
(g5
S'w\xe7C<'
p677
tp678
Rp679
ag1
(g5
S'u\xe7C<'
p680
tp681
Rp682
ag1
(g5
S'z\xe7C<'
p683
tp684
Rp685
ag1
(g5
S'y\xe7C<'
p686
tp687
Rp688
ag1
(g5
S'w\xe7C<'
p689
tp690
Rp691
ag1
(g5
S'u\xe7C<'
p692
tp693
Rp694
ag1
(g5
S's\xe7C<'
p695
tp696
Rp697
ag1
(g5
S'v\xe7C<'
p698
tp699
Rp700
ag1
(g5
S't\xe7C<'
p701
tp702
Rp703
ag1
(g5
S'w\xe7C<'
p704
tp705
Rp706
ag1
(g5
S'w\xe7C<'
p707
tp708
Rp709
ag1
(g5
S't\xe7C<'
p710
tp711
Rp712
ag1
(g5
S'v\xe7C<'
p713
tp714
Rp715
ag1
(g5
S'w\xe7C<'
p716
tp717
Rp718
ag1
(g5
S'z\xe7C<'
p719
tp720
Rp721
ag1
(g5
S'v\xe7C<'
p722
tp723
Rp724
ag1
(g5
S't\xe7C<'
p725
tp726
Rp727
ag1
(g5
S'u\xe7C<'
p728
tp729
Rp730
ag1
(g5
S'u\xe7C<'
p731
tp732
Rp733
ag1
(g5
S'u\xe7C<'
p734
tp735
Rp736
ag1
(g5
S'v\xe7C<'
p737
tp738
Rp739
ag1
(g5
S'u\xe7C<'
p740
tp741
Rp742
ag1
(g5
S't\xe7C<'
p743
tp744
Rp745
ag1
(g5
S'v\xe7C<'
p746
tp747
Rp748
ag1
(g5
S's\xe7C<'
p749
tp750
Rp751
ag1
(g5
S'y\xe7C<'
p752
tp753
Rp754
ag1
(g5
S'w\xe7C<'
p755
tp756
Rp757
ag1
(g5
S'u\xe7C<'
p758
tp759
Rp760
ag1
(g5
S'x\xe7C<'
p761
tp762
Rp763
ag1
(g5
S'u\xe7C<'
p764
tp765
Rp766
ag1
(g5
S'u\xe7C<'
p767
tp768
Rp769
ag1
(g5
S'u\xe7C<'
p770
tp771
Rp772
ag1
(g5
S'u\xe7C<'
p773
tp774
Rp775
ag1
(g5
S'v\xe7C<'
p776
tp777
Rp778
ag1
(g5
S'u\xe7C<'
p779
tp780
Rp781
ag1
(g5
S's\xe7C<'
p782
tp783
Rp784
ag1
(g5
S'y\xe7C<'
p785
tp786
Rp787
ag1
(g5
S'v\xe7C<'
p788
tp789
Rp790
ag1
(g5
S'u\xe7C<'
p791
tp792
Rp793
ag1
(g5
S'v\xe7C<'
p794
tp795
Rp796
ag1
(g5
S't\xe7C<'
p797
tp798
Rp799
ag1
(g5
S'x\xe7C<'
p800
tp801
Rp802
ag1
(g5
S'u\xe7C<'
p803
tp804
Rp805
ag1
(g5
S'v\xe7C<'
p806
tp807
Rp808
ag1
(g5
S'u\xe7C<'
p809
tp810
Rp811
ag1
(g5
S'u\xe7C<'
p812
tp813
Rp814
ag1
(g5
S't\xe7C<'
p815
tp816
Rp817
ag1
(g5
S's\xe7C<'
p818
tp819
Rp820
ag1
(g5
S'{\xe7C<'
p821
tp822
Rp823
ag1
(g5
S'v\xe7C<'
p824
tp825
Rp826
ag1
(g5
S's\xe7C<'
p827
tp828
Rp829
ag1
(g5
S'y\xe7C<'
p830
tp831
Rp832
ag1
(g5
S'u\xe7C<'
p833
tp834
Rp835
ag1
(g5
S's\xe7C<'
p836
tp837
Rp838
ag1
(g5
S'x\xe7C<'
p839
tp840
Rp841
ag1
(g5
S'w\xe7C<'
p842
tp843
Rp844
ag1
(g5
S'u\xe7C<'
p845
tp846
Rp847
ag1
(g5
S'u\xe7C<'
p848
tp849
Rp850
ag1
(g5
S't\xe7C<'
p851
tp852
Rp853
ag1
(g5
S'v\xe7C<'
p854
tp855
Rp856
ag1
(g5
S'y\xe7C<'
p857
tp858
Rp859
ag1
(g5
S'x\xe7C<'
p860
tp861
Rp862
ag1
(g5
S's\xe7C<'
p863
tp864
Rp865
ag1
(g5
S'x\xe7C<'
p866
tp867
Rp868
ag1
(g5
S'v\xe7C<'
p869
tp870
Rp871
ag1
(g5
S'y\xe7C<'
p872
tp873
Rp874
ag1
(g5
S's\xe7C<'
p875
tp876
Rp877
ag1
(g5
S't\xe7C<'
p878
tp879
Rp880
ag1
(g5
S'x\xe7C<'
p881
tp882
Rp883
ag1
(g5
S's\xe7C<'
p884
tp885
Rp886
ag1
(g5
S'u\xe7C<'
p887
tp888
Rp889
ag1
(g5
S's\xe7C<'
p890
tp891
Rp892
ag1
(g5
S'r\xe7C<'
p893
tp894
Rp895
ag1
(g5
S'y\xe7C<'
p896
tp897
Rp898
ag1
(g5
S'v\xe7C<'
p899
tp900
Rp901
ag1
(g5
S't\xe7C<'
p902
tp903
Rp904
ag1
(g5
S'x\xe7C<'
p905
tp906
Rp907
ag1
(g5
S'x\xe7C<'
p908
tp909
Rp910
ag1
(g5
S'u\xe7C<'
p911
tp912
Rp913
ag1
(g5
S'w\xe7C<'
p914
tp915
Rp916
ag1
(g5
S'x\xe7C<'
p917
tp918
Rp919
ag1
(g5
S'w\xe7C<'
p920
tp921
Rp922
ag1
(g5
S'x\xe7C<'
p923
tp924
Rp925
ag1
(g5
S'v\xe7C<'
p926
tp927
Rp928
ag1
(g5
S's\xe7C<'
p929
tp930
Rp931
ag1
(g5
S'u\xe7C<'
p932
tp933
Rp934
ag1
(g5
S'r\xe7C<'
p935
tp936
Rp937
ag1
(g5
S't\xe7C<'
p938
tp939
Rp940
ag1
(g5
S't\xe7C<'
p941
tp942
Rp943
ag1
(g5
S'r\xe7C<'
p944
tp945
Rp946
ag1
(g5
S'r\xe7C<'
p947
tp948
Rp949
ag1
(g5
S'x\xe7C<'
p950
tp951
Rp952
ag1
(g5
S't\xe7C<'
p953
tp954
Rp955
ag1
(g5
S'r\xe7C<'
p956
tp957
Rp958
ag1
(g5
S'u\xe7C<'
p959
tp960
Rp961
ag1
(g5
S'x\xe7C<'
p962
tp963
Rp964
ag1
(g5
S't\xe7C<'
p965
tp966
Rp967
ag1
(g5
S't\xe7C<'
p968
tp969
Rp970
ag1
(g5
S's\xe7C<'
p971
tp972
Rp973
ag1
(g5
S'v\xe7C<'
p974
tp975
Rp976
ag1
(g5
S's\xe7C<'
p977
tp978
Rp979
ag1
(g5
S'u\xe7C<'
p980
tp981
Rp982
ag1
(g5
S'u\xe7C<'
p983
tp984
Rp985
ag1
(g5
S'u\xe7C<'
p986
tp987
Rp988
ag1
(g5
S'q\xe7C<'
p989
tp990
Rp991
ag1
(g5
S'x\xe7C<'
p992
tp993
Rp994
ag1
(g5
S'u\xe7C<'
p995
tp996
Rp997
ag1
(g5
S'y\xe7C<'
p998
tp999
Rp1000
ag1
(g5
S's\xe7C<'
p1001
tp1002
Rp1003
ag1
(g5
S'u\xe7C<'
p1004
tp1005
Rp1006
ag1
(g5
S'r\xe7C<'
p1007
tp1008
Rp1009
ag1
(g5
S'u\xe7C<'
p1010
tp1011
Rp1012
ag1
(g5
S'v\xe7C<'
p1013
tp1014
Rp1015
ag1
(g5
S'v\xe7C<'
p1016
tp1017
Rp1018
ag1
(g5
S't\xe7C<'
p1019
tp1020
Rp1021
ag1
(g5
S'q\xe7C<'
p1022
tp1023
Rp1024
ag1
(g5
S's\xe7C<'
p1025
tp1026
Rp1027
ag1
(g5
S'y\xe7C<'
p1028
tp1029
Rp1030
ag1
(g5
S'r\xe7C<'
p1031
tp1032
Rp1033
ag1
(g5
S'u\xe7C<'
p1034
tp1035
Rp1036
ag1
(g5
S'v\xe7C<'
p1037
tp1038
Rp1039
ag1
(g5
S'u\xe7C<'
p1040
tp1041
Rp1042
ag1
(g5
S'v\xe7C<'
p1043
tp1044
Rp1045
ag1
(g5
S'u\xe7C<'
p1046
tp1047
Rp1048
ag1
(g5
S'v\xe7C<'
p1049
tp1050
Rp1051
ag1
(g5
S'w\xe7C<'
p1052
tp1053
Rp1054
ag1
(g5
S'x\xe7C<'
p1055
tp1056
Rp1057
ag1
(g5
S'u\xe7C<'
p1058
tp1059
Rp1060
ag1
(g5
S't\xe7C<'
p1061
tp1062
Rp1063
ag1
(g5
S't\xe7C<'
p1064
tp1065
Rp1066
ag1
(g5
S's\xe7C<'
p1067
tp1068
Rp1069
ag1
(g5
S'x\xe7C<'
p1070
tp1071
Rp1072
ag1
(g5
S'u\xe7C<'
p1073
tp1074
Rp1075
ag1
(g5
S'u\xe7C<'
p1076
tp1077
Rp1078
ag1
(g5
S's\xe7C<'
p1079
tp1080
Rp1081
ag1
(g5
S'u\xe7C<'
p1082
tp1083
Rp1084
ag1
(g5
S'u\xe7C<'
p1085
tp1086
Rp1087
ag1
(g5
S'u\xe7C<'
p1088
tp1089
Rp1090
ag1
(g5
S't\xe7C<'
p1091
tp1092
Rp1093
ag1
(g5
S'u\xe7C<'
p1094
tp1095
Rp1096
ag1
(g5
S'v\xe7C<'
p1097
tp1098
Rp1099
ag1
(g5
S'u\xe7C<'
p1100
tp1101
Rp1102
ag1
(g5
S'u\xe7C<'
p1103
tp1104
Rp1105
ag1
(g5
S'p\xe7C<'
p1106
tp1107
Rp1108
ag1
(g5
S'p\xe7C<'
p1109
tp1110
Rp1111
ag1
(g5
S'v\xe7C<'
p1112
tp1113
Rp1114
ag1
(g5
S'q\xe7C<'
p1115
tp1116
Rp1117
ag1
(g5
S's\xe7C<'
p1118
tp1119
Rp1120
ag1
(g5
S'r\xe7C<'
p1121
tp1122
Rp1123
ag1
(g5
S'r\xe7C<'
p1124
tp1125
Rp1126
ag1
(g5
S'v\xe7C<'
p1127
tp1128
Rp1129
ag1
(g5
S'r\xe7C<'
p1130
tp1131
Rp1132
ag1
(g5
S'v\xe7C<'
p1133
tp1134
Rp1135
ag1
(g5
S's\xe7C<'
p1136
tp1137
Rp1138
ag1
(g5
S'w\xe7C<'
p1139
tp1140
Rp1141
ag1
(g5
S'r\xe7C<'
p1142
tp1143
Rp1144
ag1
(g5
S'q\xe7C<'
p1145
tp1146
Rp1147
ag1
(g5
S'r\xe7C<'
p1148
tp1149
Rp1150
ag1
(g5
S's\xe7C<'
p1151
tp1152
Rp1153
ag1
(g5
S'w\xe7C<'
p1154
tp1155
Rp1156
ag1
(g5
S'u\xe7C<'
p1157
tp1158
Rp1159
ag1
(g5
S'v\xe7C<'
p1160
tp1161
Rp1162
ag1
(g5
S's\xe7C<'
p1163
tp1164
Rp1165
ag1
(g5
S't\xe7C<'
p1166
tp1167
Rp1168
ag1
(g5
S'w\xe7C<'
p1169
tp1170
Rp1171
ag1
(g5
S's\xe7C<'
p1172
tp1173
Rp1174
ag1
(g5
S's\xe7C<'
p1175
tp1176
Rp1177
ag1
(g5
S't\xe7C<'
p1178
tp1179
Rp1180
ag1
(g5
S'x\xe7C<'
p1181
tp1182
Rp1183
ag1
(g5
S'p\xe7C<'
p1184
tp1185
Rp1186
ag1
(g5
S'x\xe7C<'
p1187
tp1188
Rp1189
ag1
(g5
S'v\xe7C<'
p1190
tp1191
Rp1192
ag1
(g5
S's\xe7C<'
p1193
tp1194
Rp1195
ag1
(g5
S'u\xe7C<'
p1196
tp1197
Rp1198
ag1
(g5
S's\xe7C<'
p1199
tp1200
Rp1201
ag1
(g5
S'u\xe7C<'
p1202
tp1203
Rp1204
ag1
(g5
S'w\xe7C<'
p1205
tp1206
Rp1207
a.