(lp0
cnumpy.core.multiarray
scalar
p1
(cnumpy
dtype
p2
(S'f4'
p3
I0
I1
tp4
Rp5
(I3
S'<'
p6
NNNI-1
I-1
I0
tp7
bS'\xc7?@?'
p8
tp9
Rp10
ag1
(g5
S't\xb7??'
p11
tp12
Rp13
ag1
(g5
S'_)??'
p14
tp15
Rp16
ag1
(g5
S'\x87\x8f>?'
p17
tp18
Rp19
ag1
(g5
S':\xe5=?'
p20
tp21
Rp22
ag1
(g5
S'\xf9$=?'
p23
tp24
Rp25
ag1
(g5
S'\x04G<?'
p26
tp27
Rp28
ag1
(g5
S'/?;?'
p29
tp30
Rp31
ag1
(g5
S'l\xff9?'
p32
tp33
Rp34
ag1
(g5
S'\xb4e8?'
p35
tp36
Rp37
ag1
(g5
S'\xc5\\6?'
p38
tp39
Rp40
ag1
(g5
S'_\xd23?'
p41
tp42
Rp43
ag1
(g5
S'\x01\xba0?'
p44
tp45
Rp46
ag1
(g5
S',\x0b-?'
p47
tp48
Rp49
ag1
(g5
S't\xaf(?'
p50
tp51
Rp52
ag1
(g5
S'\xa4C$?'
p53
tp54
Rp55
ag1
(g5
S';5 ?'
p56
tp57
Rp58
ag1
(g5
S'\xdd\x15\x1d?'
p59
tp60
Rp61
ag1
(g5
S'\xd1\xd5\x1a?'
p62
tp63
Rp64
ag1
(g5
S'nb\x18?'
p65
tp66
Rp67
ag1
(g5
S'\x89\x03\x15?'
p68
tp69
Rp70
ag1
(g5
S'\xbb\x81\x10?'
p71
tp72
Rp73
ag1
(g5
S'\x12\xbf\x0b?'
p74
tp75
Rp76
ag1
(g5
S'\x0c\x0b\x07?'
p77
tp78
Rp79
ag1
(g5
S'\x92\xae\x02?'
p80
tp81
Rp82
ag1
(g5
S'\x00\r\xfd>'
p83
tp84
Rp85
ag1
(g5
S'=\xcf\xf4>'
p86
tp87
Rp88
ag1
(g5
S'\xaa\xdb\xea>'
p89
tp90
Rp91
ag1
(g5
S'}\x04\xe1>'
p92
tp93
Rp94
ag1
(g5
S'<\x96\xd6>'
p95
tp96
Rp97
ag1
(g5
S'r\xb5\xcc>'
p98
tp99
Rp100
ag1
(g5
S'Q\x10\xc3>'
p101
tp102
Rp103
ag1
(g5
S'\x1e\xd5\xba>'
p104
tp105
Rp106
ag1
(g5
S'\xf2(\xb3>'
p107
tp108
Rp109
ag1
(g5
S'0\xdc\xab>'
p110
tp111
Rp112
ag1
(g5
S'\xc1b\xa5>'
p113
tp114
Rp115
ag1
(g5
S'\x1e\x96\x9f>'
p116
tp117
Rp118
ag1
(g5
S'E\x87\x99>'
p119
tp120
Rp121
ag1
(g5
S'Q\x0b\x95>'
p122
tp123
Rp124
ag1
(g5
S'\xe6\xe7\x8f>'
p125
tp126
Rp127
ag1
(g5
S'p\x93\x8b>'
p128
tp129
Rp130
ag1
(g5
S'}U\x88>'
p131
tp132
Rp133
ag1
(g5
S'X\x86\x85>'
p134
tp135
Rp136
ag1
(g5
S'\x83o\x82>'
p137
tp138
Rp139
ag1
(g5
S'\xd6\xb1~>'
p140
tp141
Rp142
ag1
(g5
S's*z>'
p143
tp144
Rp145
ag1
(g5
S'\xffQu>'
p146
tp147
Rp148
ag1
(g5
S's\x0cq>'
p149
tp150
Rp151
ag1
(g5
S'\xfc\x87l>'
p152
tp153
Rp154
ag1
(g5
S'\xbd\x1bi>'
p155
tp156
Rp157
ag1
(g5
S'\xaege>'
p158
tp159
Rp160
ag1
(g5
S'\xe3\xd7c>'
p161
tp162
Rp163
ag1
(g5
S'm\xbe_>'
p164
tp165
Rp166
ag1
(g5
S'^I\\>'
p167
tp168
Rp169
ag1
(g5
S'o^Y>'
p170
tp171
Rp172
ag1
(g5
S'8\x10V>'
p173
tp174
Rp175
ag1
(g5
S'\xf4\xedT>'
p176
tp177
Rp178
ag1
(g5
S'\xc9\x84Q>'
p179
tp180
Rp181
ag1
(g5
S'\x0c\xa6O>'
p182
tp183
Rp184
ag1
(g5
S'\xddgL>'
p185
tp186
Rp187
ag1
(g5
S'5\xcbK>'
p188
tp189
Rp190
ag1
(g5
S'\x10\\H>'
p191
tp192
Rp193
ag1
(g5
S'r"G>'
p194
tp195
Rp196
ag1
(g5
S'\xce\x10E>'
p197
tp198
Rp199
ag1
(g5
S'\x13\x01C>'
p200
tp201
Rp202
ag1
(g5
S'Q\x95B>'
p203
tp204
Rp205
ag1
(g5
S'\xb9\xe1A>'
p206
tp207
Rp208
ag1
(g5
S'\x95x>>'
p209
tp210
Rp211
ag1
(g5
S'\xb5f>>'
p212
tp213
Rp214
ag1
(g5
S'\xc1\x0e>>'
p215
tp216
Rp217
ag1
(g5
S'\xee\x82;>'
p218
tp219
Rp220
ag1
(g5
S'lr;>'
p221
tp222
Rp223
ag1
(g5
S'Rt9>'
p224
tp225
Rp226
ag1
(g5
S'\x0e\xce8>'
p227
tp228
Rp229
ag1
(g5
S'G\x109>'
p230
tp231
Rp232
ag1
(g5
S'\x80\x078>'
p233
tp234
Rp235
ag1
(g5
S'-w6>'
p236
tp237
Rp238
ag1
(g5
S'\xf8\x955>'
p239
tp240
Rp241
ag1
(g5
S'\x15\xec3>'
p242
tp243
Rp244
ag1
(g5
S'\xb0D4>'
p245
tp246
Rp247
ag1
(g5
S'I\x003>'
p248
tp249
Rp250
ag1
(g5
S'IP1>'
p251
tp252
Rp253
ag1
(g5
S'\x7f\xf31>'
p254
tp255
Rp256
ag1
(g5
S'\x1d\x101>'
p257
tp258
Rp259
ag1
(g5
S'\x13\xc9/>'
p260
tp261
Rp262
ag1
(g5
S'\xd5\xb3/>'
p263
tp264
Rp265
ag1
(g5
S'\xa4<.>'
p266
tp267
Rp268
ag1
(g5
S'(\x99->'
p269
tp270
Rp271
ag1
(g5
S'\xc4\x9d->'
p272
tp273
Rp274
ag1
(g5
S'\x92],>'
p275
tp276
Rp277
ag1
(g5
S'\xb2\xb9+>'
p278
tp279
Rp280
ag1
(g5
S'\xcdj+>'
p281
tp282
Rp283
ag1
(g5
S'|$,>'
p284
tp285
Rp286
ag1
(g5
S'p\x10*>'
p287
tp288
Rp289
ag1
(g5
S'_\t*>'
p290
tp291
Rp292
ag1
(g5
S'\xbd\x8f(>'
p293
tp294
Rp295
ag1
(g5
S'\xb8a(>'
p296
tp297
Rp298
ag1
(g5
S'\xc4d(>'
p299
tp300
Rp301
ag1
(g5
S'\x13\xf2&>'
p302
tp303
Rp304
ag1
(g5
S"\xc7\x99'>"
p305
tp306
Rp307
ag1
(g5
S'\xb8B&>'
p308
tp309
Rp310
ag1
(g5
S'\xf0\x13%>'
p311
tp312
Rp313
ag1
(g5
S'\xb6r%>'
p314
tp315
Rp316
ag1
(g5
S'\xe2\xda#>'
p317
tp318
Rp319
ag1
(g5
S'\xc8y#>'
p320
tp321
Rp322
ag1
(g5
S'\xde\xfe">'
p323
tp324
Rp325
ag1
(g5
S'\xab\x1b#>'
p326
tp327
Rp328
ag1
(g5
S'S0">'
p329
tp330
Rp331
ag1
(g5
S'<\xe0">'
p332
tp333
Rp334
ag1
(g5
S'@\xd7 >'
p335
tp336
Rp337
ag1
(g5
S'\x86r >'
p338
tp339
Rp340
ag1
(g5
S'\xb2p >'
p341
tp342
Rp343
ag1
(g5
S'\xb0&\x1f>'
p344
tp345
Rp346
ag1
(g5
S'g;\x1e>'
p347
tp348
Rp349
ag1
(g5
S'\xef\xe6\x1d>'
p350
tp351
Rp352
ag1
(g5
S'7\x90\x1d>'
p353
tp354
Rp355
ag1
(g5
S"'\xfa\x1c>"
p356
tp357
Rp358
ag1
(g5
S'\x17\xad\x1c>'
p359
tp360
Rp361
ag1
(g5
S'\xfd\xbb\x1a>'
p362
tp363
Rp364
ag1
(g5
S'*\x8f\x19>'
p365
tp366
Rp367
ag1
(g5
S',+\x19>'
p368
tp369
Rp370
ag1
(g5
S'\xbfu\x18>'
p371
tp372
Rp373
ag1
(g5
S'\xf9\xab\x16>'
p374
tp375
Rp376
ag1
(g5
S'\x7f\x1c\x15>'
p377
tp378
Rp379
ag1
(g5
S'b~\x13>'
p380
tp381
Rp382
ag1
(g5
S'\xd1"\x12>'
p383
tp384
Rp385
ag1
(g5
S'U\xc7\x10>'
p386
tp387
Rp388
ag1
(g5
S'\x0c=\x0e>'
p389
tp390
Rp391
ag1
(g5
S'@\xb6\x0c>'
p392
tp393
Rp394
ag1
(g5
S'\xc9\x8a\x0b>'
p395
tp396
Rp397
ag1
(g5
S'a\x8f\t>'
p398
tp399
Rp400
ag1
(g5
S'\x03O\x07>'
p401
tp402
Rp403
ag1
(g5
S'\xb4#\x06>'
p404
tp405
Rp406
ag1
(g5
S'c\xd7\x04>'
p407
tp408
Rp409
ag1
(g5
S'\x86`\x02>'
p410
tp411
Rp412
ag1
(g5
S'Bs\x01>'
p413
tp414
Rp415
ag1
(g5
S'\x00S\x00>'
p416
tp417
Rp418
ag1
(g5
S'\x8e\x13\xfe='
p419
tp420
Rp421
ag1
(g5
S'\xe2\xda\xfc='
p422
tp423
Rp424
ag1
(g5
S'\xcd\x9a\xf8='
p425
tp426
Rp427
ag1
(g5
S'\x86A\xf8='
p428
tp429
Rp430
ag1
(g5
S'\xcbI\xf4='
p431
tp432
Rp433
ag1
(g5
S'\xce;\xf2='
p434
tp435
Rp436
ag1
(g5
S'\xf3\xf1\xee='
p437
tp438
Rp439
ag1
(g5
S'8\xa0\xeb='
p440
tp441
Rp442
ag1
(g5
S'\xf4K\xea='
p443
tp444
Rp445
ag1
(g5
S'#\x85\xe7='
p446
tp447
Rp448
ag1
(g5
S'\xea\\\xe5='
p449
tp450
Rp451
ag1
(g5
S'g\xf6\xe1='
p452
tp453
Rp454
ag1
(g5
S'\xce\xb9\xdf='
p455
tp456
Rp457
ag1
(g5
S'\xc4&\xdc='
p458
tp459
Rp460
ag1
(g5
S'\xb7\xb9\xdc='
p461
tp462
Rp463
ag1
(g5
S'\xe4t\xd8='
p464
tp465
Rp466
ag1
(g5
S']M\xd5='
p467
tp468
Rp469
ag1
(g5
S'7\x98\xd3='
p470
tp471
Rp472
ag1
(g5
S'\xf6\xa9\xd1='
p473
tp474
Rp475
ag1
(g5
S'\xce\xaa\xce='
p476
tp477
Rp478
ag1
(g5
S'\xf2s\xcd='
p479
tp480
Rp481
ag1
(g5
S'\xf6\x04\xca='
p482
tp483
Rp484
ag1
(g5
S'r-\xc8='
p485
tp486
Rp487
ag1
(g5
S'd\x03\xc6='
p488
tp489
Rp490
ag1
(g5
S'}M\xc4='
p491
tp492
Rp493
ag1
(g5
S's\xe4\xc1='
p494
tp495
Rp496
ag1
(g5
S'58\xc1='
p497
tp498
Rp499
ag1
(g5
S'\xa3\x9e\xbf='
p500
tp501
Rp502
ag1
(g5
S'Ha\xbc='
p503
tp504
Rp505
ag1
(g5
S'\x99\x8b\xbc='
p506
tp507
Rp508
ag1
(g5
S'\xfe\xb0\xba='
p509
tp510
Rp511
ag1
(g5
S'\xdem\xb9='
p512
tp513
Rp514
ag1
(g5
S'\x83\xae\xb5='
p515
tp516
Rp517
ag1
(g5
S'\x95\xc1\xb5='
p518
tp519
Rp520
ag1
(g5
S'\xc0b\xb3='
p521
tp522
Rp523
ag1
(g5
S'\x952\xb3='
p524
tp525
Rp526
ag1
(g5
S'\xdf\xd7\xb1='
p527
tp528
Rp529
ag1
(g5
S'\x9eI\xaf='
p530
tp531
Rp532
ag1
(g5
S'a\xfd\xae='
p533
tp534
Rp535
ag1
(g5
S'<\x99\xad='
p536
tp537
Rp538
ag1
(g5
S'U;\xad='
p539
tp540
Rp541
ag1
(g5
S'\xbd\xa9\xaa='
p542
tp543
Rp544
ag1
(g5
S'?\x93\xaa='
p545
tp546
Rp547
ag1
(g5
S'@\xf5\xa8='
p548
tp549
Rp550
ag1
(g5
S'_\x96\xa7='
p551
tp552
Rp553
ag1
(g5
S'\x7f\x84\xa6='
p554
tp555
Rp556
ag1
(g5
S'D\xe9\xa5='
p557
tp558
Rp559
ag1
(g5
S'\xaaD\xa5='
p560
tp561
Rp562
ag1
(g5
S'\xde\xe6\xa3='
p563
tp564
Rp565
ag1
(g5
S'\xb8\xc1\xa3='
p566
tp567
Rp568
ag1
(g5
S'\x9b\xc4\xa2='
p569
tp570
Rp571
ag1
(g5
S'\x99\x1d\xa1='
p572
tp573
Rp574
ag1
(g5
S'\xe7\x85\xa0='
p575
tp576
Rp577
ag1
(g5
S'\xc2\x83\xa0='
p578
tp579
Rp580
ag1
(g5
S'\xe4\xb2\x9f='
p581
tp582
Rp583
ag1
(g5
S'\xda\xff\x9e='
p584
tp585
Rp586
ag1
(g5
S' \xc9\x9e='
p587
tp588
Rp589
ag1
(g5
S'[\xcc\x9b='
p590
tp591
Rp592
ag1
(g5
S'$\xa3\x9a='
p593
tp594
Rp595
ag1
(g5
S'o\xd8\x9b='
p596
tp597
Rp598
ag1
(g5
S'\xf6\x0c\x9b='
p599
tp600
Rp601
ag1
(g5
S"r'\x99="
p602
tp603
Rp604
ag1
(g5
S'X\xd2\x97='
p605
tp606
Rp607
ag1
(g5
S'\x00\x99\x97='
p608
tp609
Rp610
ag1
(g5
S'J\xf7\x96='
p611
tp612
Rp613
ag1
(g5
S'cy\x96='
p614
tp615
Rp616
ag1
(g5
S"\xdc'\x96="
p617
tp618
Rp619
ag1
(g5
S'L4\x94='
p620
tp621
Rp622
ag1
(g5
S'\xf3\xfc\x93='
p623
tp624
Rp625
ag1
(g5
S'p\x1c\x93='
p626
tp627
Rp628
ag1
(g5
S'>\xa8\x93='
p629
tp630
Rp631
ag1
(g5
S'K)\x93='
p632
tp633
Rp634
ag1
(g5
S'\x1fw\x92='
p635
tp636
Rp637
ag1
(g5
S'\x9a\xf0\x91='
p638
tp639
Rp640
ag1
(g5
S'1<\x91='
p641
tp642
Rp643
ag1
(g5
S'\tD\x91='
p644
tp645
Rp646
ag1
(g5
S'\xd4K\x90='
p647
tp648
Rp649
ag1
(g5
S'X\x18\x8f='
p650
tp651
Rp652
ag1
(g5
S'\xb6\xa0\x90='
p653
tp654
Rp655
ag1
(g5
S'\xdd\xc1\x8d='
p656
tp657
Rp658
ag1
(g5
S'\x8a\x91\x8d='
p659
tp660
Rp661
ag1
(g5
S'\xf0x\x8d='
p662
tp663
Rp664
ag1
(g5
S'\x9dP\x8d='
p665
tp666
Rp667
ag1
(g5
S'9\xf0\x8b='
p668
tp669
Rp670
ag1
(g5
S'z\xee\x8a='
p671
tp672
Rp673
ag1
(g5
S'\x15\x8c\x8c='
p674
tp675
Rp676
ag1
(g5
S'~\x9d\x89='
p677
tp678
Rp679
ag1
(g5
S"'\xde\x8a="
p680
tp681
Rp682
ag1
(g5
S'\xee\xf9\x8a='
p683
tp684
Rp685
ag1
(g5
S'X\t\x88='
p686
tp687
Rp688
ag1
(g5
S'\x1e\x1f\x89='
p689
tp690
Rp691
ag1
(g5
S'\x8bA\x88='
p692
tp693
Rp694
ag1
(g5
S'\x9a\x08\x89='
p695
tp696
Rp697
ag1
(g5
S'\x8d\xab\x87='
p698
tp699
Rp700
ag1
(g5
S'\xaf\x80\x87='
p701
tp702
Rp703
ag1
(g5
S'\xad\x95\x86='
p704
tp705
Rp706
ag1
(g5
S'.-\x86='
p707
tp708
Rp709
ag1
(g5
S'\x8d\xb9\x84='
p710
tp711
Rp712
ag1
(g5
S'\x04\x16\x87='
p713
tp714
Rp715
ag1
(g5
S'\xf9o\x84='
p716
tp717
Rp718
ag1
(g5
S'c\x92\x85='
p719
tp720
Rp721
ag1
(g5
S'\x19\x90\x83='
p722
tp723
Rp724
ag1
(g5
S'f\xdd\x83='
p725
tp726
Rp727
ag1
(g5
S'{\xaf\x84='
p728
tp729
Rp730
ag1
(g5
S'\xa7\xbd\x82='
p731
tp732
Rp733
ag1
(g5
S'0=\x83='
p734
tp735
Rp736
ag1
(g5
S'\x83\xd4\x82='
p737
tp738
Rp739
ag1
(g5
S'\xb8$\x83='
p740
tp741
Rp742
ag1
(g5
S'7\xb8\x80='
p743
tp744
Rp745
ag1
(g5
S'9\xc7\x81='
p746
tp747
Rp748
ag1
(g5
S'd\x9e\x80='
p749
tp750
Rp751
ag1
(g5
S'\x0ex\x81='
p752
tp753
Rp754
ag1
(g5
S'\x83\xcd\x80='
p755
tp756
Rp757
ag1
(g5
S'\x8eU\x80='
p758
tp759
Rp760
ag1
(g5
S'\xa9\x99\x80='
p761
tp762
Rp763
ag1
(g5
S'=S\x81='
p764
tp765
Rp766
ag1
(g5
S';\xac}='
p767
tp768
Rp769
ag1
(g5
S'i}|='
p770
tp771
Rp772
ag1
(g5
S'i\x9d\x80='
p773
tp774
Rp775
ag1
(g5
S'\x89\x7f}='
p776
tp777
Rp778
ag1
(g5
S't\xca}='
p779
tp780
Rp781
ag1
(g5
S'\xed|{='
p782
tp783
Rp784
ag1
(g5
S'\xff\xf9z='
p785
tp786
Rp787
ag1
(g5
S'\xba_z='
p788
tp789
Rp790
ag1
(g5
S'\x03\x0by='
p791
tp792
Rp793
ag1
(g5
S'\xe6 w='
p794
tp795
Rp796
ag1
(g5
S'taz='
p797
tp798
Rp799
ag1
(g5
S'\x0e\x02u='
p800
tp801
Rp802
ag1
(g5
S'\xfeeu='
p803
tp804
Rp805
ag1
(g5
S'\xec\xe0x='
p806
tp807
Rp808
ag1
(g5
S'\x88\x08u='
p809
tp810
Rp811
ag1
(g5
S'\xd0.v='
p812
tp813
Rp814
ag1
(g5
S'\xba@t='
p815
tp816
Rp817
ag1
(g5
S'\x17Is='
p818
tp819
Rp820
ag1
(g5
S'\xad\x8ft='
p821
tp822
Rp823
ag1
(g5
S'\t\xacr='
p824
tp825
Rp826
ag1
(g5
S'\xfb\xc3q='
p827
tp828
Rp829
ag1
(g5
S'\x865s='
p830
tp831
Rp832
ag1
(g5
S'\x95:s='
p833
tp834
Rp835
ag1
(g5
S'4\xbfq='
p836
tp837
Rp838
ag1
(g5
S':\xb2p='
p839
tp840
Rp841
ag1
(g5
S'7\x8cm='
p842
tp843
Rp844
ag1
(g5
S'\x83Iq='
p845
tp846
Rp847
ag1
(g5
S'\\\xf7m='
p848
tp849
Rp850
ag1
(g5
S'HJm='
p851
tp852
Rp853
ag1
(g5
S'\xdc\nm='
p854
tp855
Rp856
ag1
(g5
S'.zm='
p857
tp858
Rp859
ag1
(g5
S'.hj='
p860
tp861
Rp862
ag1
(g5
S':/o='
p863
tp864
Rp865
ag1
(g5
S'\x02\xach='
p866
tp867
Rp868
ag1
(g5
S'\xfazl='
p869
tp870
Rp871
ag1
(g5
S'\xbf\xb6g='
p872
tp873
Rp874
ag1
(g5
S'\xa18j='
p875
tp876
Rp877
ag1
(g5
S'}\xc3k='
p878
tp879
Rp880
ag1
(g5
S'\x81ri='
p881
tp882
Rp883
ag1
(g5
S'\xa5\xf7h='
p884
tp885
Rp886
ag1
(g5
S'\x98\xa8f='
p887
tp888
Rp889
ag1
(g5
S'|Yg='
p890
tp891
Rp892
ag1
(g5
S'\x08\xe1e='
p893
tp894
Rp895
ag1
(g5
S'x\x85e='
p896
tp897
Rp898
ag1
(g5
S'U"d='
p899
tp900
Rp901
ag1
(g5
S'\xd8[h='
p902
tp903
Rp904
ag1
(g5
S'\xc4\xb8d='
p905
tp906
Rp907
ag1
(g5
S'2.f='
p908
tp909
Rp910
ag1
(g5
S'\x1e\xeb`='
p911
tp912
Rp913
ag1
(g5
S'*1g='
p914
tp915
Rp916
ag1
(g5
S'\xc8\x04e='
p917
tp918
Rp919
ag1
(g5
S'\xfc\xfcb='
p920
tp921
Rp922
ag1
(g5
S'\\|d='
p923
tp924
Rp925
ag1
(g5
S'\x9fxa='
p926
tp927
Rp928
ag1
(g5
S'\xc6\xe3a='
p929
tp930
Rp931
ag1
(g5
S'\r\xc7`='
p932
tp933
Rp934
ag1
(g5
S'\xf3\xdaa='
p935
tp936
Rp937
ag1
(g5
S'\xd7Tc='
p938
tp939
Rp940
ag1
(g5
S'\xbf\xf6`='
p941
tp942
Rp943
ag1
(g5
S'\xc5pa='
p944
tp945
Rp946
ag1
(g5
S'\xd9\xa9_='
p947
tp948
Rp949
ag1
(g5
S'\x04\xca_='
p950
tp951
Rp952
ag1
(g5
S'#.a='
p953
tp954
Rp955
ag1
(g5
S'q\xe8^='
p956
tp957
Rp958
ag1
(g5
S'\xb6\x1b^='
p959
tp960
Rp961
ag1
(g5
S'\xb2y_='
p962
tp963
Rp964
ag1
(g5
S'D\x8b[='
p965
tp966
Rp967
ag1
(g5
S'\x0b\x03\\='
p968
tp969
Rp970
ag1
(g5
S'@\xb3\\='
p971
tp972
Rp973
ag1
(g5
S'w\x9f\\='
p974
tp975
Rp976
ag1
(g5
S'\xa5\r\\='
p977
tp978
Rp979
ag1
(g5
S',\x1f\\='
p980
tp981
Rp982
ag1
(g5
S'x\xb7\\='
p983
tp984
Rp985
ag1
(g5
S'k\x06Z='
p986
tp987
Rp988
ag1
(g5
S'eE[='
p989
tp990
Rp991
ag1
(g5
S'R\x89Y='
p992
tp993
Rp994
ag1
(g5
S'\xda\xa8Z='
p995
tp996
Rp997
ag1
(g5
S'\x0b1Z='
p998
tp999
Rp1000
ag1
(g5
S'G\x92X='
p1001
tp1002
Rp1003
ag1
(g5
S'\xb3RW='
p1004
tp1005
Rp1006
ag1
(g5
S'\xb6-\\='
p1007
tp1008
Rp1009
ag1
(g5
S'\xa5RU='
p1010
tp1011
Rp1012
ag1
(g5
S'\x86\x1aX='
p1013
tp1014
Rp1015
ag1
(g5
S'`;V='
p1016
tp1017
Rp1018
ag1
(g5
S'\xdd\x06U='
p1019
tp1020
Rp1021
ag1
(g5
S'd\xe4V='
p1022
tp1023
Rp1024
ag1
(g5
S'\x07\x9dW='
p1025
tp1026
Rp1027
ag1
(g5
S'\xd8\x90T='
p1028
tp1029
Rp1030
ag1
(g5
S'C\xeaV='
p1031
tp1032
Rp1033
ag1
(g5
S'\xa4\xd0W='
p1034
tp1035
Rp1036
ag1
(g5
S'\x0c\x05W='
p1037
tp1038
Rp1039
ag1
(g5
S'n\x14T='
p1040
tp1041
Rp1042
ag1
(g5
S'\xb2\x8fS='
p1043
tp1044
Rp1045
ag1
(g5
S'V\xb6T='
p1046
tp1047
Rp1048
ag1
(g5
S'M\xf5W='
p1049
tp1050
Rp1051
ag1
(g5
S'\x82eQ='
p1052
tp1053
Rp1054
ag1
(g5
S'(\x19P='
p1055
tp1056
Rp1057
ag1
(g5
S'\xf7AU='
p1058
tp1059
Rp1060
ag1
(g5
S'o\xb5R='
p1061
tp1062
Rp1063
ag1
(g5
S'\x91\x85R='
p1064
tp1065
Rp1066
ag1
(g5
S'^\xa8R='
p1067
tp1068
Rp1069
ag1
(g5
S'\x94KS='
p1070
tp1071
Rp1072
ag1
(g5
S',\x82Q='
p1073
tp1074
Rp1075
ag1
(g5
S'\xe1\xc1Q='
p1076
tp1077
Rp1078
ag1
(g5
S'GBQ='
p1079
tp1080
Rp1081
ag1
(g5
S'7gN='
p1082
tp1083
Rp1084
ag1
(g5
S'\x1aXN='
p1085
tp1086
Rp1087
ag1
(g5
S'U<N='
p1088
tp1089
Rp1090
ag1
(g5
S'\xdf\x85M='
p1091
tp1092
Rp1093
ag1
(g5
S'h"N='
p1094
tp1095
Rp1096
ag1
(g5
S'*:O='
p1097
tp1098
Rp1099
ag1
(g5
S'V\x85L='
p1100
tp1101
Rp1102
ag1
(g5
S'\x06\x95O='
p1103
tp1104
Rp1105
ag1
(g5
S'\x10TM='
p1106
tp1107
Rp1108
ag1
(g5
S'*\xa1K='
p1109
tp1110
Rp1111
ag1
(g5
S'\x0ekN='
p1112
tp1113
Rp1114
ag1
(g5
S'^jL='
p1115
tp1116
Rp1117
ag1
(g5
S'#\xd3J='
p1118
tp1119
Rp1120
ag1
(g5
S'\x08\xf5J='
p1121
tp1122
Rp1123
ag1
(g5
S'\xff8L='
p1124
tp1125
Rp1126
ag1
(g5
S'=FK='
p1127
tp1128
Rp1129
ag1
(g5
S'W\xa6J='
p1130
tp1131
Rp1132
ag1
(g5
S'\x00)J='
p1133
tp1134
Rp1135
ag1
(g5
S'\x87\xe7J='
p1136
tp1137
Rp1138
ag1
(g5
S'+pJ='
p1139
tp1140
Rp1141
ag1
(g5
S'\xf2\x0fK='
p1142
tp1143
Rp1144
ag1
(g5
S'a\x18O='
p1145
tp1146
Rp1147
ag1
(g5
S'=\xe0H='
p1148
tp1149
Rp1150
ag1
(g5
S'7\x7fK='
p1151
tp1152
Rp1153
ag1
(g5
S'z\xc0J='
p1154
tp1155
Rp1156
ag1
(g5
S'+pF='
p1157
tp1158
Rp1159
ag1
(g5
S'\xff\xbaI='
p1160
tp1161
Rp1162
ag1
(g5
S'xnF='
p1163
tp1164
Rp1165
ag1
(g5
S'X_K='
p1166
tp1167
Rp1168
ag1
(g5
S'\xd6\xb1F='
p1169
tp1170
Rp1171
ag1
(g5
S'\xf6\xc3G='
p1172
tp1173
Rp1174
ag1
(g5
S'yaE='
p1175
tp1176
Rp1177
ag1
(g5
S'\x1b\xabC='
p1178
tp1179
Rp1180
ag1
(g5
S'\xb9\xafJ='
p1181
tp1182
Rp1183
ag1
(g5
S'\x90\xe0F='
p1184
tp1185
Rp1186
ag1
(g5
S'7.E='
p1187
tp1188
Rp1189
ag1
(g5
S'\xc6\x18I='
p1190
tp1191
Rp1192
ag1
(g5
S'\x15:E='
p1193
tp1194
Rp1195
ag1
(g5
S'k\xa5E='
p1196
tp1197
Rp1198
ag1
(g5
S'\xf3FG='
p1199
tp1200
Rp1201
ag1
(g5
S'\xaa\x8aG='
p1202
tp1203
Rp1204
ag1
(g5
S'\xc3\xbaB='
p1205
tp1206
Rp1207
a.