(lp0
cnumpy.core.multiarray
scalar
p1
(cnumpy
dtype
p2
(S'f4'
p3
I0
I1
tp4
Rp5
(I3
S'<'
p6
NNNI-1
I-1
I0
tp7
bS'A\xcf=?'
p8
tp9
Rp10
ag1
(g5
S'Hw=?'
p11
tp12
Rp13
ag1
(g5
S'\x1c"=?'
p14
tp15
Rp16
ag1
(g5
S'r\xce<?'
p17
tp18
Rp19
ag1
(g5
S'x{<?'
p20
tp21
Rp22
ag1
(g5
S'\xf5(<?'
p23
tp24
Rp25
ag1
(g5
S'r\xd6;?'
p26
tp27
Rp28
ag1
(g5
S'g\x83;?'
p29
tp30
Rp31
ag1
(g5
S']/;?'
p32
tp33
Rp34
ag1
(g5
S'S\xd9:?'
p35
tp36
Rp37
ag1
(g5
S'\xa9\x7f:?'
p38
tp39
Rp40
ag1
(g5
S'- :?'
p41
tp42
Rp43
ag1
(g5
S'u\xb79?'
p44
tp45
Rp46
ag1
(g5
S'\x9e@9?'
p47
tp48
Rp49
ag1
(g5
S'\xee\xb48?'
p50
tp51
Rp52
ag1
(g5
S'{\n8?'
p53
tp54
Rp55
ag1
(g5
S'\x9f37?'
p56
tp57
Rp58
ag1
(g5
S'*\x1e6?'
p59
tp60
Rp61
ag1
(g5
S'j\xaf4?'
p62
tp63
Rp64
ag1
(g5
S'\xe7\xc82?'
p65
tp66
Rp67
ag1
(g5
S'UD0?'
p68
tp69
Rp70
ag1
(g5
S't\xef,?'
p71
tp72
Rp73
ag1
(g5
S'\x1e\xa1(?'
p74
tp75
Rp76
ag1
(g5
S'\x0b5#?'
p77
tp78
Rp79
ag1
(g5
S'\t\xa0\x1c?'
p80
tp81
Rp82
ag1
(g5
S'\xd6\x13\x15?'
p83
tp84
Rp85
ag1
(g5
S'\xaa\x12\r?'
p86
tp87
Rp88
ag1
(g5
S'\rn\x05?'
p89
tp90
Rp91
ag1
(g5
S'l;\xfe>'
p92
tp93
Rp94
ag1
(g5
S'\x89\xd1\xf5>'
p95
tp96
Rp97
ag1
(g5
S'\xfa\x18\xf2>'
p98
tp99
Rp100
ag1
(g5
S'\x16x\xf1>'
p101
tp102
Rp103
ag1
(g5
S'4\xb2\xf0>'
p104
tp105
Rp106
ag1
(g5
S'\x9a_\xed>'
p107
tp108
Rp109
ag1
(g5
S'T\x11\xe7>'
p110
tp111
Rp112
ag1
(g5
S'c\xb2\xde>'
p113
tp114
Rp115
ag1
(g5
S'&\x9f\xd5>'
p116
tp117
Rp118
ag1
(g5
S'\xe1\x05\xcd>'
p119
tp120
Rp121
ag1
(g5
S'5\xa3\xc5>'
p122
tp123
Rp124
ag1
(g5
S'4\xac\xbf>'
p125
tp126
Rp127
ag1
(g5
S'2\xf2\xba>'
p128
tp129
Rp130
ag1
(g5
S'\xcf\xfe\xb6>'
p131
tp132
Rp133
ag1
(g5
S'\x8fI\xb3>'
p134
tp135
Rp136
ag1
(g5
S'~b\xaf>'
p137
tp138
Rp139
ag1
(g5
S'\xb5\x10\xab>'
p140
tp141
Rp142
ag1
(g5
S'~X\xa6>'
p143
tp144
Rp145
ag1
(g5
S'\x84p\xa1>'
p146
tp147
Rp148
ag1
(g5
S'\x19\xa7\x9c>'
p149
tp150
Rp151
ag1
(g5
S'\xb3I\x98>'
p152
tp153
Rp154
ag1
(g5
S'\xac\x86\x94>'
p155
tp156
Rp157
ag1
(g5
S'KW\x91>'
p158
tp159
Rp160
ag1
(g5
S'3\x86\x8e>'
p161
tp162
Rp163
ag1
(g5
S'Z\xca\x8b>'
p164
tp165
Rp166
ag1
(g5
S'\xf2\xec\x88>'
p167
tp168
Rp169
ag1
(g5
S'\xbe\xdd\x85>'
p170
tp171
Rp172
ag1
(g5
S'e\xb3\x82>'
p173
tp174
Rp175
ag1
(g5
S'p3\x7f>'
p176
tp177
Rp178
ag1
(g5
S'\xcfzy>'
p179
tp180
Rp181
ag1
(g5
S'\xa3mt>'
p182
tp183
Rp184
ag1
(g5
S'\xe2\xfao>'
p185
tp186
Rp187
ag1
(g5
S'\xc0\xe1k>'
p188
tp189
Rp190
ag1
(g5
S'v\xdag>'
p191
tp192
Rp193
ag1
(g5
S'\x17\xb5c>'
p194
tp195
Rp196
ag1
(g5
S'>w_>'
p197
tp198
Rp199
ag1
(g5
S'\xa7J[>'
p200
tp201
Rp202
ag1
(g5
S'faW>'
p203
tp204
Rp205
ag1
(g5
S'\xb1\xd3S>'
p206
tp207
Rp208
ag1
(g5
S'\xcd\x8fP>'
p209
tp210
Rp211
ag1
(g5
S'hwM>'
p212
tp213
Rp214
ag1
(g5
S' `J>'
p215
tp216
Rp217
ag1
(g5
S'{:G>'
p218
tp219
Rp220
ag1
(g5
S'\xa5\x10D>'
p221
tp222
Rp223
ag1
(g5
S'B\xfb@>'
p224
tp225
Rp226
ag1
(g5
S'\xd5\x14>>'
p227
tp228
Rp229
ag1
(g5
S'@l;>'
p230
tp231
Rp232
ag1
(g5
S'\xd3\xe68>'
p233
tp234
Rp235
ag1
(g5
S'?n6>'
p236
tp237
Rp238
ag1
(g5
S'\x00\x034>'
p239
tp240
Rp241
ag1
(g5
S'G\xae1>'
p242
tp243
Rp244
ag1
(g5
S'w\x7f/>'
p245
tp246
Rp247
ag1
(g5
S'@r->'
p248
tp249
Rp250
ag1
(g5
S'\xf2y+>'
p251
tp252
Rp253
ag1
(g5
S'4\x86)>'
p254
tp255
Rp256
ag1
(g5
S"\xd7\x82'>"
p257
tp258
Rp259
ag1
(g5
S'~i%>'
p260
tp261
Rp262
ag1
(g5
S'\xafA#>'
p263
tp264
Rp265
ag1
(g5
S'c\x1a!>'
p266
tp267
Rp268
ag1
(g5
S'\x0e\xf9\x1e>'
p269
tp270
Rp271
ag1
(g5
S'\x98\xd8\x1c>'
p272
tp273
Rp274
ag1
(g5
S':\xb7\x1a>'
p275
tp276
Rp277
ag1
(g5
S'\r\x96\x18>'
p278
tp279
Rp280
ag1
(g5
S'\x13|\x16>'
p281
tp282
Rp283
ag1
(g5
S'\x9fa\x14>'
p284
tp285
Rp286
ag1
(g5
S'\xfb;\x12>'
p287
tp288
Rp289
ag1
(g5
S'\xcf\x0b\x10>'
p290
tp291
Rp292
ag1
(g5
S'\xcd\xdb\r>'
p293
tp294
Rp295
ag1
(g5
S'\xde\xac\x0b>'
p296
tp297
Rp298
ag1
(g5
S"'\x7f\t>"
p299
tp300
Rp301
ag1
(g5
S'_^\x07>'
p302
tp303
Rp304
ag1
(g5
S'NZ\x05>'
p305
tp306
Rp307
ag1
(g5
S',x\x03>'
p308
tp309
Rp310
ag1
(g5
S'5\xb0\x01>'
p311
tp312
Rp313
ag1
(g5
S')\xf8\xff='
p314
tp315
Rp316
ag1
(g5
S';\xc0\xfc='
p317
tp318
Rp319
ag1
(g5
S'\xf9\xae\xf9='
p320
tp321
Rp322
ag1
(g5
S'\xe0\xa7\xf6='
p323
tp324
Rp325
ag1
(g5
S'\xb3\xb1\xf3='
p326
tp327
Rp328
ag1
(g5
S'6\xd4\xf0='
p329
tp330
Rp331
ag1
(g5
S',\n\xee='
p332
tp333
Rp334
ag1
(g5
S'2/\xeb='
p335
tp336
Rp337
ag1
(g5
S'WQ\xe8='
p338
tp339
Rp340
ag1
(g5
S'\x82w\xe5='
p341
tp342
Rp343
ag1
(g5
S'H\xab\xe2='
p344
tp345
Rp346
ag1
(g5
S'6\xe9\xdf='
p347
tp348
Rp349
ag1
(g5
S'\xb7+\xdd='
p350
tp351
Rp352
ag1
(g5
S'2~\xda='
p353
tp354
Rp355
ag1
(g5
S'3\xf1\xd7='
p356
tp357
Rp358
ag1
(g5
S'\x9a{\xd5='
p359
tp360
Rp361
ag1
(g5
S'\x9f\x1d\xd3='
p362
tp363
Rp364
ag1
(g5
S'\x94\xd1\xd0='
p365
tp366
Rp367
ag1
(g5
S'\xa4\x98\xce='
p368
tp369
Rp370
ag1
(g5
S'\xd0p\xcc='
p371
tp372
Rp373
ag1
(g5
S'\x15[\xca='
p374
tp375
Rp376
ag1
(g5
S'\xc1O\xc8='
p377
tp378
Rp379
ag1
(g5
S'wR\xc6='
p380
tp381
Rp382
ag1
(g5
S'\xaba\xc4='
p383
tp384
Rp385
ag1
(g5
S'\x86y\xc2='
p386
tp387
Rp388
ag1
(g5
S'\x18\x9d\xc0='
p389
tp390
Rp391
ag1
(g5
S'+\xca\xbe='
p392
tp393
Rp394
ag1
(g5
S'.\x03\xbd='
p395
tp396
Rp397
ag1
(g5
S'"C\xbb='
p398
tp399
Rp400
ag1
(g5
S'\xd2\x88\xb9='
p401
tp402
Rp403
ag1
(g5
S'\xfe\xd5\xb7='
p404
tp405
Rp406
ag1
(g5
S'1/\xb6='
p407
tp408
Rp409
ag1
(g5
S'\xdd\x91\xb4='
p410
tp411
Rp412
ag1
(g5
S'B\xff\xb2='
p413
tp414
Rp415
ag1
(g5
S'}q\xb1='
p416
tp417
Rp418
ag1
(g5
S'\x0b\xeb\xaf='
p419
tp420
Rp421
ag1
(g5
S'-o\xae='
p422
tp423
Rp424
ag1
(g5
S'^\xfa\xac='
p425
tp426
Rp427
ag1
(g5
S'\x83\x8a\xab='
p428
tp429
Rp430
ag1
(g5
S'\xda\x1e\xaa='
p431
tp432
Rp433
ag1
(g5
S'\x00\xba\xa8='
p434
tp435
Rp436
ag1
(g5
S'\x03W\xa7='
p437
tp438
Rp439
ag1
(g5
S'\xa2\xf7\xa5='
p440
tp441
Rp442
ag1
(g5
S'h\x9b\xa4='
p443
tp444
Rp445
ag1
(g5
S'<D\xa3='
p446
tp447
Rp448
ag1
(g5
S'\xdf\xef\xa1='
p449
tp450
Rp451
ag1
(g5
S'\x12\xa2\xa0='
p452
tp453
Rp454
ag1
(g5
S'\xe6Y\x9f='
p455
tp456
Rp457
ag1
(g5
S'3\x15\x9e='
p458
tp459
Rp460
ag1
(g5
S'?\xd3\x9c='
p461
tp462
Rp463
ag1
(g5
S'x\x97\x9b='
p464
tp465
Rp466
ag1
(g5
S'\xcd`\x9a='
p467
tp468
Rp469
ag1
(g5
S'_/\x99='
p470
tp471
Rp472
ag1
(g5
S'V\x01\x98='
p473
tp474
Rp475
ag1
(g5
S'.\xd7\x96='
p476
tp477
Rp478
ag1
(g5
S'\xe0\xaf\x95='
p479
tp480
Rp481
ag1
(g5
S'\xa7\x8b\x94='
p482
tp483
Rp484
ag1
(g5
S'\x18j\x93='
p485
tp486
Rp487
ag1
(g5
S'%O\x92='
p488
tp489
Rp490
ag1
(g5
S'\n7\x91='
p491
tp492
Rp493
ag1
(g5
S'\r#\x90='
p494
tp495
Rp496
ag1
(g5
S'\xc6\x14\x8f='
p497
tp498
Rp499
ag1
(g5
S'\xfe\x08\x8e='
p500
tp501
Rp502
ag1
(g5
S"'\x00\x8d="
p503
tp504
Rp505
ag1
(g5
S'\xb8\xfb\x8b='
p506
tp507
Rp508
ag1
(g5
S'V\xfc\x8a='
p509
tp510
Rp511
ag1
(g5
S'\x1e\x00\x8a='
p512
tp513
Rp514
ag1
(g5
S'\r\x06\x89='
p515
tp516
Rp517
ag1
(g5
S'\x81\x0f\x88='
p518
tp519
Rp520
ag1
(g5
S'\x94\x1e\x87='
p521
tp522
Rp523
ag1
(g5
S'\xf3/\x86='
p524
tp525
Rp526
ag1
(g5
S'\x7fB\x85='
p527
tp528
Rp529
ag1
(g5
S'JX\x84='
p530
tp531
Rp532
ag1
(g5
S'=r\x83='
p533
tp534
Rp535
ag1
(g5
S'\x14\x92\x82='
p536
tp537
Rp538
ag1
(g5
S'T\xb4\x81='
p539
tp540
Rp541
ag1
(g5
S'c\xd9\x80='
p542
tp543
Rp544
ag1
(g5
S'}\x02\x80='
p545
tp546
Rp547
ag1
(g5
S'c[~='
p548
tp549
Rp550
ag1
(g5
S'|\xb8|='
p551
tp552
Rp553
ag1
(g5
S'\xf5\x1b{='
p554
tp555
Rp556
ag1
(g5
S'\xb5\x87y='
p557
tp558
Rp559
ag1
(g5
S'\xf4\xfaw='
p560
tp561
Rp562
ag1
(g5
S'fsv='
p563
tp564
Rp565
ag1
(g5
S'U\xf4t='
p566
tp567
Rp568
ag1
(g5
S'\xb6zs='
p569
tp570
Rp571
ag1
(g5
S'\x9b\x05r='
p572
tp573
Rp574
ag1
(g5
S'8\x95p='
p575
tp576
Rp577
ag1
(g5
S'\x01*o='
p578
tp579
Rp580
ag1
(g5
S'\x90\xc4m='
p581
tp582
Rp583
ag1
(g5
S'\xbbcl='
p584
tp585
Rp586
ag1
(g5
S'\x90\x06k='
p587
tp588
Rp589
ag1
(g5
S'\t\xadi='
p590
tp591
Rp592
ag1
(g5
S'\x8aXh='
p593
tp594
Rp595
ag1
(g5
S'\xef\x0bg='
p596
tp597
Rp598
ag1
(g5
S'z\xc0e='
p599
tp600
Rp601
ag1
(g5
S'Uyd='
p602
tp603
Rp604
ag1
(g5
S'F9c='
p605
tp606
Rp607
ag1
(g5
S'$\xfaa='
p608
tp609
Rp610
ag1
(g5
S'{\xc3`='
p611
tp612
Rp613
ag1
(g5
S'+\x90_='
p614
tp615
Rp616
ag1
(g5
S'\xf5X^='
p617
tp618
Rp619
ag1
(g5
S'\xe3\x1a]='
p620
tp621
Rp622
ag1
(g5
S'\xe8\xe7[='
p623
tp624
Rp625
ag1
(g5
S'\x03\xbeZ='
p626
tp627
Rp628
ag1
(g5
S'\xda\x99Y='
p629
tp630
Rp631
ag1
(g5
S'JmX='
p632
tp633
Rp634
ag1
(g5
S'\x1aJW='
p635
tp636
Rp637
ag1
(g5
S'\xf9,V='
p638
tp639
Rp640
ag1
(g5
S'\xd1\x14U='
p641
tp642
Rp643
ag1
(g5
S'$\x00T='
p644
tp645
Rp646
ag1
(g5
S'R\xeaR='
p647
tp648
Rp649
ag1
(g5
S'\xbd\xdbQ='
p650
tp651
Rp652
ag1
(g5
S'5\xd0P='
p653
tp654
Rp655
ag1
(g5
S'w\xc4O='
p656
tp657
Rp658
ag1
(g5
S'\x80\xbaN='
p659
tp660
Rp661
ag1
(g5
S'\x96\xb3M='
p662
tp663
Rp664
ag1
(g5
S'\t\xb7L='
p665
tp666
Rp667
ag1
(g5
S'\x97\xbeK='
p668
tp669
Rp670
ag1
(g5
S'\x1b\xc8J='
p671
tp672
Rp673
ag1
(g5
S'\xc5\xcfI='
p674
tp675
Rp676
ag1
(g5
S'\x1f\xe9H='
p677
tp678
Rp679
ag1
(g5
S'\xda\x03H='
p680
tp681
Rp682
ag1
(g5
S'&\x1cG='
p683
tp684
Rp685
ag1
(g5
S'\x0f;F='
p686
tp687
Rp688
ag1
(g5
S'\xdf`E='
p689
tp690
Rp691
ag1
(g5
S'\x1f\x83D='
p692
tp693
Rp694
ag1
(g5
S'\x10\xb1C='
p695
tp696
Rp697
ag1
(g5
S'\xd7\xdbB='
p698
tp699
Rp700
ag1
(g5
S'R\nB='
p701
tp702
Rp703
ag1
(g5
S'\xb3CA='
p704
tp705
Rp706
ag1
(g5
S'\x1c~@='
p707
tp708
Rp709
ag1
(g5
S'\x07\xc2?='
p710
tp711
Rp712
ag1
(g5
S'\x01\x0b?='
p713
tp714
Rp715
ag1
(g5
S'BS>='
p716
tp717
Rp718
ag1
(g5
S'\xb0\x9e=='
p719
tp720
Rp721
ag1
(g5
S'\x80\xf6<='
p722
tp723
Rp724
ag1
(g5
S'\xf7M<='
p725
tp726
Rp727
a.