(lp0
cnumpy.core.multiarray
scalar
p1
(cnumpy
dtype
p2
(S'f4'
p3
I0
I1
tp4
Rp5
(I3
S'<'
p6
NNNI-1
I-1
I0
tp7
bS'V\xd5\xd0>'
p8
tp9
Rp10
ag1
(g5
S'\x02\xc2g>'
p11
tp12
Rp13
ag1
(g5
S'!\xf3\xe4='
p14
tp15
Rp16
ag1
(g5
S'\xc3\xe7`='
p17
tp18
Rp19
ag1
(g5
S'p\xfd\xe8<'
p20
tp21
Rp22
ag1
(g5
S'\xfeG\x95<'
p23
tp24
Rp25
ag1
(g5
S'\x1b\x85\x91<'
p26
tp27
Rp28
ag1
(g5
S'\xaa\xc4j<'
p29
tp30
Rp31
ag1
(g5
S'\x00\x98}<'
p32
tp33
Rp34
ag1
(g5
S'\xbe\x18}<'
p35
tp36
Rp37
ag1
(g5
S'\xbd\xa6^<'
p38
tp39
Rp40
ag1
(g5
S'\xba\x1ej<'
p41
tp42
Rp43
ag1
(g5
S'\xb8ha<'
p44
tp45
Rp46
ag1
(g5
S'jSg<'
p47
tp48
Rp49
ag1
(g5
S'\xeb\xf6c<'
p50
tp51
Rp52
ag1
(g5
S'\xfdq[<'
p53
tp54
Rp55
ag1
(g5
S'\xd20\x88<'
p56
tp57
Rp58
ag1
(g5
S'\xa9\xe1k<'
p59
tp60
Rp61
ag1
(g5
S'\xce\xa4k<'
p62
tp63
Rp64
ag1
(g5
S'3\x95Q<'
p65
tp66
Rp67
ag1
(g5
S'\xdf\xc1h<'
p68
tp69
Rp70
ag1
(g5
S'\x07o\x86<'
p71
tp72
Rp73
ag1
(g5
S'\x18&s<'
p74
tp75
Rp76
ag1
(g5
S'\xabCY<'
p77
tp78
Rp79
ag1
(g5
S'\x9d\xebb<'
p80
tp81
Rp82
ag1
(g5
S'.n\x81<'
p83
tp84
Rp85
ag1
(g5
S'\xdc\xb0t<'
p86
tp87
Rp88
ag1
(g5
S'?\xcbd<'
p89
tp90
Rp91
ag1
(g5
S',\xccf<'
p92
tp93
Rp94
ag1
(g5
S'\xb2\xc5m<'
p95
tp96
Rp97
ag1
(g5
S'\x1cRd<'
p98
tp99
Rp100
ag1
(g5
S'\xdcij<'
p101
tp102
Rp103
ag1
(g5
S'oW\x89<'
p104
tp105
Rp106
ag1
(g5
S'\x7f|r<'
p107
tp108
Rp109
ag1
(g5
S'\xe6#w<'
p110
tp111
Rp112
ag1
(g5
S'\xeaOq<'
p113
tp114
Rp115
ag1
(g5
S'mRr<'
p116
tp117
Rp118
ag1
(g5
S'\x7f\x1dq<'
p119
tp120
Rp121
ag1
(g5
S'\xa3\xa5r<'
p122
tp123
Rp124
ag1
(g5
S'\xfa\xdb\x86<'
p125
tp126
Rp127
ag1
(g5
S'\x8bYO<'
p128
tp129
Rp130
ag1
(g5
S'T\xf9j<'
p131
tp132
Rp133
ag1
(g5
S'1\xf0T<'
p134
tp135
Rp136
ag1
(g5
S'v\xadk<'
p137
tp138
Rp139
ag1
(g5
S'2Dc<'
p140
tp141
Rp142
ag1
(g5
S'\xe5Tm<'
p143
tp144
Rp145
ag1
(g5
S'%\x86\x82<'
p146
tp147
Rp148
ag1
(g5
S'\x847k<'
p149
tp150
Rp151
ag1
(g5
S'V\x01u<'
p152
tp153
Rp154
ag1
(g5
S'Z\xb5J<'
p155
tp156
Rp157
ag1
(g5
S'#"u<'
p158
tp159
Rp160
ag1
(g5
S'T\x17^<'
p161
tp162
Rp163
ag1
(g5
S"\xda'P<"
p164
tp165
Rp166
ag1
(g5
S'\xf7\xafu<'
p167
tp168
Rp169
ag1
(g5
S'\xf0\x92M<'
p170
tp171
Rp172
ag1
(g5
S'\xa6\x11\x83<'
p173
tp174
Rp175
ag1
(g5
S'w\xd5[<'
p176
tp177
Rp178
ag1
(g5
S'\xee5y<'
p179
tp180
Rp181
ag1
(g5
S'z\x81R<'
p182
tp183
Rp184
ag1
(g5
S'r\xf3}<'
p185
tp186
Rp187
ag1
(g5
S'\x85\xbe\x80<'
p188
tp189
Rp190
ag1
(g5
S'\x1a\x94h<'
p191
tp192
Rp193
ag1
(g5
S'PK\x8d<'
p194
tp195
Rp196
ag1
(g5
S'Nb\x83<'
p197
tp198
Rp199
ag1
(g5
S'\xd6Xa<'
p200
tp201
Rp202
ag1
(g5
S'T\xf5w<'
p203
tp204
Rp205
ag1
(g5
S'ySl<'
p206
tp207
Rp208
ag1
(g5
S'K,k<'
p209
tp210
Rp211
ag1
(g5
S'\x86\xabd<'
p212
tp213
Rp214
ag1
(g5
S'\x1d\xc2\x80<'
p215
tp216
Rp217
ag1
(g5
S'\x9ceQ<'
p218
tp219
Rp220
ag1
(g5
S'\x86\x19s<'
p221
tp222
Rp223
ag1
(g5
S'i\xe7l<'
p224
tp225
Rp226
ag1
(g5
S'\x0b\xb7}<'
p227
tp228
Rp229
ag1
(g5
S'\xffS`<'
p230
tp231
Rp232
ag1
(g5
S'\xbdLq<'
p233
tp234
Rp235
ag1
(g5
S'\xe5\xc5\x87<'
p236
tp237
Rp238
ag1
(g5
S'lSz<'
p239
tp240
Rp241
ag1
(g5
S'\xf2\x99b<'
p242
tp243
Rp244
ag1
(g5
S'\xba\xeei<'
p245
tp246
Rp247
ag1
(g5
S'G\xceZ<'
p248
tp249
Rp250
ag1
(g5
S'\xfd\x02\x80<'
p251
tp252
Rp253
ag1
(g5
S'\x17\xeb[<'
p254
tp255
Rp256
ag1
(g5
S'F0g<'
p257
tp258
Rp259
ag1
(g5
S'\xff\xec\x89<'
p260
tp261
Rp262
ag1
(g5
S'n\x1b\x86<'
p263
tp264
Rp265
ag1
(g5
S'd\xc5m<'
p266
tp267
Rp268
ag1
(g5
S'\x00Q]<'
p269
tp270
Rp271
ag1
(g5
S'\xe0G{<'
p272
tp273
Rp274
ag1
(g5
S'\xa7\x04@<'
p275
tp276
Rp277
ag1
(g5
S'\x11\x9aG<'
p278
tp279
Rp280
ag1
(g5
S'6\xf0\x8f<'
p281
tp282
Rp283
ag1
(g5
S'k\x87m<'
p284
tp285
Rp286
ag1
(g5
S'\xf3Vf<'
p287
tp288
Rp289
ag1
(g5
S'&\xc5}<'
p290
tp291
Rp292
ag1
(g5
S'\xaf\xb1z<'
p293
tp294
Rp295
ag1
(g5
S'\x98*Q<'
p296
tp297
Rp298
ag1
(g5
S'\x84@m<'
p299
tp300
Rp301
ag1
(g5
S'\xec\xbb\x87<'
p302
tp303
Rp304
ag1
(g5
S'J\xf0F<'
p305
tp306
Rp307
ag1
(g5
S'y\xc1[<'
p308
tp309
Rp310
ag1
(g5
S'\xe4\x9c\x83<'
p311
tp312
Rp313
ag1
(g5
S'+X\\<'
p314
tp315
Rp316
ag1
(g5
S'\xfc\x92s<'
p317
tp318
Rp319
ag1
(g5
S'\xd7t\x8a<'
p320
tp321
Rp322
ag1
(g5
S'/\xf5Y<'
p323
tp324
Rp325
ag1
(g5
S'\x96Ja<'
p326
tp327
Rp328
ag1
(g5
S'\x9fVz<'
p329
tp330
Rp331
ag1
(g5
S'W\xb1[<'
p332
tp333
Rp334
ag1
(g5
S'\x14\x96\\<'
p335
tp336
Rp337
ag1
(g5
S'=\x86?<'
p338
tp339
Rp340
ag1
(g5
S'\xc8\x8a^<'
p341
tp342
Rp343
ag1
(g5
S'\xa4Mh<'
p344
tp345
Rp346
ag1
(g5
S'\xa9\xc5b<'
p347
tp348
Rp349
ag1
(g5
S'\x82\xbfU<'
p350
tp351
Rp352
ag1
(g5
S'@m\x86<'
p353
tp354
Rp355
ag1
(g5
S'`\x0bb<'
p356
tp357
Rp358
ag1
(g5
S'\xe4|y<'
p359
tp360
Rp361
ag1
(g5
S'\x8eu\x89<'
p362
tp363
Rp364
ag1
(g5
S'\x9egl<'
p365
tp366
Rp367
ag1
(g5
S'b\xdfJ<'
p368
tp369
Rp370
ag1
(g5
S'Ho[<'
p371
tp372
Rp373
ag1
(g5
S'^\xd0t<'
p374
tp375
Rp376
ag1
(g5
S'\x93\xd1><'
p377
tp378
Rp379
ag1
(g5
S'\xe83]<'
p380
tp381
Rp382
ag1
(g5
S'\x95\x8b\x8b<'
p383
tp384
Rp385
ag1
(g5
S'\x8e\x8dv<'
p386
tp387
Rp388
ag1
(g5
S'\xf6\xd1i<'
p389
tp390
Rp391
ag1
(g5
S'\xbe\xf4v<'
p392
tp393
Rp394
ag1
(g5
S'\x163\x86<'
p395
tp396
Rp397
ag1
(g5
S'\xd7\xb3t<'
p398
tp399
Rp400
ag1
(g5
S'\xd9\xa6R<'
p401
tp402
Rp403
ag1
(g5
S'\x83\nn<'
p404
tp405
Rp406
ag1
(g5
S'M\x83@<'
p407
tp408
Rp409
ag1
(g5
S'Z\x1eu<'
p410
tp411
Rp412
ag1
(g5
S'\xc3\xd4<<'
p413
tp414
Rp415
ag1
(g5
S'\x16Lw<'
p416
tp417
Rp418
ag1
(g5
S'\x85\xcc{<'
p419
tp420
Rp421
ag1
(g5
S'\xbd\xe8j<'
p422
tp423
Rp424
ag1
(g5
S'\xad\xa9m<'
p425
tp426
Rp427
ag1
(g5
S'\x12\xe1r<'
p428
tp429
Rp430
ag1
(g5
S'\x9f\xbah<'
p431
tp432
Rp433
ag1
(g5
S'\xfe`w<'
p434
tp435
Rp436
ag1
(g5
S'\x93\ru<'
p437
tp438
Rp439
ag1
(g5
S'\xf1\x0b\x86<'
p440
tp441
Rp442
ag1
(g5
S'\x90ek<'
p443
tp444
Rp445
ag1
(g5
S'\xb0?K<'
p446
tp447
Rp448
ag1
(g5
S':\x86q<'
p449
tp450
Rp451
ag1
(g5
S'\xee~\x87<'
p452
tp453
Rp454
ag1
(g5
S'\x12\xf1}<'
p455
tp456
Rp457
ag1
(g5
S'\xe4xS<'
p458
tp459
Rp460
ag1
(g5
S'\xf0\xdf{<'
p461
tp462
Rp463
ag1
(g5
S'\xd2\xc2~<'
p464
tp465
Rp466
ag1
(g5
S'\x00O]<'
p467
tp468
Rp469
ag1
(g5
S'\xda]6<'
p470
tp471
Rp472
ag1
(g5
S'\xce\xf0`<'
p473
tp474
Rp475
ag1
(g5
S'\xdb\nn<'
p476
tp477
Rp478
ag1
(g5
S'\x9c\xa6\x81<'
p479
tp480
Rp481
ag1
(g5
S'\x9cD\x85<'
p482
tp483
Rp484
ag1
(g5
S'\x9ew[<'
p485
tp486
Rp487
ag1
(g5
S'\xca\xe2\x89<'
p488
tp489
Rp490
ag1
(g5
S'\xac\x9b\x83<'
p491
tp492
Rp493
ag1
(g5
S'\xc4\x9av<'
p494
tp495
Rp496
ag1
(g5
S'\xe0%\x80<'
p497
tp498
Rp499
ag1
(g5
S'\xe5\xbet<'
p500
tp501
Rp502
ag1
(g5
S'\xed0\x82<'
p503
tp504
Rp505
ag1
(g5
S'\xc1eO<'
p506
tp507
Rp508
ag1
(g5
S'bo~<'
p509
tp510
Rp511
ag1
(g5
S'\xfe\x99D<'
p512
tp513
Rp514
ag1
(g5
S'^\x8fm<'
p515
tp516
Rp517
ag1
(g5
S'\xfe`n<'
p518
tp519
Rp520
ag1
(g5
S'3\nk<'
p521
tp522
Rp523
ag1
(g5
S'\xf8\xe1=<'
p524
tp525
Rp526
ag1
(g5
S"'?|<"
p527
tp528
Rp529
ag1
(g5
S'\x11Y\x85<'
p530
tp531
Rp532
ag1
(g5
S'\x1ab\x99<'
p533
tp534
Rp535
ag1
(g5
S'\xe9"d<'
p536
tp537
Rp538
ag1
(g5
S'\xef\xdaj<'
p539
tp540
Rp541
ag1
(g5
S's\x8eQ<'
p542
tp543
Rp544
ag1
(g5
S'y\x1c\x80<'
p545
tp546
Rp547
ag1
(g5
S'\x96w\x89<'
p548
tp549
Rp550
ag1
(g5
S'9\x0e^<'
p551
tp552
Rp553
ag1
(g5
S'\x9eHu<'
p554
tp555
Rp556
ag1
(g5
S'x=\x8b<'
p557
tp558
Rp559
ag1
(g5
S'\xf2*d<'
p560
tp561
Rp562
ag1
(g5
S'\x97=\x83<'
p563
tp564
Rp565
ag1
(g5
S'\x96\x9bt<'
p566
tp567
Rp568
ag1
(g5
S'\x16.w<'
p569
tp570
Rp571
ag1
(g5
S'b\xe7W<'
p572
tp573
Rp574
ag1
(g5
S'\x07\x00n<'
p575
tp576
Rp577
ag1
(g5
S'\x15\x91g<'
p578
tp579
Rp580
ag1
(g5
S'\x87P\x93<'
p581
tp582
Rp583
ag1
(g5
S'"f{<'
p584
tp585
Rp586
ag1
(g5
S'(\x02r<'
p587
tp588
Rp589
ag1
(g5
S'\xaf4P<'
p590
tp591
Rp592
ag1
(g5
S'\x1d\t\x88<'
p593
tp594
Rp595
ag1
(g5
S'R\x08e<'
p596
tp597
Rp598
ag1
(g5
S'(!m<'
p599
tp600
Rp601
ag1
(g5
S'|\xd7\x8c<'
p602
tp603
Rp604
ag1
(g5
S'j\x03n<'
p605
tp606
Rp607
ag1
(g5
S'\xba@r<'
p608
tp609
Rp610
ag1
(g5
S'\x9e\x10\x98<'
p611
tp612
Rp613
ag1
(g5
S'Ibm<'
p614
tp615
Rp616
ag1
(g5
S'\x0c\xb9N<'
p617
tp618
Rp619
ag1
(g5
S'\xf8\xc8n<'
p620
tp621
Rp622
ag1
(g5
S'\xddx\x80<'
p623
tp624
Rp625
ag1
(g5
S'\xa0\x80d<'
p626
tp627
Rp628
ag1
(g5
S'9\xa3\x8a<'
p629
tp630
Rp631
ag1
(g5
S'(\xa0m<'
p632
tp633
Rp634
ag1
(g5
S'[:]<'
p635
tp636
Rp637
ag1
(g5
S'Z\xbbg<'
p638
tp639
Rp640
ag1
(g5
S'\xdbJ]<'
p641
tp642
Rp643
ag1
(g5
S'\xf0\xd9\x80<'
p644
tp645
Rp646
ag1
(g5
S'\xad\xeb\x7f<'
p647
tp648
Rp649
ag1
(g5
S'\x7f\x8ek<'
p650
tp651
Rp652
ag1
(g5
S'\x0c\xeeh<'
p653
tp654
Rp655
ag1
(g5
S'LXK<'
p656
tp657
Rp658
ag1
(g5
S'\xa7\x92m<'
p659
tp660
Rp661
ag1
(g5
S'TC@<'
p662
tp663
Rp664
ag1
(g5
S'\xea\xf1Z<'
p665
tp666
Rp667
ag1
(g5
S'\x1a\xb1m<'
p668
tp669
Rp670
ag1
(g5
S'c\xaeV<'
p671
tp672
Rp673
ag1
(g5
S'\xbd\x13o<'
p674
tp675
Rp676
ag1
(g5
S'v\xd7\x81<'
p677
tp678
Rp679
ag1
(g5
S'a\x1ei<'
p680
tp681
Rp682
ag1
(g5
S'\xec\x02d<'
p683
tp684
Rp685
ag1
(g5
S'0Ug<'
p686
tp687
Rp688
ag1
(g5
S'\x0c\x92y<'
p689
tp690
Rp691
ag1
(g5
S'\xb7\x0bw<'
p692
tp693
Rp694
ag1
(g5
S'L\xb1\x88<'
p695
tp696
Rp697
ag1
(g5
S'\x97$K<'
p698
tp699
Rp700
ag1
(g5
S'\xad\xfab<'
p701
tp702
Rp703
ag1
(g5
S'\xc8\xbb|<'
p704
tp705
Rp706
ag1
(g5
S'P\xd9]<'
p707
tp708
Rp709
ag1
(g5
S'h\xcc\x8a<'
p710
tp711
Rp712
ag1
(g5
S'\x1f\xaaw<'
p713
tp714
Rp715
ag1
(g5
S'\x96\x89s<'
p716
tp717
Rp718
ag1
(g5
S'&|\x8b<'
p719
tp720
Rp721
ag1
(g5
S'\xc9\xed\x84<'
p722
tp723
Rp724
ag1
(g5
S'\xb6Xh<'
p725
tp726
Rp727
ag1
(g5
S'\xe1\x9er<'
p728
tp729
Rp730
ag1
(g5
S'\xa0\xaef<'
p731
tp732
Rp733
ag1
(g5
S'+\xd7\\<'
p734
tp735
Rp736
ag1
(g5
S'{>L<'
p737
tp738
Rp739
ag1
(g5
S'\xe8\xa1q<'
p740
tp741
Rp742
ag1
(g5
S'\xc6pa<'
p743
tp744
Rp745
ag1
(g5
S'\xee\xe5B<'
p746
tp747
Rp748
ag1
(g5
S'\xa3\t~<'
p749
tp750
Rp751
ag1
(g5
S'\x14lc<'
p752
tp753
Rp754
ag1
(g5
S'\xac\xf4s<'
p755
tp756
Rp757
ag1
(g5
S's\xde\x83<'
p758
tp759
Rp760
ag1
(g5
S'\xa3\x90}<'
p761
tp762
Rp763
ag1
(g5
S'3(Z<'
p764
tp765
Rp766
ag1
(g5
S'\xbc \x82<'
p767
tp768
Rp769
ag1
(g5
S'\xd8rl<'
p770
tp771
Rp772
ag1
(g5
S'K\xaaX<'
p773
tp774
Rp775
ag1
(g5
S'\xc5\x12\x87<'
p776
tp777
Rp778
ag1
(g5
S'\xfbhh<'
p779
tp780
Rp781
ag1
(g5
S'\x86\xac}<'
p782
tp783
Rp784
ag1
(g5
S'T\xa8}<'
p785
tp786
Rp787
ag1
(g5
S'\x0f\xb6^<'
p788
tp789
Rp790
ag1
(g5
S'\x18\x0ej<'
p791
tp792
Rp793
ag1
(g5
S'\xc0\xa8a<'
p794
tp795
Rp796
ag1
(g5
S'\xc6\x88g<'
p797
tp798
Rp799
ag1
(g5
S'&%d<'
p800
tp801
Rp802
ag1
(g5
S'\xaag[<'
p803
tp804
Rp805
ag1
(g5
S'\xfb\x8b\x88<'
p806
tp807
Rp808
ag1
(g5
S'\xd8\x10l<'
p809
tp810
Rp811
ag1
(g5
S'\xe3\x03k<'
p812
tp813
Rp814
ag1
(g5
S'\xc9\xa8Q<'
p815
tp816
Rp817
ag1
(g5
S'X\xe9h<'
p818
tp819
Rp820
ag1
(g5
S'x\x92\x86<'
p821
tp822
Rp823
ag1
(g5
S'\xac,s<'
p824
tp825
Rp826
ag1
(g5
S'\xa8cY<'
p827
tp828
Rp829
ag1
(g5
S'\x7f\x08c<'
p830
tp831
Rp832
ag1
(g5
S'\xd2^\x81<'
p833
tp834
Rp835
ag1
(g5
S'z\xa1t<'
p836
tp837
Rp838
ag1
(g5
S'e\x0ee<'
p839
tp840
Rp841
ag1
(g5
S'\x1b\xcef<'
p842
tp843
Rp844
ag1
(g5
S'{\xf9m<'
p845
tp846
Rp847
ag1
(g5
S'5Sd<'
p848
tp849
Rp850
ag1
(g5
S'\xc6\xc1j<'
p851
tp852
Rp853
ag1
(g5
S'wU\x89<'
p854
tp855
Rp856
ag1
(g5
S'"yr<'
p857
tp858
Rp859
ag1
(g5
S'THw<'
p860
tp861
Rp862
ag1
(g5
S'\x12\x1dq<'
p863
tp864
Rp865
ag1
(g5
S'\x04\xd5r<'
p866
tp867
Rp868
ag1
(g5
S'}\xf2p<'
p869
tp870
Rp871
ag1
(g5
S'i\x86r<'
p872
tp873
Rp874
ag1
(g5
S'w\xd8\x86<'
p875
tp876
Rp877
ag1
(g5
S'\xd8|O<'
p878
tp879
Rp880
ag1
(g5
S'\x1b\xe7j<'
p881
tp882
Rp883
ag1
(g5
S'\xe8\xf1T<'
p884
tp885
Rp886
ag1
(g5
S'\xe2\xaek<'
p887
tp888
Rp889
ag1
(g5
S'`\x00c<'
p890
tp891
Rp892
ag1
(g5
S'\xca<m<'
p893
tp894
Rp895
ag1
(g5
S'\xea\xa4\x82<'
p896
tp897
Rp898
ag1
(g5
S'\xbcZk<'
p899
tp900
Rp901
ag1
(g5
S'8\x10u<'
p902
tp903
Rp904
ag1
(g5
S'\xe4\xaaJ<'
p905
tp906
Rp907
ag1
(g5
S'\x17?u<'
p908
tp909
Rp910
ag1
(g5
S'\x1a!^<'
p911
tp912
Rp913
ag1
(g5
S'\xa5@P<'
p914
tp915
Rp916
ag1
(g5
S'\xee\xebu<'
p917
tp918
Rp919
ag1
(g5
S'\xd0\xcdM<'
p920
tp921
Rp922
ag1
(g5
S'\xb64\x83<'
p923
tp924
Rp925
ag1
(g5
S'\x9c\n\\<'
p926
tp927
Rp928
ag1
(g5
S'\xebPy<'
p929
tp930
Rp931
ag1
(g5
S'\x7f\x9dR<'
p932
tp933
Rp934
ag1
(g5
S'\xe2\xe8}<'
p935
tp936
Rp937
ag1
(g5
S'\xc0\xdd\x80<'
p938
tp939
Rp940
ag1
(g5
S'p\xa4h<'
p941
tp942
Rp943
ag1
(g5
S'{{\x8d<'
p944
tp945
Rp946
ag1
(g5
S'\xf6f\x83<'
p947
tp948
Rp949
ag1
(g5
S'\xf1ra<'
p950
tp951
Rp952
ag1
(g5
S'i\x1ax<'
p953
tp954
Rp955
ag1
(g5
S'\xbcql<'
p956
tp957
Rp958
ag1
(g5
S'zTk<'
p959
tp960
Rp961
ag1
(g5
S'B\x14e<'
p962
tp963
Rp964
ag1
(g5
S'i\xb6\x80<'
p965
tp966
Rp967
ag1
(g5
S'I\x8aQ<'
p968
tp969
Rp970
ag1
(g5
S'\xa3\x0es<'
p971
tp972
Rp973
ag1
(g5
S'2\x1bm<'
p974
tp975
Rp976
ag1
(g5
S'\x04\xc2}<'
p977
tp978
Rp979
ag1
(g5
S'\xe1\xaa`<'
p980
tp981
Rp982
ag1
(g5
S'\xaeMq<'
p983
tp984
Rp985
ag1
(g5
S'\xa6\xdc\x87<'
p986
tp987
Rp988
ag1
(g5
S'\xb9bz<'
p989
tp990
Rp991
ag1
(g5
S'\x9c\x90b<'
p992
tp993
Rp994
ag1
(g5
S'\xe07j<'
p995
tp996
Rp997
ag1
(g5
S'\x8f\xbeZ<'
p998
tp999
Rp1000
ag1
(g5
S'\xc9\x00\x80<'
p1001
tp1002
Rp1003
ag1
(g5
S'\x0b,\\<'
p1004
tp1005
Rp1006
ag1
(g5
S'_\x1eg<'
p1007
tp1008
Rp1009
ag1
(g5
S'+\x00\x8a<'
p1010
tp1011
Rp1012
ag1
(g5
S'\x91\x18\x86<'
p1013
tp1014
Rp1015
ag1
(g5
S'\xc7\x82m<'
p1016
tp1017
Rp1018
ag1
(g5
S'rG]<'
p1019
tp1020
Rp1021
ag1
(g5
S'FM{<'
p1022
tp1023
Rp1024
ag1
(g5
S'\xd6\xfd?<'
p1025
tp1026
Rp1027
ag1
(g5
S'\xe8\xa2G<'
p1028
tp1029
Rp1030
ag1
(g5
S'\x04\x02\x90<'
p1031
tp1032
Rp1033
ag1
(g5
S't\xa4m<'
p1034
tp1035
Rp1036
ag1
(g5
S'\x80Hf<'
p1037
tp1038
Rp1039
ag1
(g5
S'\x98\xf9}<'
p1040
tp1041
Rp1042
ag1
(g5
S'\x91nz<'
p1043
tp1044
Rp1045
ag1
(g5
S'\xb5rQ<'
p1046
tp1047
Rp1048
ag1
(g5
S'X\x9cm<'
p1049
tp1050
Rp1051
ag1
(g5
S'?\xb3\x87<'
p1052
tp1053
Rp1054
ag1
(g5
S'\x07\xd6F<'
p1055
tp1056
Rp1057
ag1
(g5
S'\xeb\xca[<'
p1058
tp1059
Rp1060
ag1
(g5
S'\xd1\xa3\x83<'
p1061
tp1062
Rp1063
ag1
(g5
S'\xd6\xf1[<'
p1064
tp1065
Rp1066
ag1
(g5
S'\xd3\x8es<'
p1067
tp1068
Rp1069
ag1
(g5
S'lj\x8a<'
p1070
tp1071
Rp1072
ag1
(g5
S'\x03\xefY<'
p1073
tp1074
Rp1075
ag1
(g5
S'\xef:a<'
p1076
tp1077
Rp1078
ag1
(g5
S'\xe2Ez<'
p1079
tp1080
Rp1081
ag1
(g5
S'%\xa8[<'
p1082
tp1083
Rp1084
ag1
(g5
S'z\xae\\<'
p1085
tp1086
Rp1087
ag1
(g5
S'f??<'
p1088
tp1089
Rp1090
ag1
(g5
S'y\x9e^<'
p1091
tp1092
Rp1093
ag1
(g5
S'\xc8.h<'
p1094
tp1095
Rp1096
ag1
(g5
S'L\xcfb<'
p1097
tp1098
Rp1099
ag1
(g5
S'f\xc3U<'
p1100
tp1101
Rp1102
ag1
(g5
S'FW\x86<'
p1103
tp1104
Rp1105
ag1
(g5
S'"\xd4a<'
p1106
tp1107
Rp1108
ag1
(g5
S'\xd2Qy<'
p1109
tp1110
Rp1111
ag1
(g5
S'\xdaI\x89<'
p1112
tp1113
Rp1114
ag1
(g5
S'\x85Dl<'
p1115
tp1116
Rp1117
ag1
(g5
S'R\xbfJ<'
p1118
tp1119
Rp1120
ag1
(g5
S'H>[<'
p1121
tp1122
Rp1123
ag1
(g5
S'\xf7\xc7t<'
p1124
tp1125
Rp1126
ag1
(g5
S'e\xc9><'
p1127
tp1128
Rp1129
ag1
(g5
S'4L]<'
p1130
tp1131
Rp1132
ag1
(g5
S'w_\x8b<'
p1133
tp1134
Rp1135
ag1
(g5
S'uuv<'
p1136
tp1137
Rp1138
ag1
(g5
S'\xe0\x8di<'
p1139
tp1140
Rp1141
ag1
(g5
S'\xa8\xcav<'
p1142
tp1143
Rp1144
ag1
(g5
S'\r\x18\x86<'
p1145
tp1146
Rp1147
ag1
(g5
S'\x84\x83t<'
p1148
tp1149
Rp1150
ag1
(g5
S'WrR<'
p1151
tp1152
Rp1153
ag1
(g5
S'L\xa9m<'
p1154
tp1155
Rp1156
ag1
(g5
S'!x@<'
p1157
tp1158
Rp1159
ag1
(g5
S't#u<'
p1160
tp1161
Rp1162
ag1
(g5
S'\xcc\x02=<'
p1163
tp1164
Rp1165
ag1
(g5
S'i\x0fw<'
p1166
tp1167
Rp1168
ag1
(g5
S'\x16\x96{<'
p1169
tp1170
Rp1171
ag1
(g5
S'#\xb7j<'
p1172
tp1173
Rp1174
ag1
(g5
S'0wm<'
p1175
tp1176
Rp1177
ag1
(g5
S'\x80\xe1r<'
p1178
tp1179
Rp1180
ag1
(g5
S"'\xa4h<"
p1181
tp1182
Rp1183
ag1
(g5
S'nVw<'
p1184
tp1185
Rp1186
ag1
(g5
S'\x02\xc7t<'
p1187
tp1188
Rp1189
ag1
(g5
S'\x8d\x07\x86<'
p1190
tp1191
Rp1192
ag1
(g5
S'\xaesj<'
p1193
tp1194
Rp1195
ag1
(g5
S'\xd1)K<'
p1196
tp1197
Rp1198
ag1
(g5
S'\xa6\xa9q<'
p1199
tp1200
Rp1201
ag1
(g5
S'xP\x87<'
p1202
tp1203
Rp1204
ag1
(g5
S'\x0c\xd7}<'
p1205
tp1206
Rp1207
ag1
(g5
S'\x07?S<'
p1208
tp1209
Rp1210
ag1
(g5
S'\x02w{<'
p1211
tp1212
Rp1213
ag1
(g5
S'\x9fo~<'
p1214
tp1215
Rp1216
ag1
(g5
S'\xbc(]<'
p1217
tp1218
Rp1219
ag1
(g5
S'\xd7G6<'
p1220
tp1221
Rp1222
ag1
(g5
S'{\xab`<'
p1223
tp1224
Rp1225
ag1
(g5
S'}\x99m<'
p1226
tp1227
Rp1228
ag1
(g5
S"'\xa3\x81<"
p1229
tp1230
Rp1231
ag1
(g5
S'c\x1c\x85<'
p1232
tp1233
Rp1234
ag1
(g5
S'\xc2\x12[<'
p1235
tp1236
Rp1237
ag1
(g5
S'\x9c\xc1\x89<'
p1238
tp1239
Rp1240
ag1
(g5
S'\xd6\x98\x83<'
p1241
tp1242
Rp1243
ag1
(g5
S'k\xc3v<'
p1244
tp1245
Rp1246
ag1
(g5
S'\xda\xee\x7f<'
p1247
tp1248
Rp1249
ag1
(g5
S'\xfe\xaet<'
p1250
tp1251
Rp1252
ag1
(g5
S'p \x82<'
p1253
tp1254
Rp1255
ag1
(g5
S'K:O<'
p1256
tp1257
Rp1258
ag1
(g5
S'\x86\r~<'
p1259
tp1260
Rp1261
ag1
(g5
S'\x87\x9fD<'
p1262
tp1263
Rp1264
ag1
(g5
S'\xf5um<'
p1265
tp1266
Rp1267
ag1
(g5
S'\xc9 n<'
p1268
tp1269
Rp1270
ag1
(g5
S'\xf6\xc3j<'
p1271
tp1272
Rp1273
ag1
(g5
S',\xfb=<'
p1274
tp1275
Rp1276
ag1
(g5
S'c\xf9{<'
p1277
tp1278
Rp1279
ag1
(g5
S'\x82W\x85<'
p1280
tp1281
Rp1282
ag1
(g5
S'\x82t\x99<'
p1283
tp1284
Rp1285
ag1
(g5
S'\xb8\x8ac<'
p1286
tp1287
Rp1288
ag1
(g5
S'\x1d\x1fk<'
p1289
tp1290
Rp1291
ag1
(g5
S'&GQ<'
p1292
tp1293
Rp1294
ag1
(g5
S'h\xea\x7f<'
p1295
tp1296
Rp1297
ag1
(g5
S'LQ\x89<'
p1298
tp1299
Rp1300
ag1
(g5
S'b\xad]<'
p1301
tp1302
Rp1303
ag1
(g5
S']\xa7u<'
p1304
tp1305
Rp1306
ag1
(g5
S'qE\x8b<'
p1307
tp1308
Rp1309
ag1
(g5
S'\x0fSd<'
p1310
tp1311
Rp1312
ag1
(g5
S'\x05\x1f\x83<'
p1313
tp1314
Rp1315
ag1
(g5
S'\xc9\xb7t<'
p1316
tp1317
Rp1318
ag1
(g5
S'u-w<'
p1319
tp1320
Rp1321
ag1
(g5
S'\xb8\x0cX<'
p1322
tp1323
Rp1324
ag1
(g5
S'd\x03n<'
p1325
tp1326
Rp1327
ag1
(g5
S'\x1e}g<'
p1328
tp1329
Rp1330
ag1
(g5
S'\xb3S\x93<'
p1331
tp1332
Rp1333
ag1
(g5
S'\xc0\xd5{<'
p1334
tp1335
Rp1336
ag1
(g5
S'\xd1\x18r<'
p1337
tp1338
Rp1339
ag1
(g5
S'`NP<'
p1340
tp1341
Rp1342
ag1
(g5
S'\x9e\x14\x88<'
p1343
tp1344
Rp1345
ag1
(g5
S'\xf3%e<'
p1346
tp1347
Rp1348
ag1
(g5
S'\xd9bm<'
p1349
tp1350
Rp1351
ag1
(g5
S'\xcd\xe0\x8c<'
p1352
tp1353
Rp1354
ag1
(g5
S'2\xbdm<'
p1355
tp1356
Rp1357
ag1
(g5
S'E*r<'
p1358
tp1359
Rp1360
ag1
(g5
S'$,\x98<'
p1361
tp1362
Rp1363
ag1
(g5
S'73m<'
p1364
tp1365
Rp1366
ag1
(g5
S'\x87\xbbN<'
p1367
tp1368
Rp1369
ag1
(g5
S'\xdb\xc5n<'
p1370
tp1371
Rp1372
ag1
(g5
S'\x86t\x80<'
p1373
tp1374
Rp1375
ag1
(g5
S'\xfewd<'
p1376
tp1377
Rp1378
ag1
(g5
S'(\x96\x8a<'
p1379
tp1380
Rp1381
ag1
(g5
S'\xc35n<'
p1382
tp1383
Rp1384
ag1
(g5
S'F;]<'
p1385
tp1386
Rp1387
ag1
(g5
S'\x15\xcbg<'
p1388
tp1389
Rp1390
ag1
(g5
S'\xe0\x8b]<'
p1391
tp1392
Rp1393
ag1
(g5
S'\x1d\xc0\x80<'
p1394
tp1395
Rp1396
ag1
(g5
S'1\x04\x80<'
p1397
tp1398
Rp1399
ag1
(g5
S'V|k<'
p1400
tp1401
Rp1402
ag1
(g5
S'\xe8\x12i<'
p1403
tp1404
Rp1405
ag1
(g5
S'&\\K<'
p1406
tp1407
Rp1408
ag1
(g5
S'{\xc3m<'
p1409
tp1410
Rp1411
ag1
(g5
S'%M@<'
p1412
tp1413
Rp1414
ag1
(g5
S'\xe7\t[<'
p1415
tp1416
Rp1417
ag1
(g5
S'\x08}m<'
p1418
tp1419
Rp1420
ag1
(g5
S')\xecV<'
p1421
tp1422
Rp1423
ag1
(g5
S'\x81\xfdn<'
p1424
tp1425
Rp1426
ag1
(g5
S']\x02\x82<'
p1427
tp1428
Rp1429
ag1
(g5
S'F:i<'
p1430
tp1431
Rp1432
ag1
(g5
S'\x92\x0cd<'
p1433
tp1434
Rp1435
ag1
(g5
S'z\x82g<'
p1436
tp1437
Rp1438
ag1
(g5
S'\xfc\x92y<'
p1439
tp1440
Rp1441
ag1
(g5
S'\xd4\x00w<'
p1442
tp1443
Rp1444
ag1
(g5
S'/\xa5\x88<'
p1445
tp1446
Rp1447
ag1
(g5
S'\x95+K<'
p1448
tp1449
Rp1450
ag1
(g5
S'\xf3\xe0b<'
p1451
tp1452
Rp1453
ag1
(g5
S'\x84\x12}<'
p1454
tp1455
Rp1456
ag1
(g5
S'\x98\xf0]<'
p1457
tp1458
Rp1459
ag1
(g5
S'g\xd1\x8a<'
p1460
tp1461
Rp1462
ag1
(g5
S'?\xa0w<'
p1463
tp1464
Rp1465
ag1
(g5
S'L\x9as<'
p1466
tp1467
Rp1468
ag1
(g5
S'\xfc\x8d\x8b<'
p1469
tp1470
Rp1471
ag1
(g5
S'Z\xc4\x84<'
p1472
tp1473
Rp1474
ag1
(g5
S'\xf5\xa2h<'
p1475
tp1476
Rp1477
ag1
(g5
S'tcr<'
p1478
tp1479
Rp1480
ag1
(g5
S'\xd5\xd7f<'
p1481
tp1482
Rp1483
ag1
(g5
S'\x06!]<'
p1484
tp1485
Rp1486
ag1
(g5
S'_\nL<'
p1487
tp1488
Rp1489
ag1
(g5
S'2\xeeq<'
p1490
tp1491
Rp1492
ag1
(g5
S'\x02Ta<'
p1493
tp1494
Rp1495
ag1
(g5
S'\x8a\xf9B<'
p1496
tp1497
Rp1498
ag1
(g5
S'G\x0e~<'
p1499
tp1500
Rp1501
ag1
(g5
S'\x9e\tc<'
p1502
tp1503
Rp1504
ag1
(g5
S'\x13\xa4s<'
p1505
tp1506
Rp1507
a.